
ucos-ii_demo_0.elf:     file format elf32-littlearm


Disassembly of section .text:

00006058 <deregister_tm_clones-0xa8>:
	...

00006100 <deregister_tm_clones>:
    6100:	e92d4008 	push	{r3, lr}
    6104:	e30e0524 	movw	r0, #58660	; 0xe524
    6108:	e59f3024 	ldr	r3, [pc, #36]	; 6134 <deregister_tm_clones+0x34>
    610c:	e3400000 	movt	r0, #0
    6110:	e0603003 	rsb	r3, r0, r3
    6114:	e3530006 	cmp	r3, #6
    6118:	98bd8008 	popls	{r3, pc}
    611c:	e3003000 	movw	r3, #0
    6120:	e3403000 	movt	r3, #0
    6124:	e3530000 	cmp	r3, #0
    6128:	08bd8008 	popeq	{r3, pc}
    612c:	e12fff33 	blx	r3
    6130:	e8bd8008 	pop	{r3, pc}
    6134:	0000e527 	andeq	lr, r0, r7, lsr #10

00006138 <register_tm_clones>:
    6138:	e92d4008 	push	{r3, lr}
    613c:	e30e0524 	movw	r0, #58660	; 0xe524
    6140:	e30e3524 	movw	r3, #58660	; 0xe524
    6144:	e3400000 	movt	r0, #0
    6148:	e3403000 	movt	r3, #0
    614c:	e0603003 	rsb	r3, r0, r3
    6150:	e1a03143 	asr	r3, r3, #2
    6154:	e0833fa3 	add	r3, r3, r3, lsr #31
    6158:	e1b010c3 	asrs	r1, r3, #1
    615c:	08bd8008 	popeq	{r3, pc}
    6160:	e3002000 	movw	r2, #0
    6164:	e3402000 	movt	r2, #0
    6168:	e3520000 	cmp	r2, #0
    616c:	08bd8008 	popeq	{r3, pc}
    6170:	e12fff32 	blx	r2
    6174:	e8bd8008 	pop	{r3, pc}

00006178 <__do_global_dtors_aux>:
    6178:	e92d4010 	push	{r4, lr}
    617c:	e30e4534 	movw	r4, #58676	; 0xe534
    6180:	e3404000 	movt	r4, #0
    6184:	e5d43000 	ldrb	r3, [r4]
    6188:	e3530000 	cmp	r3, #0
    618c:	18bd8010 	popne	{r4, pc}
    6190:	ebffffda 	bl	6100 <deregister_tm_clones>
    6194:	e3003000 	movw	r3, #0
    6198:	e3403000 	movt	r3, #0
    619c:	e3530000 	cmp	r3, #0
    61a0:	0a000002 	beq	61b0 <__do_global_dtors_aux+0x38>
    61a4:	e30e0524 	movw	r0, #58660	; 0xe524
    61a8:	e3400000 	movt	r0, #0
    61ac:	e320f000 	nop	{0}
    61b0:	e3a03001 	mov	r3, #1
    61b4:	e5c43000 	strb	r3, [r4]
    61b8:	e8bd8010 	pop	{r4, pc}

000061bc <frame_dummy>:
    61bc:	e92d4008 	push	{r3, lr}
    61c0:	e3003000 	movw	r3, #0
    61c4:	e3403000 	movt	r3, #0
    61c8:	e3530000 	cmp	r3, #0
    61cc:	0a000004 	beq	61e4 <frame_dummy+0x28>
    61d0:	e30e0524 	movw	r0, #58660	; 0xe524
    61d4:	e30e1538 	movw	r1, #58680	; 0xe538
    61d8:	e3400000 	movt	r0, #0
    61dc:	e3401000 	movt	r1, #0
    61e0:	e320f000 	nop	{0}
    61e4:	e30e0520 	movw	r0, #58656	; 0xe520
    61e8:	e3400000 	movt	r0, #0
    61ec:	e5903000 	ldr	r3, [r0]
    61f0:	e3530000 	cmp	r3, #0
    61f4:	0a000004 	beq	620c <frame_dummy+0x50>
    61f8:	e3003000 	movw	r3, #0
    61fc:	e3403000 	movt	r3, #0
    6200:	e3530000 	cmp	r3, #0
    6204:	0a000000 	beq	620c <frame_dummy+0x50>
    6208:	e12fff33 	blx	r3
    620c:	e8bd4008 	pop	{r3, lr}
    6210:	eaffffc8 	b	6138 <register_tm_clones>

00006214 <OS_TaskIdle>:
    6214:	e92d4010 	push	{r4, lr}
    6218:	e3004558 	movw	r4, #1368	; 0x558
    621c:	e3404001 	movt	r4, #1
    6220:	eb000d42 	bl	9730 <OS_CPU_SR_Save>
    6224:	e5943000 	ldr	r3, [r4]
    6228:	e2833001 	add	r3, r3, #1
    622c:	e5843000 	str	r3, [r4]
    6230:	eb000d44 	bl	9748 <OS_CPU_SR_Restore>
    6234:	eb000e56 	bl	9b94 <OSTaskIdleHook>
    6238:	eafffff8 	b	6220 <OS_TaskIdle+0xc>

0000623c <OSEventNameGet>:
    623c:	e92d40f8 	push	{r3, r4, r5, r6, r7, lr}
    6240:	e3003604 	movw	r3, #1540	; 0x604
    6244:	e3403001 	movt	r3, #1
    6248:	e1a06000 	mov	r6, r0
    624c:	e1a07001 	mov	r7, r1
    6250:	e1a05002 	mov	r5, r2
    6254:	e5d34000 	ldrb	r4, [r3]
    6258:	e3540000 	cmp	r4, #0
    625c:	1a000015 	bne	62b8 <OSEventNameGet+0x7c>
    6260:	e5d03000 	ldrb	r3, [r0]
    6264:	e2433001 	sub	r3, r3, #1
    6268:	e3530003 	cmp	r3, #3
    626c:	83a03001 	movhi	r3, #1
    6270:	85c23000 	strbhi	r3, [r2]
    6274:	8a00000d 	bhi	62b0 <OSEventNameGet+0x74>
    6278:	eb000d2c 	bl	9730 <OS_CPU_SR_Save>
    627c:	e5963014 	ldr	r3, [r6, #20]
    6280:	e5873000 	str	r3, [r7]
    6284:	e5d32000 	ldrb	r2, [r3]
    6288:	e3520000 	cmp	r2, #0
    628c:	0a00000e 	beq	62cc <OSEventNameGet+0x90>
    6290:	e5f31001 	ldrb	r1, [r3, #1]!
    6294:	e2844001 	add	r4, r4, #1
    6298:	e3510000 	cmp	r1, #0
    629c:	e6ef4074 	uxtb	r4, r4
    62a0:	1afffffa 	bne	6290 <OSEventNameGet+0x54>
    62a4:	eb000d27 	bl	9748 <OS_CPU_SR_Restore>
    62a8:	e3a03000 	mov	r3, #0
    62ac:	e5c53000 	strb	r3, [r5]
    62b0:	e1a00004 	mov	r0, r4
    62b4:	e8bd80f8 	pop	{r3, r4, r5, r6, r7, pc}
    62b8:	e3a04000 	mov	r4, #0
    62bc:	e3a03011 	mov	r3, #17
    62c0:	e1a00004 	mov	r0, r4
    62c4:	e5c23000 	strb	r3, [r2]
    62c8:	e8bd80f8 	pop	{r3, r4, r5, r6, r7, pc}
    62cc:	e1a04002 	mov	r4, r2
    62d0:	eafffff3 	b	62a4 <OSEventNameGet+0x68>

000062d4 <OSEventNameSet>:
    62d4:	e92d40f8 	push	{r3, r4, r5, r6, r7, lr}
    62d8:	e3003604 	movw	r3, #1540	; 0x604
    62dc:	e3403001 	movt	r3, #1
    62e0:	e1a06000 	mov	r6, r0
    62e4:	e1a07001 	mov	r7, r1
    62e8:	e1a05002 	mov	r5, r2
    62ec:	e5d34000 	ldrb	r4, [r3]
    62f0:	e3540000 	cmp	r4, #0
    62f4:	13a03012 	movne	r3, #18
    62f8:	15c23000 	strbne	r3, [r2]
    62fc:	18bd80f8 	popne	{r3, r4, r5, r6, r7, pc}
    6300:	e5d03000 	ldrb	r3, [r0]
    6304:	e2433001 	sub	r3, r3, #1
    6308:	e3530003 	cmp	r3, #3
    630c:	83a03001 	movhi	r3, #1
    6310:	85c23000 	strbhi	r3, [r2]
    6314:	88bd80f8 	pophi	{r3, r4, r5, r6, r7, pc}
    6318:	eb000d04 	bl	9730 <OS_CPU_SR_Save>
    631c:	e5867014 	str	r7, [r6, #20]
    6320:	eb000d08 	bl	9748 <OS_CPU_SR_Restore>
    6324:	e5c54000 	strb	r4, [r5]
    6328:	e8bd80f8 	pop	{r3, r4, r5, r6, r7, pc}

0000632c <OSInit>:
    632c:	e92d4ff0 	push	{r4, r5, r6, r7, r8, r9, sl, fp, lr}
    6330:	e24dd03c 	sub	sp, sp, #60	; 0x3c
    6334:	e30065e0 	movw	r6, #1504	; 0x5e0
    6338:	e3406001 	movt	r6, #1
    633c:	eb000e05 	bl	9b58 <OSInitHookBegin>
    6340:	e3002558 	movw	r2, #1368	; 0x558
    6344:	e3402001 	movt	r2, #1
    6348:	e58d201c 	str	r2, [sp, #28]
    634c:	e3a01000 	mov	r1, #0
    6350:	e5861000 	str	r1, [r6]
    6354:	e59d601c 	ldr	r6, [sp, #28]
    6358:	e300b60c 	movw	fp, #1548	; 0x60c
    635c:	e30025f8 	movw	r2, #1528	; 0x5f8
    6360:	e340b001 	movt	fp, #1
    6364:	e3402001 	movt	r2, #1
    6368:	e300355d 	movw	r3, #1373	; 0x55d
    636c:	e3403001 	movt	r3, #1
    6370:	e58d3020 	str	r3, [sp, #32]
    6374:	e300355c 	movw	r3, #1372	; 0x55c
    6378:	e3403001 	movt	r3, #1
    637c:	e58d3024 	str	r3, [sp, #36]	; 0x24
    6380:	e30035f0 	movw	r3, #1520	; 0x5f0
    6384:	e5c21000 	strb	r1, [r2]
    6388:	e3403001 	movt	r3, #1
    638c:	e5c21001 	strb	r1, [r2, #1]
    6390:	e3005900 	movw	r5, #2304	; 0x900
    6394:	e5c21002 	strb	r1, [r2, #2]
    6398:	e3405001 	movt	r5, #1
    639c:	e5c21003 	strb	r1, [r2, #3]
    63a0:	e3009604 	movw	r9, #1540	; 0x604
    63a4:	e58b1000 	str	r1, [fp]
    63a8:	e3409001 	movt	r9, #1
    63ac:	e5861000 	str	r1, [r6]
    63b0:	e300a554 	movw	sl, #1364	; 0x554
    63b4:	e59d6024 	ldr	r6, [sp, #36]	; 0x24
    63b8:	e30085e8 	movw	r8, #1512	; 0x5e8
    63bc:	e5c21004 	strb	r1, [r2, #4]
    63c0:	e340a001 	movt	sl, #1
    63c4:	e5c21005 	strb	r1, [r2, #5]
    63c8:	e3408001 	movt	r8, #1
    63cc:	e5c21006 	strb	r1, [r2, #6]
    63d0:	e3007556 	movw	r7, #1366	; 0x556
    63d4:	e5c21007 	strb	r1, [r2, #7]
    63d8:	e3407001 	movt	r7, #1
    63dc:	e59d2020 	ldr	r2, [sp, #32]
    63e0:	e3004555 	movw	r4, #1365	; 0x555
    63e4:	e58d3028 	str	r3, [sp, #40]	; 0x28
    63e8:	e3003608 	movw	r3, #1544	; 0x608
    63ec:	e3403001 	movt	r3, #1
    63f0:	e58d302c 	str	r3, [sp, #44]	; 0x2c
    63f4:	e5c21000 	strb	r1, [r2]
    63f8:	e3404001 	movt	r4, #1
    63fc:	e5c61000 	strb	r1, [r6]
    6400:	e300e5f4 	movw	lr, #1524	; 0x5f4
    6404:	e59d2028 	ldr	r2, [sp, #40]	; 0x28
    6408:	e340e001 	movt	lr, #1
    640c:	e59d602c 	ldr	r6, [sp, #44]	; 0x2c
    6410:	e2853e69 	add	r3, r5, #1680	; 0x690
    6414:	e1a0c005 	mov	ip, r5
    6418:	e1a00001 	mov	r0, r1
    641c:	e5c91000 	strb	r1, [r9]
    6420:	e5ca1000 	strb	r1, [sl]
    6424:	e5c81000 	strb	r1, [r8]
    6428:	e5c71000 	strb	r1, [r7]
    642c:	e5c41000 	strb	r1, [r4]
    6430:	e5ce1000 	strb	r1, [lr]
    6434:	e5821000 	str	r1, [r2]
    6438:	e5861000 	str	r1, [r6]
    643c:	e4cc0001 	strb	r0, [ip], #1
    6440:	e15c0003 	cmp	ip, r3
    6444:	1afffffc 	bne	643c <OSInit+0x110>
    6448:	e3003f90 	movw	r3, #3984	; 0xf90
    644c:	e3403001 	movt	r3, #1
    6450:	e2831c01 	add	r1, r3, #256	; 0x100
    6454:	e3a02000 	mov	r2, #0
    6458:	e4c32001 	strb	r2, [r3], #1
    645c:	e1530001 	cmp	r3, r1
    6460:	1afffffc 	bne	6458 <OSInit+0x12c>
    6464:	e3a03000 	mov	r3, #0
    6468:	e30d4e78 	movw	r4, #56952	; 0xde78
    646c:	e3404000 	movt	r4, #0
    6470:	e1a02003 	mov	r2, r3
    6474:	e0821003 	add	r1, r2, r3
    6478:	e2833001 	add	r3, r3, #1
    647c:	e3530014 	cmp	r3, #20
    6480:	e3000900 	movw	r0, #2304	; 0x900
    6484:	e1a02103 	lsl	r2, r3, #2
    6488:	e0851201 	add	r1, r5, r1, lsl #4
    648c:	e082e003 	add	lr, r2, r3
    6490:	e30dce78 	movw	ip, #56952	; 0xde78
    6494:	e3400001 	movt	r0, #1
    6498:	e340c000 	movt	ip, #0
    649c:	e085e20e 	add	lr, r5, lr, lsl #4
    64a0:	e5814048 	str	r4, [r1, #72]	; 0x48
    64a4:	e581e014 	str	lr, [r1, #20]
    64a8:	1afffff1 	bne	6474 <OSInit+0x148>
    64ac:	e300e810 	movw	lr, #2064	; 0x810
    64b0:	e340e001 	movt	lr, #1
    64b4:	e3a07000 	mov	r7, #0
    64b8:	e3006560 	movw	r6, #1376	; 0x560
    64bc:	e30055e4 	movw	r5, #1508	; 0x5e4
    64c0:	e3406001 	movt	r6, #1
    64c4:	e3405001 	movt	r5, #1
    64c8:	e28e10f0 	add	r1, lr, #240	; 0xf0
    64cc:	e1a0300e 	mov	r3, lr
    64d0:	e1a02007 	mov	r2, r7
    64d4:	e5807654 	str	r7, [r0, #1620]	; 0x654
    64d8:	e580c688 	str	ip, [r0, #1672]	; 0x688
    64dc:	e5867000 	str	r7, [r6]
    64e0:	e5850000 	str	r0, [r5]
    64e4:	e4c32001 	strb	r2, [r3], #1
    64e8:	e1530001 	cmp	r3, r1
    64ec:	1afffffc 	bne	64e4 <OSInit+0x1b8>
    64f0:	e3a03000 	mov	r3, #0
    64f4:	e1a0c003 	mov	ip, r3
    64f8:	e1a08003 	mov	r8, r3
    64fc:	e08c5003 	add	r5, ip, r3
    6500:	e2833001 	add	r3, r3, #1
    6504:	e3530009 	cmp	r3, #9
    6508:	e3002810 	movw	r2, #2064	; 0x810
    650c:	e1a0c083 	lsl	ip, r3, #1
    6510:	e08e1185 	add	r1, lr, r5, lsl #3
    6514:	e08c6003 	add	r6, ip, r3
    6518:	e30d0e78 	movw	r0, #56952	; 0xde78
    651c:	e3402001 	movt	r2, #1
    6520:	e3a07000 	mov	r7, #0
    6524:	e08e6186 	add	r6, lr, r6, lsl #3
    6528:	e7ce8185 	strb	r8, [lr, r5, lsl #3]
    652c:	e5816004 	str	r6, [r1, #4]
    6530:	e3400000 	movt	r0, #0
    6534:	e5814014 	str	r4, [r1, #20]
    6538:	1affffef 	bne	64fc <OSInit+0x1d0>
    653c:	e3003600 	movw	r3, #1536	; 0x600
    6540:	e3403001 	movt	r3, #1
    6544:	e5c270d8 	strb	r7, [r2, #216]	; 0xd8
    6548:	e58270dc 	str	r7, [r2, #220]	; 0xdc
    654c:	e58200ec 	str	r0, [r2, #236]	; 0xec
    6550:	e5832000 	str	r2, [r3]
    6554:	eb00053f 	bl	7a58 <OS_MemInit>
    6558:	e3000610 	movw	r0, #1552	; 0x610
    655c:	e3400001 	movt	r0, #1
    6560:	e3a0c003 	mov	ip, #3
    6564:	e1a01007 	mov	r1, r7
    6568:	e2802f7f 	add	r2, r0, #508	; 0x1fc
    656c:	e3a0303f 	mov	r3, #63	; 0x3f
    6570:	e58d0004 	str	r0, [sp, #4]
    6574:	e30f0fff 	movw	r0, #65535	; 0xffff
    6578:	e58dc010 	str	ip, [sp, #16]
    657c:	e58d0000 	str	r0, [sp]
    6580:	e3a00080 	mov	r0, #128	; 0x80
    6584:	e58d700c 	str	r7, [sp, #12]
    6588:	e58d0008 	str	r0, [sp, #8]
    658c:	e3060214 	movw	r0, #25108	; 0x6214
    6590:	e3400000 	movt	r0, #0
    6594:	eb0009a1 	bl	8c20 <OSTaskCreateExt>
    6598:	e3a0003f 	mov	r0, #63	; 0x3f
    659c:	e28d2037 	add	r2, sp, #55	; 0x37
    65a0:	e30d1e7c 	movw	r1, #56956	; 0xde7c
    65a4:	e3401000 	movt	r1, #0
    65a8:	eb000aaa 	bl	9058 <OSTaskNameSet>
    65ac:	eb000d75 	bl	9b88 <OSInitHookEnd>
    65b0:	e28dd03c 	add	sp, sp, #60	; 0x3c
    65b4:	e8bd8ff0 	pop	{r4, r5, r6, r7, r8, r9, sl, fp, pc}

000065b8 <OSIntEnter>:
    65b8:	e3003556 	movw	r3, #1366	; 0x556
    65bc:	e3403001 	movt	r3, #1
    65c0:	e5d33000 	ldrb	r3, [r3]
    65c4:	e3530001 	cmp	r3, #1
    65c8:	112fff1e 	bxne	lr
    65cc:	e3003604 	movw	r3, #1540	; 0x604
    65d0:	e3403001 	movt	r3, #1
    65d4:	e5d32000 	ldrb	r2, [r3]
    65d8:	e35200ff 	cmp	r2, #255	; 0xff
    65dc:	12822001 	addne	r2, r2, #1
    65e0:	15c32000 	strbne	r2, [r3]
    65e4:	e12fff1e 	bx	lr

000065e8 <OSIntExit>:
    65e8:	e3003556 	movw	r3, #1366	; 0x556
    65ec:	e3403001 	movt	r3, #1
    65f0:	e92d4070 	push	{r4, r5, r6, lr}
    65f4:	e24dd008 	sub	sp, sp, #8
    65f8:	e5d33000 	ldrb	r3, [r3]
    65fc:	e3530001 	cmp	r3, #1
    6600:	0a000001 	beq	660c <OSIntExit+0x24>
    6604:	e28dd008 	add	sp, sp, #8
    6608:	e8bd8070 	pop	{r4, r5, r6, pc}
    660c:	eb000c47 	bl	9730 <OS_CPU_SR_Save>
    6610:	e3003604 	movw	r3, #1540	; 0x604
    6614:	e3403001 	movt	r3, #1
    6618:	e5d32000 	ldrb	r2, [r3]
    661c:	e3520000 	cmp	r2, #0
    6620:	1a00002c 	bne	66d8 <OSIntExit+0xf0>
    6624:	e3003554 	movw	r3, #1364	; 0x554
    6628:	e3403001 	movt	r3, #1
    662c:	e5d33000 	ldrb	r3, [r3]
    6630:	e3530000 	cmp	r3, #0
    6634:	1a000024 	bne	66cc <OSIntExit+0xe4>
    6638:	e30025f4 	movw	r2, #1524	; 0x5f4
    663c:	e3402001 	movt	r2, #1
    6640:	e30d3ad8 	movw	r3, #56024	; 0xdad8
    6644:	e3403000 	movt	r3, #0
    6648:	e5d2c000 	ldrb	ip, [r2]
    664c:	e30045f8 	movw	r4, #1528	; 0x5f8
    6650:	e3404001 	movt	r4, #1
    6654:	e300255d 	movw	r2, #1373	; 0x55d
    6658:	e3402001 	movt	r2, #1
    665c:	e3001f90 	movw	r1, #3984	; 0xf90
    6660:	e7d3500c 	ldrb	r5, [r3, ip]
    6664:	e3401001 	movt	r1, #1
    6668:	e5d26000 	ldrb	r6, [r2]
    666c:	e300c55c 	movw	ip, #1372	; 0x55c
    6670:	e340c001 	movt	ip, #1
    6674:	e30025f0 	movw	r2, #1520	; 0x5f0
    6678:	e7d44005 	ldrb	r4, [r4, r5]
    667c:	e3402001 	movt	r2, #1
    6680:	e7d33004 	ldrb	r3, [r3, r4]
    6684:	e0833185 	add	r3, r3, r5, lsl #3
    6688:	e6ef3073 	uxtb	r3, r3
    668c:	e5cc3000 	strb	r3, [ip]
    6690:	e1560003 	cmp	r6, r3
    6694:	e7913103 	ldr	r3, [r1, r3, lsl #2]
    6698:	e5823000 	str	r3, [r2]
    669c:	0a00000a 	beq	66cc <OSIntExit+0xe4>
    66a0:	e30025e0 	movw	r2, #1504	; 0x5e0
    66a4:	e3402001 	movt	r2, #1
    66a8:	e593c034 	ldr	ip, [r3, #52]	; 0x34
    66ac:	e5921000 	ldr	r1, [r2]
    66b0:	e28cc001 	add	ip, ip, #1
    66b4:	e583c034 	str	ip, [r3, #52]	; 0x34
    66b8:	e2813001 	add	r3, r1, #1
    66bc:	e5823000 	str	r3, [r2]
    66c0:	e58d0004 	str	r0, [sp, #4]
    66c4:	eb000c4a 	bl	97f4 <OSIntCtxSw>
    66c8:	e59d0004 	ldr	r0, [sp, #4]
    66cc:	e28dd008 	add	sp, sp, #8
    66d0:	e8bd4070 	pop	{r4, r5, r6, lr}
    66d4:	ea000c1b 	b	9748 <OS_CPU_SR_Restore>
    66d8:	e2422001 	sub	r2, r2, #1
    66dc:	e6ef2072 	uxtb	r2, r2
    66e0:	e5c32000 	strb	r2, [r3]
    66e4:	e3520000 	cmp	r2, #0
    66e8:	1afffff7 	bne	66cc <OSIntExit+0xe4>
    66ec:	eaffffcc 	b	6624 <OSIntExit+0x3c>

000066f0 <OSSchedLock>:
    66f0:	e92d4008 	push	{r3, lr}
    66f4:	e3003556 	movw	r3, #1366	; 0x556
    66f8:	e3403001 	movt	r3, #1
    66fc:	e5d33000 	ldrb	r3, [r3]
    6700:	e3530001 	cmp	r3, #1
    6704:	18bd8008 	popne	{r3, pc}
    6708:	eb000c08 	bl	9730 <OS_CPU_SR_Save>
    670c:	e3003604 	movw	r3, #1540	; 0x604
    6710:	e3403001 	movt	r3, #1
    6714:	e5d33000 	ldrb	r3, [r3]
    6718:	e3530000 	cmp	r3, #0
    671c:	1a000005 	bne	6738 <OSSchedLock+0x48>
    6720:	e3003554 	movw	r3, #1364	; 0x554
    6724:	e3403001 	movt	r3, #1
    6728:	e5d32000 	ldrb	r2, [r3]
    672c:	e35200ff 	cmp	r2, #255	; 0xff
    6730:	12822001 	addne	r2, r2, #1
    6734:	15c32000 	strbne	r2, [r3]
    6738:	e8bd4008 	pop	{r3, lr}
    673c:	ea000c01 	b	9748 <OS_CPU_SR_Restore>

00006740 <OSStart>:
    6740:	e3003556 	movw	r3, #1366	; 0x556
    6744:	e3403001 	movt	r3, #1
    6748:	e92d0070 	push	{r4, r5, r6}
    674c:	e5d33000 	ldrb	r3, [r3]
    6750:	e3530000 	cmp	r3, #0
    6754:	0a000001 	beq	6760 <OSStart+0x20>
    6758:	e8bd0070 	pop	{r4, r5, r6}
    675c:	e12fff1e 	bx	lr
    6760:	e30025f4 	movw	r2, #1524	; 0x5f4
    6764:	e3402001 	movt	r2, #1
    6768:	e30d3ad8 	movw	r3, #56024	; 0xdad8
    676c:	e3403000 	movt	r3, #0
    6770:	e5d21000 	ldrb	r1, [r2]
    6774:	e30025f8 	movw	r2, #1528	; 0x5f8
    6778:	e3402001 	movt	r2, #1
    677c:	e3000f90 	movw	r0, #3984	; 0xf90
    6780:	e300455c 	movw	r4, #1372	; 0x55c
    6784:	e3400001 	movt	r0, #1
    6788:	e7d35001 	ldrb	r5, [r3, r1]
    678c:	e3404001 	movt	r4, #1
    6790:	e300c55d 	movw	ip, #1373	; 0x55d
    6794:	e340c001 	movt	ip, #1
    6798:	e30015f0 	movw	r1, #1520	; 0x5f0
    679c:	e3401001 	movt	r1, #1
    67a0:	e7d26005 	ldrb	r6, [r2, r5]
    67a4:	e3002608 	movw	r2, #1544	; 0x608
    67a8:	e3402001 	movt	r2, #1
    67ac:	e7d33006 	ldrb	r3, [r3, r6]
    67b0:	e0833185 	add	r3, r3, r5, lsl #3
    67b4:	e6ef3073 	uxtb	r3, r3
    67b8:	e5c43000 	strb	r3, [r4]
    67bc:	e5cc3000 	strb	r3, [ip]
    67c0:	e7903103 	ldr	r3, [r0, r3, lsl #2]
    67c4:	e5813000 	str	r3, [r1]
    67c8:	e5823000 	str	r3, [r2]
    67cc:	e8bd0070 	pop	{r4, r5, r6}
    67d0:	ea000bdf 	b	9754 <OSStartHighRdy>

000067d4 <OSTimeTick>:
    67d4:	e92d40f8 	push	{r3, r4, r5, r6, r7, lr}
    67d8:	eb000d2e 	bl	9c98 <OSTimeTickHook>
    67dc:	eb000bd3 	bl	9730 <OS_CPU_SR_Save>
    67e0:	e300360c 	movw	r3, #1548	; 0x60c
    67e4:	e3403001 	movt	r3, #1
    67e8:	e5932000 	ldr	r2, [r3]
    67ec:	e2822001 	add	r2, r2, #1
    67f0:	e5832000 	str	r2, [r3]
    67f4:	eb000bd3 	bl	9748 <OS_CPU_SR_Restore>
    67f8:	e3003556 	movw	r3, #1366	; 0x556
    67fc:	e3403001 	movt	r3, #1
    6800:	e5d33000 	ldrb	r3, [r3]
    6804:	e3530001 	cmp	r3, #1
    6808:	18bd80f8 	popne	{r3, r4, r5, r6, r7, pc}
    680c:	e30025dc 	movw	r2, #1500	; 0x5dc
    6810:	e3402001 	movt	r2, #1
    6814:	e5d21000 	ldrb	r1, [r2]
    6818:	e3510001 	cmp	r1, #1
    681c:	08bd80f8 	popeq	{r3, r4, r5, r6, r7, pc}
    6820:	2a00002b 	bcs	68d4 <OSTimeTick+0x100>
    6824:	e3003560 	movw	r3, #1376	; 0x560
    6828:	e3403001 	movt	r3, #1
    682c:	e5934000 	ldr	r4, [r3]
    6830:	e5d4302e 	ldrb	r3, [r4, #46]	; 0x2e
    6834:	e353003f 	cmp	r3, #63	; 0x3f
    6838:	08bd80f8 	popeq	{r3, r4, r5, r6, r7, pc}
    683c:	e30065f4 	movw	r6, #1524	; 0x5f4
    6840:	e30055f8 	movw	r5, #1528	; 0x5f8
    6844:	e3406001 	movt	r6, #1
    6848:	e3405001 	movt	r5, #1
    684c:	e3a07001 	mov	r7, #1
    6850:	eb000bb6 	bl	9730 <OS_CPU_SR_Save>
    6854:	e5943028 	ldr	r3, [r4, #40]	; 0x28
    6858:	e3530000 	cmp	r3, #0
    685c:	e2432001 	sub	r2, r3, #1
    6860:	0a000015 	beq	68bc <OSTimeTick+0xe8>
    6864:	e3520000 	cmp	r2, #0
    6868:	e5842028 	str	r2, [r4, #40]	; 0x28
    686c:	1a000012 	bne	68bc <OSTimeTick+0xe8>
    6870:	e5d4302c 	ldrb	r3, [r4, #44]	; 0x2c
    6874:	e2132037 	ands	r2, r3, #55	; 0x37
    6878:	15c4702d 	strbne	r7, [r4, #45]	; 0x2d
    687c:	120330c8 	andne	r3, r3, #200	; 0xc8
    6880:	15c4302c 	strbne	r3, [r4, #44]	; 0x2c
    6884:	e2033008 	and	r3, r3, #8
    6888:	05c4202d 	strbeq	r2, [r4, #45]	; 0x2d
    688c:	e6ef3073 	uxtb	r3, r3
    6890:	e3530000 	cmp	r3, #0
    6894:	1a000008 	bne	68bc <OSTimeTick+0xe8>
    6898:	e5d43030 	ldrb	r3, [r4, #48]	; 0x30
    689c:	e5d4c032 	ldrb	ip, [r4, #50]	; 0x32
    68a0:	e5d42031 	ldrb	r2, [r4, #49]	; 0x31
    68a4:	e5d6e000 	ldrb	lr, [r6]
    68a8:	e7d51003 	ldrb	r1, [r5, r3]
    68ac:	e18ec00c 	orr	ip, lr, ip
    68b0:	e5c6c000 	strb	ip, [r6]
    68b4:	e1812002 	orr	r2, r1, r2
    68b8:	e7c52003 	strb	r2, [r5, r3]
    68bc:	e5944014 	ldr	r4, [r4, #20]
    68c0:	eb000ba0 	bl	9748 <OS_CPU_SR_Restore>
    68c4:	e5d4302e 	ldrb	r3, [r4, #46]	; 0x2e
    68c8:	e353003f 	cmp	r3, #63	; 0x3f
    68cc:	1affffdf 	bne	6850 <OSTimeTick+0x7c>
    68d0:	e8bd80f8 	pop	{r3, r4, r5, r6, r7, pc}
    68d4:	e3510002 	cmp	r1, #2
    68d8:	13a03000 	movne	r3, #0
    68dc:	e5c23000 	strb	r3, [r2]
    68e0:	eaffffcf 	b	6824 <OSTimeTick+0x50>

000068e4 <OSVersion>:
    68e4:	e3070217 	movw	r0, #29207	; 0x7217
    68e8:	e12fff1e 	bx	lr

000068ec <OS_Dummy>:
    68ec:	e12fff1e 	bx	lr

000068f0 <OS_EventTaskWait>:
    68f0:	e3003608 	movw	r3, #1544	; 0x608
    68f4:	e3403001 	movt	r3, #1
    68f8:	e92d0030 	push	{r4, r5}
    68fc:	e30025f8 	movw	r2, #1528	; 0x5f8
    6900:	e5933000 	ldr	r3, [r3]
    6904:	e3402001 	movt	r2, #1
    6908:	e5d31030 	ldrb	r1, [r3, #48]	; 0x30
    690c:	e583001c 	str	r0, [r3, #28]
    6910:	e0801001 	add	r1, r0, r1
    6914:	e5d34031 	ldrb	r4, [r3, #49]	; 0x31
    6918:	e5d0c00a 	ldrb	ip, [r0, #10]
    691c:	e5d1500b 	ldrb	r5, [r1, #11]
    6920:	e1854004 	orr	r4, r5, r4
    6924:	e5c1400b 	strb	r4, [r1, #11]
    6928:	e5d31032 	ldrb	r1, [r3, #50]	; 0x32
    692c:	e181100c 	orr	r1, r1, ip
    6930:	e5c0100a 	strb	r1, [r0, #10]
    6934:	e5d30030 	ldrb	r0, [r3, #48]	; 0x30
    6938:	e5d3c031 	ldrb	ip, [r3, #49]	; 0x31
    693c:	e7d21000 	ldrb	r1, [r2, r0]
    6940:	e1c1100c 	bic	r1, r1, ip
    6944:	e7c21000 	strb	r1, [r2, r0]
    6948:	e3510000 	cmp	r1, #0
    694c:	1a000005 	bne	6968 <OS_EventTaskWait+0x78>
    6950:	e30025f4 	movw	r2, #1524	; 0x5f4
    6954:	e3402001 	movt	r2, #1
    6958:	e5d31032 	ldrb	r1, [r3, #50]	; 0x32
    695c:	e5d23000 	ldrb	r3, [r2]
    6960:	e1c33001 	bic	r3, r3, r1
    6964:	e5c23000 	strb	r3, [r2]
    6968:	e8bd0030 	pop	{r4, r5}
    696c:	e12fff1e 	bx	lr

00006970 <OS_EventTaskWaitMulti>:
    6970:	e3003608 	movw	r3, #1544	; 0x608
    6974:	e3403001 	movt	r3, #1
    6978:	e92d0030 	push	{r4, r5}
    697c:	e5932000 	ldr	r2, [r3]
    6980:	e3a03000 	mov	r3, #0
    6984:	e5820020 	str	r0, [r2, #32]
    6988:	e582301c 	str	r3, [r2, #28]
    698c:	e5903000 	ldr	r3, [r0]
    6990:	e3530000 	cmp	r3, #0
    6994:	0a00000c 	beq	69cc <OS_EventTaskWaitMulti+0x5c>
    6998:	e5d21030 	ldrb	r1, [r2, #48]	; 0x30
    699c:	e5d24031 	ldrb	r4, [r2, #49]	; 0x31
    69a0:	e0831001 	add	r1, r3, r1
    69a4:	e5d3c00a 	ldrb	ip, [r3, #10]
    69a8:	e5d1500b 	ldrb	r5, [r1, #11]
    69ac:	e1854004 	orr	r4, r5, r4
    69b0:	e5c1400b 	strb	r4, [r1, #11]
    69b4:	e5d21032 	ldrb	r1, [r2, #50]	; 0x32
    69b8:	e181100c 	orr	r1, r1, ip
    69bc:	e5c3100a 	strb	r1, [r3, #10]
    69c0:	e5b03004 	ldr	r3, [r0, #4]!
    69c4:	e3530000 	cmp	r3, #0
    69c8:	1afffff2 	bne	6998 <OS_EventTaskWaitMulti+0x28>
    69cc:	e5d20030 	ldrb	r0, [r2, #48]	; 0x30
    69d0:	e30035f8 	movw	r3, #1528	; 0x5f8
    69d4:	e3403001 	movt	r3, #1
    69d8:	e5d2c031 	ldrb	ip, [r2, #49]	; 0x31
    69dc:	e7d31000 	ldrb	r1, [r3, r0]
    69e0:	e1c1100c 	bic	r1, r1, ip
    69e4:	e7c31000 	strb	r1, [r3, r0]
    69e8:	e3510000 	cmp	r1, #0
    69ec:	1a000005 	bne	6a08 <OS_EventTaskWaitMulti+0x98>
    69f0:	e30035f4 	movw	r3, #1524	; 0x5f4
    69f4:	e3403001 	movt	r3, #1
    69f8:	e5d21032 	ldrb	r1, [r2, #50]	; 0x32
    69fc:	e5d32000 	ldrb	r2, [r3]
    6a00:	e1c22001 	bic	r2, r2, r1
    6a04:	e5c32000 	strb	r2, [r3]
    6a08:	e8bd0030 	pop	{r4, r5}
    6a0c:	e12fff1e 	bx	lr

00006a10 <OS_EventTaskRemove>:
    6a10:	e5d02030 	ldrb	r2, [r0, #48]	; 0x30
    6a14:	e5d0c031 	ldrb	ip, [r0, #49]	; 0x31
    6a18:	e0812002 	add	r2, r1, r2
    6a1c:	e5d2300b 	ldrb	r3, [r2, #11]
    6a20:	e1c3300c 	bic	r3, r3, ip
    6a24:	e5c2300b 	strb	r3, [r2, #11]
    6a28:	e3530000 	cmp	r3, #0
    6a2c:	05d1300a 	ldrbeq	r3, [r1, #10]
    6a30:	05d02032 	ldrbeq	r2, [r0, #50]	; 0x32
    6a34:	01c33002 	biceq	r3, r3, r2
    6a38:	05c1300a 	strbeq	r3, [r1, #10]
    6a3c:	e12fff1e 	bx	lr

00006a40 <OS_EventTaskRemoveMulti>:
    6a40:	e5913000 	ldr	r3, [r1]
    6a44:	e92d0030 	push	{r4, r5}
    6a48:	e3530000 	cmp	r3, #0
    6a4c:	e5d0c030 	ldrb	ip, [r0, #48]	; 0x30
    6a50:	e5d05032 	ldrb	r5, [r0, #50]	; 0x32
    6a54:	e5d04031 	ldrb	r4, [r0, #49]	; 0x31
    6a58:	0a00000d 	beq	6a94 <OS_EventTaskRemoveMulti+0x54>
    6a5c:	e1e04004 	mvn	r4, r4
    6a60:	e1e05005 	mvn	r5, r5
    6a64:	e6ef4074 	uxtb	r4, r4
    6a68:	e083000c 	add	r0, r3, ip
    6a6c:	e5d0200b 	ldrb	r2, [r0, #11]
    6a70:	e0042002 	and	r2, r4, r2
    6a74:	e5c0200b 	strb	r2, [r0, #11]
    6a78:	e3520000 	cmp	r2, #0
    6a7c:	05d3200a 	ldrbeq	r2, [r3, #10]
    6a80:	00052002 	andeq	r2, r5, r2
    6a84:	05c3200a 	strbeq	r2, [r3, #10]
    6a88:	e5b13004 	ldr	r3, [r1, #4]!
    6a8c:	e3530000 	cmp	r3, #0
    6a90:	1afffff4 	bne	6a68 <OS_EventTaskRemoveMulti+0x28>
    6a94:	e8bd0030 	pop	{r4, r5}
    6a98:	e12fff1e 	bx	lr

00006a9c <OS_EventTaskRdy>:
    6a9c:	e92d41f0 	push	{r4, r5, r6, r7, r8, lr}
    6aa0:	e1a05000 	mov	r5, r0
    6aa4:	e5d5c00a 	ldrb	ip, [r5, #10]
    6aa8:	e30d0ad8 	movw	r0, #56024	; 0xdad8
    6aac:	e3400000 	movt	r0, #0
    6ab0:	e3004f90 	movw	r4, #3984	; 0xf90
    6ab4:	e3404001 	movt	r4, #1
    6ab8:	e3a07000 	mov	r7, #0
    6abc:	e7d0c00c 	ldrb	ip, [r0, ip]
    6ac0:	e085600c 	add	r6, r5, ip
    6ac4:	e5d6600b 	ldrb	r6, [r6, #11]
    6ac8:	e7d06006 	ldrb	r6, [r0, r6]
    6acc:	e086618c 	add	r6, r6, ip, lsl #3
    6ad0:	e6ef6076 	uxtb	r6, r6
    6ad4:	e7944106 	ldr	r4, [r4, r6, lsl #2]
    6ad8:	e5d4002c 	ldrb	r0, [r4, #44]	; 0x2c
    6adc:	e5841024 	str	r1, [r4, #36]	; 0x24
    6ae0:	e1c02002 	bic	r2, r0, r2
    6ae4:	e5847028 	str	r7, [r4, #40]	; 0x28
    6ae8:	e2021008 	and	r1, r2, #8
    6aec:	e5c4202c 	strb	r2, [r4, #44]	; 0x2c
    6af0:	e5c4302d 	strb	r3, [r4, #45]	; 0x2d
    6af4:	e6ef1071 	uxtb	r1, r1
    6af8:	e1510007 	cmp	r1, r7
    6afc:	1a00000b 	bne	6b30 <OS_EventTaskRdy+0x94>
    6b00:	e30025f4 	movw	r2, #1524	; 0x5f4
    6b04:	e30035f8 	movw	r3, #1528	; 0x5f8
    6b08:	e3402001 	movt	r2, #1
    6b0c:	e3403001 	movt	r3, #1
    6b10:	e5d47032 	ldrb	r7, [r4, #50]	; 0x32
    6b14:	e5d28000 	ldrb	r8, [r2]
    6b18:	e7d3000c 	ldrb	r0, [r3, ip]
    6b1c:	e5d41031 	ldrb	r1, [r4, #49]	; 0x31
    6b20:	e1887007 	orr	r7, r8, r7
    6b24:	e5c27000 	strb	r7, [r2]
    6b28:	e1802001 	orr	r2, r0, r1
    6b2c:	e7c3200c 	strb	r2, [r3, ip]
    6b30:	e5d42030 	ldrb	r2, [r4, #48]	; 0x30
    6b34:	e5d41031 	ldrb	r1, [r4, #49]	; 0x31
    6b38:	e0852002 	add	r2, r5, r2
    6b3c:	e2822008 	add	r2, r2, #8
    6b40:	e5d23003 	ldrb	r3, [r2, #3]
    6b44:	e1c33001 	bic	r3, r3, r1
    6b48:	e5c23003 	strb	r3, [r2, #3]
    6b4c:	e3530000 	cmp	r3, #0
    6b50:	05d5300a 	ldrbeq	r3, [r5, #10]
    6b54:	05d42032 	ldrbeq	r2, [r4, #50]	; 0x32
    6b58:	01c33002 	biceq	r3, r3, r2
    6b5c:	05c5300a 	strbeq	r3, [r5, #10]
    6b60:	e5941020 	ldr	r1, [r4, #32]
    6b64:	e3510000 	cmp	r1, #0
    6b68:	0a000002 	beq	6b78 <OS_EventTaskRdy+0xdc>
    6b6c:	e1a00004 	mov	r0, r4
    6b70:	ebffffb2 	bl	6a40 <OS_EventTaskRemoveMulti>
    6b74:	e584501c 	str	r5, [r4, #28]
    6b78:	e1a00006 	mov	r0, r6
    6b7c:	e8bd81f0 	pop	{r4, r5, r6, r7, r8, pc}

00006b80 <OS_EventWaitListInit>:
    6b80:	e3a03000 	mov	r3, #0
    6b84:	e5c0300a 	strb	r3, [r0, #10]
    6b88:	e5c0300b 	strb	r3, [r0, #11]
    6b8c:	e5c0300c 	strb	r3, [r0, #12]
    6b90:	e5c0300d 	strb	r3, [r0, #13]
    6b94:	e5c0300e 	strb	r3, [r0, #14]
    6b98:	e5c0300f 	strb	r3, [r0, #15]
    6b9c:	e5c03010 	strb	r3, [r0, #16]
    6ba0:	e5c03011 	strb	r3, [r0, #17]
    6ba4:	e5c03012 	strb	r3, [r0, #18]
    6ba8:	e12fff1e 	bx	lr

00006bac <OS_MemClr>:
    6bac:	e3510000 	cmp	r1, #0
    6bb0:	012fff1e 	bxeq	lr
    6bb4:	e3a03000 	mov	r3, #0
    6bb8:	e2411001 	sub	r1, r1, #1
    6bbc:	e4c03001 	strb	r3, [r0], #1
    6bc0:	e6ff1071 	uxth	r1, r1
    6bc4:	e3510000 	cmp	r1, #0
    6bc8:	1afffffa 	bne	6bb8 <OS_MemClr+0xc>
    6bcc:	e12fff1e 	bx	lr

00006bd0 <OS_MemCopy>:
    6bd0:	e3520000 	cmp	r2, #0
    6bd4:	012fff1e 	bxeq	lr
    6bd8:	e2411001 	sub	r1, r1, #1
    6bdc:	e2422001 	sub	r2, r2, #1
    6be0:	e5f13001 	ldrb	r3, [r1, #1]!
    6be4:	e6ff2072 	uxth	r2, r2
    6be8:	e3520000 	cmp	r2, #0
    6bec:	e4c03001 	strb	r3, [r0], #1
    6bf0:	1afffff9 	bne	6bdc <OS_MemCopy+0xc>
    6bf4:	e12fff1e 	bx	lr

00006bf8 <OS_Sched>:
    6bf8:	e92d4070 	push	{r4, r5, r6, lr}
    6bfc:	e24dd008 	sub	sp, sp, #8
    6c00:	eb000aca 	bl	9730 <OS_CPU_SR_Save>
    6c04:	e3003604 	movw	r3, #1540	; 0x604
    6c08:	e3403001 	movt	r3, #1
    6c0c:	e5d33000 	ldrb	r3, [r3]
    6c10:	e3530000 	cmp	r3, #0
    6c14:	1a000029 	bne	6cc0 <OS_Sched+0xc8>
    6c18:	e3003554 	movw	r3, #1364	; 0x554
    6c1c:	e3403001 	movt	r3, #1
    6c20:	e5d33000 	ldrb	r3, [r3]
    6c24:	e3530000 	cmp	r3, #0
    6c28:	1a000024 	bne	6cc0 <OS_Sched+0xc8>
    6c2c:	e30025f4 	movw	r2, #1524	; 0x5f4
    6c30:	e3402001 	movt	r2, #1
    6c34:	e30d3ad8 	movw	r3, #56024	; 0xdad8
    6c38:	e3403000 	movt	r3, #0
    6c3c:	e5d2c000 	ldrb	ip, [r2]
    6c40:	e30045f8 	movw	r4, #1528	; 0x5f8
    6c44:	e3404001 	movt	r4, #1
    6c48:	e300255d 	movw	r2, #1373	; 0x55d
    6c4c:	e3402001 	movt	r2, #1
    6c50:	e3001f90 	movw	r1, #3984	; 0xf90
    6c54:	e7d3500c 	ldrb	r5, [r3, ip]
    6c58:	e3401001 	movt	r1, #1
    6c5c:	e5d26000 	ldrb	r6, [r2]
    6c60:	e300c55c 	movw	ip, #1372	; 0x55c
    6c64:	e340c001 	movt	ip, #1
    6c68:	e30025f0 	movw	r2, #1520	; 0x5f0
    6c6c:	e7d44005 	ldrb	r4, [r4, r5]
    6c70:	e3402001 	movt	r2, #1
    6c74:	e7d33004 	ldrb	r3, [r3, r4]
    6c78:	e0833185 	add	r3, r3, r5, lsl #3
    6c7c:	e6ef3073 	uxtb	r3, r3
    6c80:	e5cc3000 	strb	r3, [ip]
    6c84:	e1560003 	cmp	r6, r3
    6c88:	e7913103 	ldr	r3, [r1, r3, lsl #2]
    6c8c:	e5823000 	str	r3, [r2]
    6c90:	0a00000a 	beq	6cc0 <OS_Sched+0xc8>
    6c94:	e30025e0 	movw	r2, #1504	; 0x5e0
    6c98:	e3402001 	movt	r2, #1
    6c9c:	e593c034 	ldr	ip, [r3, #52]	; 0x34
    6ca0:	e5921000 	ldr	r1, [r2]
    6ca4:	e28cc001 	add	ip, ip, #1
    6ca8:	e583c034 	str	ip, [r3, #52]	; 0x34
    6cac:	e2813001 	add	r3, r1, #1
    6cb0:	e5823000 	str	r3, [r2]
    6cb4:	e58d0004 	str	r0, [sp, #4]
    6cb8:	eb000ab2 	bl	9788 <OSCtxSw>
    6cbc:	e59d0004 	ldr	r0, [sp, #4]
    6cc0:	e28dd008 	add	sp, sp, #8
    6cc4:	e8bd4070 	pop	{r4, r5, r6, lr}
    6cc8:	ea000a9e 	b	9748 <OS_CPU_SR_Restore>

00006ccc <OSSchedUnlock>:
    6ccc:	e92d4008 	push	{r3, lr}
    6cd0:	e3003556 	movw	r3, #1366	; 0x556
    6cd4:	e3403001 	movt	r3, #1
    6cd8:	e5d33000 	ldrb	r3, [r3]
    6cdc:	e3530001 	cmp	r3, #1
    6ce0:	18bd8008 	popne	{r3, pc}
    6ce4:	eb000a91 	bl	9730 <OS_CPU_SR_Save>
    6ce8:	e3003604 	movw	r3, #1540	; 0x604
    6cec:	e3403001 	movt	r3, #1
    6cf0:	e5d33000 	ldrb	r3, [r3]
    6cf4:	e3530000 	cmp	r3, #0
    6cf8:	1a00000c 	bne	6d30 <OSSchedUnlock+0x64>
    6cfc:	e3003554 	movw	r3, #1364	; 0x554
    6d00:	e3403001 	movt	r3, #1
    6d04:	e5d32000 	ldrb	r2, [r3]
    6d08:	e3520000 	cmp	r2, #0
    6d0c:	0a000007 	beq	6d30 <OSSchedUnlock+0x64>
    6d10:	e2422001 	sub	r2, r2, #1
    6d14:	e6ef2072 	uxtb	r2, r2
    6d18:	e5c32000 	strb	r2, [r3]
    6d1c:	e3520000 	cmp	r2, #0
    6d20:	1a000002 	bne	6d30 <OSSchedUnlock+0x64>
    6d24:	eb000a87 	bl	9748 <OS_CPU_SR_Restore>
    6d28:	e8bd4008 	pop	{r3, lr}
    6d2c:	eaffffb1 	b	6bf8 <OS_Sched>
    6d30:	e8bd4008 	pop	{r3, lr}
    6d34:	ea000a83 	b	9748 <OS_CPU_SR_Restore>

00006d38 <OSEventPendMulti>:
    6d38:	e92d4ff0 	push	{r4, r5, r6, r7, r8, r9, sl, fp, lr}
    6d3c:	e1a06001 	mov	r6, r1
    6d40:	e3a01000 	mov	r1, #0
    6d44:	e5861000 	str	r1, [r6]
    6d48:	e5904000 	ldr	r4, [r0]
    6d4c:	e24dd00c 	sub	sp, sp, #12
    6d50:	e1a05000 	mov	r5, r0
    6d54:	e1540001 	cmp	r4, r1
    6d58:	0a00000f 	beq	6d9c <OSEventPendMulti+0x64>
    6d5c:	e1a01004 	mov	r1, r4
    6d60:	e5d11000 	ldrb	r1, [r1]
    6d64:	e3510001 	cmp	r1, #1
    6d68:	0a000008 	beq	6d90 <OSEventPendMulti+0x58>
    6d6c:	e3510003 	cmp	r1, #3
    6d70:	0a000006 	beq	6d90 <OSEventPendMulti+0x58>
    6d74:	e59d2030 	ldr	r2, [sp, #48]	; 0x30
    6d78:	e3a07000 	mov	r7, #0
    6d7c:	e3a03001 	mov	r3, #1
    6d80:	e5c23000 	strb	r3, [r2]
    6d84:	e1a00007 	mov	r0, r7
    6d88:	e28dd00c 	add	sp, sp, #12
    6d8c:	e8bd8ff0 	pop	{r4, r5, r6, r7, r8, r9, sl, fp, pc}
    6d90:	e5b01004 	ldr	r1, [r0, #4]!
    6d94:	e3510000 	cmp	r1, #0
    6d98:	1afffff0 	bne	6d60 <OSEventPendMulti+0x28>
    6d9c:	e3001604 	movw	r1, #1540	; 0x604
    6da0:	e3401001 	movt	r1, #1
    6da4:	e5d17000 	ldrb	r7, [r1]
    6da8:	e3570000 	cmp	r7, #0
    6dac:	1a000008 	bne	6dd4 <OSEventPendMulti+0x9c>
    6db0:	e3001554 	movw	r1, #1364	; 0x554
    6db4:	e3401001 	movt	r1, #1
    6db8:	e5d18000 	ldrb	r8, [r1]
    6dbc:	e3580000 	cmp	r8, #0
    6dc0:	0a000008 	beq	6de8 <OSEventPendMulti+0xb0>
    6dc4:	e59d2030 	ldr	r2, [sp, #48]	; 0x30
    6dc8:	e3a0300d 	mov	r3, #13
    6dcc:	e5c23000 	strb	r3, [r2]
    6dd0:	eaffffeb 	b	6d84 <OSEventPendMulti+0x4c>
    6dd4:	e59d2030 	ldr	r2, [sp, #48]	; 0x30
    6dd8:	e3a03002 	mov	r3, #2
    6ddc:	e3a07000 	mov	r7, #0
    6de0:	e5c23000 	strb	r3, [r2]
    6de4:	eaffffe6 	b	6d84 <OSEventPendMulti+0x4c>
    6de8:	e88d000c 	stm	sp, {r2, r3}
    6dec:	eb000a4f 	bl	9730 <OS_CPU_SR_Save>
    6df0:	e3540000 	cmp	r4, #0
    6df4:	e89d000c 	ldm	sp, {r2, r3}
    6df8:	e1a0a000 	mov	sl, r0
    6dfc:	0a000075 	beq	6fd8 <OSEventPendMulti+0x2a0>
    6e00:	e1a0c008 	mov	ip, r8
    6e04:	e1a0e005 	mov	lr, r5
    6e08:	e1a07008 	mov	r7, r8
    6e0c:	e1a00008 	mov	r0, r8
    6e10:	e1a09008 	mov	r9, r8
    6e14:	e5d41000 	ldrb	r1, [r4]
    6e18:	e3510001 	cmp	r1, #1
    6e1c:	0a000009 	beq	6e48 <OSEventPendMulti+0x110>
    6e20:	e3510003 	cmp	r1, #3
    6e24:	0a000045 	beq	6f40 <OSEventPendMulti+0x208>
    6e28:	e1a0000a 	mov	r0, sl
    6e2c:	eb000a45 	bl	9748 <OS_CPU_SR_Restore>
    6e30:	e59d2030 	ldr	r2, [sp, #48]	; 0x30
    6e34:	e3a03000 	mov	r3, #0
    6e38:	e5863000 	str	r3, [r6]
    6e3c:	e3a03001 	mov	r3, #1
    6e40:	e5c23000 	strb	r3, [r2]
    6e44:	eaffffce 	b	6d84 <OSEventPendMulti+0x4c>
    6e48:	e5948004 	ldr	r8, [r4, #4]
    6e4c:	e287b001 	add	fp, r7, #1
    6e50:	e3580000 	cmp	r8, #0
    6e54:	038cc002 	orreq	ip, ip, #2
    6e58:	16ff707b 	uxthne	r7, fp
    6e5c:	11a00001 	movne	r0, r1
    6e60:	14828004 	strne	r8, [r2], #4
    6e64:	06efc07c 	uxtbeq	ip, ip
    6e68:	15849004 	strne	r9, [r4, #4]
    6e6c:	14864004 	strne	r4, [r6], #4
    6e70:	e5be4004 	ldr	r4, [lr, #4]!
    6e74:	e3540000 	cmp	r4, #0
    6e78:	1affffe5 	bne	6e14 <OSEventPendMulti+0xdc>
    6e7c:	e3500001 	cmp	r0, #1
    6e80:	0a00005d 	beq	6ffc <OSEventPendMulti+0x2c4>
    6e84:	e3008608 	movw	r8, #1544	; 0x608
    6e88:	e3408001 	movt	r8, #1
    6e8c:	e3a04000 	mov	r4, #0
    6e90:	e1a00005 	mov	r0, r5
    6e94:	e5981000 	ldr	r1, [r8]
    6e98:	e5d1e02c 	ldrb	lr, [r1, #44]	; 0x2c
    6e9c:	e5813028 	str	r3, [r1, #40]	; 0x28
    6ea0:	e5c1402d 	strb	r4, [r1, #45]	; 0x2d
    6ea4:	e1e03c8e 	mvn	r3, lr, lsl #25
    6ea8:	e1e03ca3 	mvn	r3, r3, lsr #25
    6eac:	e18c3003 	orr	r3, ip, r3
    6eb0:	e5c1302c 	strb	r3, [r1, #44]	; 0x2c
    6eb4:	e58d2000 	str	r2, [sp]
    6eb8:	ebfffeac 	bl	6970 <OS_EventTaskWaitMulti>
    6ebc:	e1a0000a 	mov	r0, sl
    6ec0:	eb000a20 	bl	9748 <OS_CPU_SR_Restore>
    6ec4:	ebffff4b 	bl	6bf8 <OS_Sched>
    6ec8:	eb000a18 	bl	9730 <OS_CPU_SR_Save>
    6ecc:	e5983000 	ldr	r3, [r8]
    6ed0:	e59d2000 	ldr	r2, [sp]
    6ed4:	e5d3102d 	ldrb	r1, [r3, #45]	; 0x2d
    6ed8:	e1510004 	cmp	r1, r4
    6edc:	e1a0a000 	mov	sl, r0
    6ee0:	0a000022 	beq	6f70 <OSEventPendMulti+0x238>
    6ee4:	e3510002 	cmp	r1, #2
    6ee8:	11a00003 	movne	r0, r3
    6eec:	0a00001f 	beq	6f70 <OSEventPendMulti+0x238>
    6ef0:	e1a01005 	mov	r1, r5
    6ef4:	e58d2000 	str	r2, [sp]
    6ef8:	ebfffed0 	bl	6a40 <OS_EventTaskRemoveMulti>
    6efc:	e59d2000 	ldr	r2, [sp]
    6f00:	e1a05006 	mov	r5, r6
    6f04:	e5980000 	ldr	r0, [r8]
    6f08:	e5d0302d 	ldrb	r3, [r0, #45]	; 0x2d
    6f0c:	e3530000 	cmp	r3, #0
    6f10:	1a00001f 	bne	6f94 <OSEventPendMulti+0x25c>
    6f14:	e5d41000 	ldrb	r1, [r4]
    6f18:	e3510001 	cmp	r1, #1
    6f1c:	2a00003c 	bcs	7014 <OSEventPendMulti+0x2dc>
    6f20:	e1a0000a 	mov	r0, sl
    6f24:	eb000a07 	bl	9748 <OS_CPU_SR_Restore>
    6f28:	e59d2030 	ldr	r2, [sp, #48]	; 0x30
    6f2c:	e3a03000 	mov	r3, #0
    6f30:	e5853000 	str	r3, [r5]
    6f34:	e3a03001 	mov	r3, #1
    6f38:	e5c23000 	strb	r3, [r2]
    6f3c:	eaffff90 	b	6d84 <OSEventPendMulti+0x4c>
    6f40:	e1d410b8 	ldrh	r1, [r4, #8]
    6f44:	e287b001 	add	fp, r7, #1
    6f48:	e38c8001 	orr	r8, ip, #1
    6f4c:	e3510000 	cmp	r1, #0
    6f50:	e2411001 	sub	r1, r1, #1
    6f54:	16ff707b 	uxthne	r7, fp
    6f58:	11c410b8 	strhne	r1, [r4, #8]
    6f5c:	13a00001 	movne	r0, #1
    6f60:	14864004 	strne	r4, [r6], #4
    6f64:	06efc078 	uxtbeq	ip, r8
    6f68:	14829004 	strne	r9, [r2], #4
    6f6c:	eaffffbf 	b	6e70 <OSEventPendMulti+0x138>
    6f70:	e593401c 	ldr	r4, [r3, #28]
    6f74:	e3540000 	cmp	r4, #0
    6f78:	0a00002e 	beq	7038 <OSEventPendMulti+0x300>
    6f7c:	e1a05006 	mov	r5, r6
    6f80:	e3a03000 	mov	r3, #0
    6f84:	e4854004 	str	r4, [r5], #4
    6f88:	e3a07001 	mov	r7, #1
    6f8c:	e5863004 	str	r3, [r6, #4]
    6f90:	eaffffdb 	b	6f04 <OSEventPendMulti+0x1cc>
    6f94:	e3530002 	cmp	r3, #2
    6f98:	0a000011 	beq	6fe4 <OSEventPendMulti+0x2ac>
    6f9c:	e3a03000 	mov	r3, #0
    6fa0:	e5823000 	str	r3, [r2]
    6fa4:	e59d2030 	ldr	r2, [sp, #48]	; 0x30
    6fa8:	e3a0300a 	mov	r3, #10
    6fac:	e5c23000 	strb	r3, [r2]
    6fb0:	e5983000 	ldr	r3, [r8]
    6fb4:	e3a02000 	mov	r2, #0
    6fb8:	e1a0000a 	mov	r0, sl
    6fbc:	e5c3202c 	strb	r2, [r3, #44]	; 0x2c
    6fc0:	e5c3202d 	strb	r2, [r3, #45]	; 0x2d
    6fc4:	e583201c 	str	r2, [r3, #28]
    6fc8:	e5832020 	str	r2, [r3, #32]
    6fcc:	e5832024 	str	r2, [r3, #36]	; 0x24
    6fd0:	eb0009dc 	bl	9748 <OS_CPU_SR_Restore>
    6fd4:	eaffff6a 	b	6d84 <OSEventPendMulti+0x4c>
    6fd8:	e1a0c004 	mov	ip, r4
    6fdc:	e1a07004 	mov	r7, r4
    6fe0:	eaffffa7 	b	6e84 <OSEventPendMulti+0x14c>
    6fe4:	e3a03000 	mov	r3, #0
    6fe8:	e5823000 	str	r3, [r2]
    6fec:	e59d2030 	ldr	r2, [sp, #48]	; 0x30
    6ff0:	e3a0300e 	mov	r3, #14
    6ff4:	e5c23000 	strb	r3, [r2]
    6ff8:	eaffffec 	b	6fb0 <OSEventPendMulti+0x278>
    6ffc:	e5864000 	str	r4, [r6]
    7000:	e1a0000a 	mov	r0, sl
    7004:	eb0009cf 	bl	9748 <OS_CPU_SR_Restore>
    7008:	e59d3030 	ldr	r3, [sp, #48]	; 0x30
    700c:	e5c34000 	strb	r4, [r3]
    7010:	eaffff5b 	b	6d84 <OSEventPendMulti+0x4c>
    7014:	e3510002 	cmp	r1, #2
    7018:	9a00000a 	bls	7048 <OSEventPendMulti+0x310>
    701c:	e3510003 	cmp	r1, #3
    7020:	1affffbe 	bne	6f20 <OSEventPendMulti+0x1e8>
    7024:	e5823000 	str	r3, [r2]
    7028:	e3a03000 	mov	r3, #0
    702c:	e59d2030 	ldr	r2, [sp, #48]	; 0x30
    7030:	e5c23000 	strb	r3, [r2]
    7034:	eaffffdd 	b	6fb0 <OSEventPendMulti+0x278>
    7038:	e3a01001 	mov	r1, #1
    703c:	e1a00003 	mov	r0, r3
    7040:	e5c3102d 	strb	r1, [r3, #45]	; 0x2d
    7044:	eaffffa9 	b	6ef0 <OSEventPendMulti+0x1b8>
    7048:	e5903024 	ldr	r3, [r0, #36]	; 0x24
    704c:	eafffff4 	b	7024 <OSEventPendMulti+0x2ec>

00007050 <OS_StrLen>:
    7050:	e5d03000 	ldrb	r3, [r0]
    7054:	e3530000 	cmp	r3, #0
    7058:	0a000007 	beq	707c <OS_StrLen+0x2c>
    705c:	e1a03000 	mov	r3, r0
    7060:	e3a00000 	mov	r0, #0
    7064:	e5f32001 	ldrb	r2, [r3, #1]!
    7068:	e2800001 	add	r0, r0, #1
    706c:	e3520000 	cmp	r2, #0
    7070:	e6ef0070 	uxtb	r0, r0
    7074:	1afffffa 	bne	7064 <OS_StrLen+0x14>
    7078:	e12fff1e 	bx	lr
    707c:	e1a00003 	mov	r0, r3
    7080:	e12fff1e 	bx	lr

00007084 <OS_TaskStatStkChk>:
    7084:	e92d4030 	push	{r4, r5, lr}
    7088:	e3005f90 	movw	r5, #3984	; 0xf90
    708c:	e24dd00c 	sub	sp, sp, #12
    7090:	e3405001 	movt	r5, #1
    7094:	e3a04000 	mov	r4, #0
    7098:	e6ef0074 	uxtb	r0, r4
    709c:	e1a0100d 	mov	r1, sp
    70a0:	eb000847 	bl	91c4 <OSTaskStkChk>
    70a4:	e3500000 	cmp	r0, #0
    70a8:	1a00000a 	bne	70d8 <OS_TaskStatStkChk+0x54>
    70ac:	e7953104 	ldr	r3, [r5, r4, lsl #2]
    70b0:	e3530000 	cmp	r3, #0
    70b4:	0a000007 	beq	70d8 <OS_TaskStatStkChk+0x54>
    70b8:	e3530001 	cmp	r3, #1
    70bc:	0a000005 	beq	70d8 <OS_TaskStatStkChk+0x54>
    70c0:	e593100c 	ldr	r1, [r3, #12]
    70c4:	e59d0004 	ldr	r0, [sp, #4]
    70c8:	e5932008 	ldr	r2, [r3, #8]
    70cc:	e5830044 	str	r0, [r3, #68]	; 0x44
    70d0:	e0822101 	add	r2, r2, r1, lsl #2
    70d4:	e5832040 	str	r2, [r3, #64]	; 0x40
    70d8:	e2844001 	add	r4, r4, #1
    70dc:	e3540040 	cmp	r4, #64	; 0x40
    70e0:	1affffec 	bne	7098 <OS_TaskStatStkChk+0x14>
    70e4:	e28dd00c 	add	sp, sp, #12
    70e8:	e8bd8030 	pop	{r4, r5, pc}

000070ec <OS_TCBInit>:
    70ec:	e92d45f8 	push	{r3, r4, r5, r6, r7, r8, sl, lr}
    70f0:	e1a06000 	mov	r6, r0
    70f4:	e1a0a001 	mov	sl, r1
    70f8:	e1a08002 	mov	r8, r2
    70fc:	e1a07003 	mov	r7, r3
    7100:	eb00098a 	bl	9730 <OS_CPU_SR_Save>
    7104:	e300c5e4 	movw	ip, #1508	; 0x5e4
    7108:	e340c001 	movt	ip, #1
    710c:	e59c4000 	ldr	r4, [ip]
    7110:	e3540000 	cmp	r4, #0
    7114:	0a00004d 	beq	7250 <OS_TCBInit+0x164>
    7118:	e5943014 	ldr	r3, [r4, #20]
    711c:	e3a05000 	mov	r5, #0
    7120:	e58c3000 	str	r3, [ip]
    7124:	eb000987 	bl	9748 <OS_CPU_SR_Restore>
    7128:	e584a000 	str	sl, [r4]
    712c:	e206c007 	and	ip, r6, #7
    7130:	e59da024 	ldr	sl, [sp, #36]	; 0x24
    7134:	e1a031a6 	lsr	r3, r6, #3
    7138:	e5848008 	str	r8, [r4, #8]
    713c:	e3a02001 	mov	r2, #1
    7140:	e1dd82b8 	ldrh	r8, [sp, #40]	; 0x28
    7144:	e1a0e312 	lsl	lr, r2, r3
    7148:	e584a004 	str	sl, [r4, #4]
    714c:	e1a02c12 	lsl	r2, r2, ip
    7150:	e59da020 	ldr	sl, [sp, #32]
    7154:	e1a00004 	mov	r0, r4
    7158:	e5c4c02f 	strb	ip, [r4, #47]	; 0x2f
    715c:	e30d1e78 	movw	r1, #56952	; 0xde78
    7160:	e5c4e032 	strb	lr, [r4, #50]	; 0x32
    7164:	e3401000 	movt	r1, #0
    7168:	e5c42031 	strb	r2, [r4, #49]	; 0x31
    716c:	e5841048 	str	r1, [r4, #72]	; 0x48
    7170:	e5c43030 	strb	r3, [r4, #48]	; 0x30
    7174:	e5c4602e 	strb	r6, [r4, #46]	; 0x2e
    7178:	e5c4502c 	strb	r5, [r4, #44]	; 0x2c
    717c:	e5c4502d 	strb	r5, [r4, #45]	; 0x2d
    7180:	e5845028 	str	r5, [r4, #40]	; 0x28
    7184:	e1c481b0 	strh	r8, [r4, #16]
    7188:	e1c471b2 	strh	r7, [r4, #18]
    718c:	e5c45033 	strb	r5, [r4, #51]	; 0x33
    7190:	e584501c 	str	r5, [r4, #28]
    7194:	e5845020 	str	r5, [r4, #32]
    7198:	e5845024 	str	r5, [r4, #36]	; 0x24
    719c:	e5845034 	str	r5, [r4, #52]	; 0x34
    71a0:	e584503c 	str	r5, [r4, #60]	; 0x3c
    71a4:	e5845038 	str	r5, [r4, #56]	; 0x38
    71a8:	e5845040 	str	r5, [r4, #64]	; 0x40
    71ac:	e5845044 	str	r5, [r4, #68]	; 0x44
    71b0:	e584504c 	str	r5, [r4, #76]	; 0x4c
    71b4:	e584a00c 	str	sl, [r4, #12]
    71b8:	eb000ab5 	bl	9c94 <OSTCBInitHook>
    71bc:	eb00095b 	bl	9730 <OS_CPU_SR_Save>
    71c0:	e3003f90 	movw	r3, #3984	; 0xf90
    71c4:	e3403001 	movt	r3, #1
    71c8:	e7834106 	str	r4, [r3, r6, lsl #2]
    71cc:	eb00095d 	bl	9748 <OS_CPU_SR_Restore>
    71d0:	e1a00004 	mov	r0, r4
    71d4:	eb000a6c 	bl	9b8c <OSTaskCreateHook>
    71d8:	eb000954 	bl	9730 <OS_CPU_SR_Save>
    71dc:	e300c560 	movw	ip, #1376	; 0x560
    71e0:	e340c001 	movt	ip, #1
    71e4:	e30015f4 	movw	r1, #1524	; 0x5f4
    71e8:	e3401001 	movt	r1, #1
    71ec:	e5d4e030 	ldrb	lr, [r4, #48]	; 0x30
    71f0:	e59c3000 	ldr	r3, [ip]
    71f4:	e30025f8 	movw	r2, #1528	; 0x5f8
    71f8:	e5845018 	str	r5, [r4, #24]
    71fc:	e3402001 	movt	r2, #1
    7200:	e1530005 	cmp	r3, r5
    7204:	e5d17000 	ldrb	r7, [r1]
    7208:	e5843014 	str	r3, [r4, #20]
    720c:	15834018 	strne	r4, [r3, #24]
    7210:	e30035e8 	movw	r3, #1512	; 0x5e8
    7214:	e5d46032 	ldrb	r6, [r4, #50]	; 0x32
    7218:	e3403001 	movt	r3, #1
    721c:	e7d2800e 	ldrb	r8, [r2, lr]
    7220:	e5d45031 	ldrb	r5, [r4, #49]	; 0x31
    7224:	e1876006 	orr	r6, r7, r6
    7228:	e5d37000 	ldrb	r7, [r3]
    722c:	e58c4000 	str	r4, [ip]
    7230:	e1885005 	orr	r5, r8, r5
    7234:	e287c001 	add	ip, r7, #1
    7238:	e5c16000 	strb	r6, [r1]
    723c:	e7c2500e 	strb	r5, [r2, lr]
    7240:	e5c3c000 	strb	ip, [r3]
    7244:	eb00093f 	bl	9748 <OS_CPU_SR_Restore>
    7248:	e3a00000 	mov	r0, #0
    724c:	e8bd85f8 	pop	{r3, r4, r5, r6, r7, r8, sl, pc}
    7250:	eb00093c 	bl	9748 <OS_CPU_SR_Restore>
    7254:	e3a00042 	mov	r0, #66	; 0x42
    7258:	e8bd85f8 	pop	{r3, r4, r5, r6, r7, r8, sl, pc}

0000725c <OSMboxAccept>:
    725c:	e92d4038 	push	{r3, r4, r5, lr}
    7260:	e1a04000 	mov	r4, r0
    7264:	e5d03000 	ldrb	r3, [r0]
    7268:	e3530001 	cmp	r3, #1
    726c:	13a05000 	movne	r5, #0
    7270:	1a000004 	bne	7288 <OSMboxAccept+0x2c>
    7274:	eb00092d 	bl	9730 <OS_CPU_SR_Save>
    7278:	e5945004 	ldr	r5, [r4, #4]
    727c:	e3a03000 	mov	r3, #0
    7280:	e5843004 	str	r3, [r4, #4]
    7284:	eb00092f 	bl	9748 <OS_CPU_SR_Restore>
    7288:	e1a00005 	mov	r0, r5
    728c:	e8bd8038 	pop	{r3, r4, r5, pc}

00007290 <OSMboxCreate>:
    7290:	e3003604 	movw	r3, #1540	; 0x604
    7294:	e3403001 	movt	r3, #1
    7298:	e92d4070 	push	{r4, r5, r6, lr}
    729c:	e1a06000 	mov	r6, r0
    72a0:	e5d35000 	ldrb	r5, [r3]
    72a4:	e3550000 	cmp	r5, #0
    72a8:	13a04000 	movne	r4, #0
    72ac:	1a000011 	bne	72f8 <OSMboxCreate+0x68>
    72b0:	eb00091e 	bl	9730 <OS_CPU_SR_Save>
    72b4:	e3003600 	movw	r3, #1536	; 0x600
    72b8:	e3403001 	movt	r3, #1
    72bc:	e5934000 	ldr	r4, [r3]
    72c0:	e3540000 	cmp	r4, #0
    72c4:	0a00000d 	beq	7300 <OSMboxCreate+0x70>
    72c8:	e5942004 	ldr	r2, [r4, #4]
    72cc:	e5832000 	str	r2, [r3]
    72d0:	eb00091c 	bl	9748 <OS_CPU_SR_Restore>
    72d4:	e3a03001 	mov	r3, #1
    72d8:	e1c450b8 	strh	r5, [r4, #8]
    72dc:	e5c43000 	strb	r3, [r4]
    72e0:	e1a00004 	mov	r0, r4
    72e4:	e30d3e78 	movw	r3, #56952	; 0xde78
    72e8:	e5846004 	str	r6, [r4, #4]
    72ec:	e3403000 	movt	r3, #0
    72f0:	e5843014 	str	r3, [r4, #20]
    72f4:	ebfffe21 	bl	6b80 <OS_EventWaitListInit>
    72f8:	e1a00004 	mov	r0, r4
    72fc:	e8bd8070 	pop	{r4, r5, r6, pc}
    7300:	eb000910 	bl	9748 <OS_CPU_SR_Restore>
    7304:	e1a00004 	mov	r0, r4
    7308:	e8bd8070 	pop	{r4, r5, r6, pc}

0000730c <OSMboxDel>:
    730c:	e92d41f0 	push	{r4, r5, r6, r7, r8, lr}
    7310:	e1a04000 	mov	r4, r0
    7314:	e5d03000 	ldrb	r3, [r0]
    7318:	e24dd008 	sub	sp, sp, #8
    731c:	e1a05002 	mov	r5, r2
    7320:	e3530001 	cmp	r3, #1
    7324:	13a03001 	movne	r3, #1
    7328:	15c23000 	strbne	r3, [r2]
    732c:	0a000002 	beq	733c <OSMboxDel+0x30>
    7330:	e1a00004 	mov	r0, r4
    7334:	e28dd008 	add	sp, sp, #8
    7338:	e8bd81f0 	pop	{r4, r5, r6, r7, r8, pc}
    733c:	e3003604 	movw	r3, #1540	; 0x604
    7340:	e3403001 	movt	r3, #1
    7344:	e5d33000 	ldrb	r3, [r3]
    7348:	e3530000 	cmp	r3, #0
    734c:	13a0300f 	movne	r3, #15
    7350:	15c23000 	strbne	r3, [r2]
    7354:	1afffff5 	bne	7330 <OSMboxDel+0x24>
    7358:	e58d1004 	str	r1, [sp, #4]
    735c:	eb0008f3 	bl	9730 <OS_CPU_SR_Save>
    7360:	e5d4700a 	ldrb	r7, [r4, #10]
    7364:	e59d1004 	ldr	r1, [sp, #4]
    7368:	e2977000 	adds	r7, r7, #0
    736c:	13a07001 	movne	r7, #1
    7370:	e3510000 	cmp	r1, #0
    7374:	e1a06007 	mov	r6, r7
    7378:	e1a08000 	mov	r8, r0
    737c:	1a00000f 	bne	73c0 <OSMboxDel+0xb4>
    7380:	e3570000 	cmp	r7, #0
    7384:	1a000013 	bne	73d8 <OSMboxDel+0xcc>
    7388:	e3003600 	movw	r3, #1536	; 0x600
    738c:	e3403001 	movt	r3, #1
    7390:	e5c47000 	strb	r7, [r4]
    7394:	e30d2e78 	movw	r2, #56952	; 0xde78
    7398:	e5931000 	ldr	r1, [r3]
    739c:	e3402000 	movt	r2, #0
    73a0:	e1c470b8 	strh	r7, [r4, #8]
    73a4:	e5842014 	str	r2, [r4, #20]
    73a8:	e5841004 	str	r1, [r4, #4]
    73ac:	e5834000 	str	r4, [r3]
    73b0:	eb0008e4 	bl	9748 <OS_CPU_SR_Restore>
    73b4:	e1a04007 	mov	r4, r7
    73b8:	e5c57000 	strb	r7, [r5]
    73bc:	eaffffdb 	b	7330 <OSMboxDel+0x24>
    73c0:	e3510001 	cmp	r1, #1
    73c4:	0a000007 	beq	73e8 <OSMboxDel+0xdc>
    73c8:	eb0008de 	bl	9748 <OS_CPU_SR_Restore>
    73cc:	e3a03007 	mov	r3, #7
    73d0:	e5c53000 	strb	r3, [r5]
    73d4:	eaffffd5 	b	7330 <OSMboxDel+0x24>
    73d8:	eb0008da 	bl	9748 <OS_CPU_SR_Restore>
    73dc:	e3a03049 	mov	r3, #73	; 0x49
    73e0:	e5c53000 	strb	r3, [r5]
    73e4:	eaffffd1 	b	7330 <OSMboxDel+0x24>
    73e8:	e3570000 	cmp	r7, #0
    73ec:	0a000007 	beq	7410 <OSMboxDel+0x104>
    73f0:	e3a02002 	mov	r2, #2
    73f4:	e1a00004 	mov	r0, r4
    73f8:	e1a03002 	mov	r3, r2
    73fc:	e3a01000 	mov	r1, #0
    7400:	ebfffda5 	bl	6a9c <OS_EventTaskRdy>
    7404:	e5d4300a 	ldrb	r3, [r4, #10]
    7408:	e3530000 	cmp	r3, #0
    740c:	1afffff7 	bne	73f0 <OSMboxDel+0xe4>
    7410:	e3003600 	movw	r3, #1536	; 0x600
    7414:	e3403001 	movt	r3, #1
    7418:	e3a01000 	mov	r1, #0
    741c:	e5c41000 	strb	r1, [r4]
    7420:	e593c000 	ldr	ip, [r3]
    7424:	e30d2e78 	movw	r2, #56952	; 0xde78
    7428:	e1c410b8 	strh	r1, [r4, #8]
    742c:	e3402000 	movt	r2, #0
    7430:	e1a00008 	mov	r0, r8
    7434:	e5842014 	str	r2, [r4, #20]
    7438:	e584c004 	str	ip, [r4, #4]
    743c:	e5834000 	str	r4, [r3]
    7440:	eb0008c0 	bl	9748 <OS_CPU_SR_Restore>
    7444:	e3560001 	cmp	r6, #1
    7448:	0a000002 	beq	7458 <OSMboxDel+0x14c>
    744c:	e3a04000 	mov	r4, #0
    7450:	e5c54000 	strb	r4, [r5]
    7454:	eaffffb5 	b	7330 <OSMboxDel+0x24>
    7458:	ebfffde6 	bl	6bf8 <OS_Sched>
    745c:	eafffffa 	b	744c <OSMboxDel+0x140>

00007460 <OSMboxPend>:
    7460:	e92d45f8 	push	{r3, r4, r5, r6, r7, r8, sl, lr}
    7464:	e1a04000 	mov	r4, r0
    7468:	e5d03000 	ldrb	r3, [r0]
    746c:	e1a08001 	mov	r8, r1
    7470:	e1a07002 	mov	r7, r2
    7474:	e3530001 	cmp	r3, #1
    7478:	13a03001 	movne	r3, #1
    747c:	13a05000 	movne	r5, #0
    7480:	15c23000 	strbne	r3, [r2]
    7484:	1a000016 	bne	74e4 <OSMboxPend+0x84>
    7488:	e3003604 	movw	r3, #1540	; 0x604
    748c:	e3403001 	movt	r3, #1
    7490:	e5d35000 	ldrb	r5, [r3]
    7494:	e3550000 	cmp	r5, #0
    7498:	13a03002 	movne	r3, #2
    749c:	13a05000 	movne	r5, #0
    74a0:	15c23000 	strbne	r3, [r2]
    74a4:	1a00000e 	bne	74e4 <OSMboxPend+0x84>
    74a8:	e3003554 	movw	r3, #1364	; 0x554
    74ac:	e3403001 	movt	r3, #1
    74b0:	e5d36000 	ldrb	r6, [r3]
    74b4:	e3560000 	cmp	r6, #0
    74b8:	13a0300d 	movne	r3, #13
    74bc:	15c23000 	strbne	r3, [r2]
    74c0:	1a000007 	bne	74e4 <OSMboxPend+0x84>
    74c4:	eb000899 	bl	9730 <OS_CPU_SR_Save>
    74c8:	e5945004 	ldr	r5, [r4, #4]
    74cc:	e3550000 	cmp	r5, #0
    74d0:	e1a0a000 	mov	sl, r0
    74d4:	0a000004 	beq	74ec <OSMboxPend+0x8c>
    74d8:	e5846004 	str	r6, [r4, #4]
    74dc:	eb000899 	bl	9748 <OS_CPU_SR_Restore>
    74e0:	e5c76000 	strb	r6, [r7]
    74e4:	e1a00005 	mov	r0, r5
    74e8:	e8bd85f8 	pop	{r3, r4, r5, r6, r7, r8, sl, pc}
    74ec:	e3006608 	movw	r6, #1544	; 0x608
    74f0:	e3406001 	movt	r6, #1
    74f4:	e1a00004 	mov	r0, r4
    74f8:	e5963000 	ldr	r3, [r6]
    74fc:	e5d3202c 	ldrb	r2, [r3, #44]	; 0x2c
    7500:	e5838028 	str	r8, [r3, #40]	; 0x28
    7504:	e5c3502d 	strb	r5, [r3, #45]	; 0x2d
    7508:	e3822002 	orr	r2, r2, #2
    750c:	e5c3202c 	strb	r2, [r3, #44]	; 0x2c
    7510:	ebfffcf6 	bl	68f0 <OS_EventTaskWait>
    7514:	e1a0000a 	mov	r0, sl
    7518:	eb00088a 	bl	9748 <OS_CPU_SR_Restore>
    751c:	ebfffdb5 	bl	6bf8 <OS_Sched>
    7520:	eb000882 	bl	9730 <OS_CPU_SR_Save>
    7524:	e1a08000 	mov	r8, r0
    7528:	e5960000 	ldr	r0, [r6]
    752c:	e5d0302d 	ldrb	r3, [r0, #45]	; 0x2d
    7530:	e3530000 	cmp	r3, #0
    7534:	1a00000c 	bne	756c <OSMboxPend+0x10c>
    7538:	e5905024 	ldr	r5, [r0, #36]	; 0x24
    753c:	e5c73000 	strb	r3, [r7]
    7540:	e5963000 	ldr	r3, [r6]
    7544:	e3a02000 	mov	r2, #0
    7548:	e1a00008 	mov	r0, r8
    754c:	e5c3202c 	strb	r2, [r3, #44]	; 0x2c
    7550:	e5c3202d 	strb	r2, [r3, #45]	; 0x2d
    7554:	e583201c 	str	r2, [r3, #28]
    7558:	e5832020 	str	r2, [r3, #32]
    755c:	e5832024 	str	r2, [r3, #36]	; 0x24
    7560:	eb000878 	bl	9748 <OS_CPU_SR_Restore>
    7564:	e1a00005 	mov	r0, r5
    7568:	e8bd85f8 	pop	{r3, r4, r5, r6, r7, r8, sl, pc}
    756c:	e3530002 	cmp	r3, #2
    7570:	0a000004 	beq	7588 <OSMboxPend+0x128>
    7574:	e1a01004 	mov	r1, r4
    7578:	ebfffd24 	bl	6a10 <OS_EventTaskRemove>
    757c:	e3a0300a 	mov	r3, #10
    7580:	e5c73000 	strb	r3, [r7]
    7584:	eaffffed 	b	7540 <OSMboxPend+0xe0>
    7588:	e3a0300e 	mov	r3, #14
    758c:	e5c73000 	strb	r3, [r7]
    7590:	eaffffea 	b	7540 <OSMboxPend+0xe0>

00007594 <OSMboxPendAbort>:
    7594:	e92d41f0 	push	{r4, r5, r6, r7, r8, lr}
    7598:	e1a04000 	mov	r4, r0
    759c:	e5d05000 	ldrb	r5, [r0]
    75a0:	e24dd008 	sub	sp, sp, #8
    75a4:	e1a06002 	mov	r6, r2
    75a8:	e3550001 	cmp	r5, #1
    75ac:	0a000005 	beq	75c8 <OSMboxPendAbort+0x34>
    75b0:	e3a05000 	mov	r5, #0
    75b4:	e3a03001 	mov	r3, #1
    75b8:	e5c23000 	strb	r3, [r2]
    75bc:	e1a00005 	mov	r0, r5
    75c0:	e28dd008 	add	sp, sp, #8
    75c4:	e8bd81f0 	pop	{r4, r5, r6, r7, r8, pc}
    75c8:	e58d1004 	str	r1, [sp, #4]
    75cc:	eb000857 	bl	9730 <OS_CPU_SR_Save>
    75d0:	e5d4800a 	ldrb	r8, [r4, #10]
    75d4:	e59d1004 	ldr	r1, [sp, #4]
    75d8:	e3580000 	cmp	r8, #0
    75dc:	e1a07000 	mov	r7, r0
    75e0:	0a000018 	beq	7648 <OSMboxPendAbort+0xb4>
    75e4:	e3510001 	cmp	r1, #1
    75e8:	0a00000a 	beq	7618 <OSMboxPendAbort+0x84>
    75ec:	e3a02002 	mov	r2, #2
    75f0:	e1a00004 	mov	r0, r4
    75f4:	e3a01000 	mov	r1, #0
    75f8:	e1a03002 	mov	r3, r2
    75fc:	ebfffd26 	bl	6a9c <OS_EventTaskRdy>
    7600:	e1a00007 	mov	r0, r7
    7604:	eb00084f 	bl	9748 <OS_CPU_SR_Restore>
    7608:	ebfffd7a 	bl	6bf8 <OS_Sched>
    760c:	e3a0300e 	mov	r3, #14
    7610:	e5c63000 	strb	r3, [r6]
    7614:	eaffffe8 	b	75bc <OSMboxPendAbort+0x28>
    7618:	e3a05000 	mov	r5, #0
    761c:	e3a02002 	mov	r2, #2
    7620:	e1a00004 	mov	r0, r4
    7624:	e1a03002 	mov	r3, r2
    7628:	e3a01000 	mov	r1, #0
    762c:	ebfffd1a 	bl	6a9c <OS_EventTaskRdy>
    7630:	e5d4300a 	ldrb	r3, [r4, #10]
    7634:	e2855001 	add	r5, r5, #1
    7638:	e3530000 	cmp	r3, #0
    763c:	e6ef5075 	uxtb	r5, r5
    7640:	1afffff5 	bne	761c <OSMboxPendAbort+0x88>
    7644:	eaffffed 	b	7600 <OSMboxPendAbort+0x6c>
    7648:	eb00083e 	bl	9748 <OS_CPU_SR_Restore>
    764c:	e1a05008 	mov	r5, r8
    7650:	e5c68000 	strb	r8, [r6]
    7654:	eaffffd8 	b	75bc <OSMboxPendAbort+0x28>

00007658 <OSMboxPost>:
    7658:	e92d4030 	push	{r4, r5, lr}
    765c:	e1a04000 	mov	r4, r0
    7660:	e5d03000 	ldrb	r3, [r0]
    7664:	e24dd00c 	sub	sp, sp, #12
    7668:	e3530001 	cmp	r3, #1
    766c:	13a00001 	movne	r0, #1
    7670:	0a000001 	beq	767c <OSMboxPost+0x24>
    7674:	e28dd00c 	add	sp, sp, #12
    7678:	e8bd8030 	pop	{r4, r5, pc}
    767c:	e58d1004 	str	r1, [sp, #4]
    7680:	eb00082a 	bl	9730 <OS_CPU_SR_Save>
    7684:	e5d4300a 	ldrb	r3, [r4, #10]
    7688:	e59d1004 	ldr	r1, [sp, #4]
    768c:	e3530000 	cmp	r3, #0
    7690:	e1a05000 	mov	r5, r0
    7694:	1a000005 	bne	76b0 <OSMboxPost+0x58>
    7698:	e5945004 	ldr	r5, [r4, #4]
    769c:	e3550000 	cmp	r5, #0
    76a0:	0a00000b 	beq	76d4 <OSMboxPost+0x7c>
    76a4:	eb000827 	bl	9748 <OS_CPU_SR_Restore>
    76a8:	e3a00014 	mov	r0, #20
    76ac:	eafffff0 	b	7674 <OSMboxPost+0x1c>
    76b0:	e3a02002 	mov	r2, #2
    76b4:	e3a03000 	mov	r3, #0
    76b8:	e1a00004 	mov	r0, r4
    76bc:	ebfffcf6 	bl	6a9c <OS_EventTaskRdy>
    76c0:	e1a00005 	mov	r0, r5
    76c4:	eb00081f 	bl	9748 <OS_CPU_SR_Restore>
    76c8:	ebfffd4a 	bl	6bf8 <OS_Sched>
    76cc:	e3a00000 	mov	r0, #0
    76d0:	eaffffe7 	b	7674 <OSMboxPost+0x1c>
    76d4:	e5841004 	str	r1, [r4, #4]
    76d8:	eb00081a 	bl	9748 <OS_CPU_SR_Restore>
    76dc:	e1a00005 	mov	r0, r5
    76e0:	eaffffe3 	b	7674 <OSMboxPost+0x1c>

000076e4 <OSMboxPostOpt>:
    76e4:	e92d40f8 	push	{r3, r4, r5, r6, r7, lr}
    76e8:	e1a04000 	mov	r4, r0
    76ec:	e5d03000 	ldrb	r3, [r0]
    76f0:	e1a05001 	mov	r5, r1
    76f4:	e1a06002 	mov	r6, r2
    76f8:	e3530001 	cmp	r3, #1
    76fc:	0a000001 	beq	7708 <OSMboxPostOpt+0x24>
    7700:	e3a00001 	mov	r0, #1
    7704:	e8bd80f8 	pop	{r3, r4, r5, r6, r7, pc}
    7708:	eb000808 	bl	9730 <OS_CPU_SR_Save>
    770c:	e5d4300a 	ldrb	r3, [r4, #10]
    7710:	e3530000 	cmp	r3, #0
    7714:	e1a07000 	mov	r7, r0
    7718:	0a000011 	beq	7764 <OSMboxPostOpt+0x80>
    771c:	e2163001 	ands	r3, r6, #1
    7720:	0a000015 	beq	777c <OSMboxPostOpt+0x98>
    7724:	e3a03000 	mov	r3, #0
    7728:	e1a00004 	mov	r0, r4
    772c:	e1a01005 	mov	r1, r5
    7730:	e3a02002 	mov	r2, #2
    7734:	ebfffcd8 	bl	6a9c <OS_EventTaskRdy>
    7738:	e5d4300a 	ldrb	r3, [r4, #10]
    773c:	e3530000 	cmp	r3, #0
    7740:	1afffff7 	bne	7724 <OSMboxPostOpt+0x40>
    7744:	e2066004 	and	r6, r6, #4
    7748:	e1a00007 	mov	r0, r7
    774c:	eb0007fd 	bl	9748 <OS_CPU_SR_Restore>
    7750:	e6ef6076 	uxtb	r6, r6
    7754:	e3560000 	cmp	r6, #0
    7758:	0a00000c 	beq	7790 <OSMboxPostOpt+0xac>
    775c:	e3a00000 	mov	r0, #0
    7760:	e8bd80f8 	pop	{r3, r4, r5, r6, r7, pc}
    7764:	e5946004 	ldr	r6, [r4, #4]
    7768:	e3560000 	cmp	r6, #0
    776c:	0a00000a 	beq	779c <OSMboxPostOpt+0xb8>
    7770:	eb0007f4 	bl	9748 <OS_CPU_SR_Restore>
    7774:	e3a00014 	mov	r0, #20
    7778:	e8bd80f8 	pop	{r3, r4, r5, r6, r7, pc}
    777c:	e1a00004 	mov	r0, r4
    7780:	e1a01005 	mov	r1, r5
    7784:	e3a02002 	mov	r2, #2
    7788:	ebfffcc3 	bl	6a9c <OS_EventTaskRdy>
    778c:	eaffffec 	b	7744 <OSMboxPostOpt+0x60>
    7790:	ebfffd18 	bl	6bf8 <OS_Sched>
    7794:	e1a00006 	mov	r0, r6
    7798:	e8bd80f8 	pop	{r3, r4, r5, r6, r7, pc}
    779c:	e5845004 	str	r5, [r4, #4]
    77a0:	eb0007e8 	bl	9748 <OS_CPU_SR_Restore>
    77a4:	e1a00006 	mov	r0, r6
    77a8:	e8bd80f8 	pop	{r3, r4, r5, r6, r7, pc}

000077ac <OSMboxQuery>:
    77ac:	e92d4010 	push	{r4, lr}
    77b0:	e1a04000 	mov	r4, r0
    77b4:	e5d03000 	ldrb	r3, [r0]
    77b8:	e24dd008 	sub	sp, sp, #8
    77bc:	e3530001 	cmp	r3, #1
    77c0:	13a00001 	movne	r0, #1
    77c4:	0a000001 	beq	77d0 <OSMboxQuery+0x24>
    77c8:	e28dd008 	add	sp, sp, #8
    77cc:	e8bd8010 	pop	{r4, pc}
    77d0:	e58d1004 	str	r1, [sp, #4]
    77d4:	eb0007d5 	bl	9730 <OS_CPU_SR_Save>
    77d8:	e59d1004 	ldr	r1, [sp, #4]
    77dc:	e1a02004 	mov	r2, r4
    77e0:	e5f2c00a 	ldrb	ip, [r2, #10]!
    77e4:	e2813004 	add	r3, r1, #4
    77e8:	e281e00c 	add	lr, r1, #12
    77ec:	e5c1c00c 	strb	ip, [r1, #12]
    77f0:	e5f2c001 	ldrb	ip, [r2, #1]!
    77f4:	e4c3c001 	strb	ip, [r3], #1
    77f8:	e153000e 	cmp	r3, lr
    77fc:	1afffffb 	bne	77f0 <OSMboxQuery+0x44>
    7800:	e5943004 	ldr	r3, [r4, #4]
    7804:	e5813000 	str	r3, [r1]
    7808:	eb0007ce 	bl	9748 <OS_CPU_SR_Restore>
    780c:	e3a00000 	mov	r0, #0
    7810:	eaffffec 	b	77c8 <OSMboxQuery+0x1c>

00007814 <OSMemCreate>:
    7814:	e92d47f0 	push	{r4, r5, r6, r7, r8, r9, sl, lr}
    7818:	e1a06002 	mov	r6, r2
    781c:	e1a0a000 	mov	sl, r0
    7820:	e1a09001 	mov	r9, r1
    7824:	e1a08003 	mov	r8, r3
    7828:	eb0007c0 	bl	9730 <OS_CPU_SR_Save>
    782c:	e30025ec 	movw	r2, #1516	; 0x5ec
    7830:	e3402001 	movt	r2, #1
    7834:	e5927000 	ldr	r7, [r2]
    7838:	e3570000 	cmp	r7, #0
    783c:	0a000017 	beq	78a0 <OSMemCreate+0x8c>
    7840:	e5973004 	ldr	r3, [r7, #4]
    7844:	e5823000 	str	r3, [r2]
    7848:	eb0007be 	bl	9748 <OS_CPU_SR_Restore>
    784c:	e2592001 	subs	r2, r9, #1
    7850:	0a000017 	beq	78b4 <OSMemCreate+0xa0>
    7854:	e1a0400a 	mov	r4, sl
    7858:	e3a0c000 	mov	ip, #0
    785c:	e28cc001 	add	ip, ip, #1
    7860:	e0845006 	add	r5, r4, r6
    7864:	e152000c 	cmp	r2, ip
    7868:	e5845000 	str	r5, [r4]
    786c:	e1a04005 	mov	r4, r5
    7870:	1afffff9 	bne	785c <OSMemCreate+0x48>
    7874:	e022a692 	mla	r2, r2, r6, sl
    7878:	e3a03000 	mov	r3, #0
    787c:	e1a00007 	mov	r0, r7
    7880:	e5823000 	str	r3, [r2]
    7884:	e587a000 	str	sl, [r7]
    7888:	e587a004 	str	sl, [r7, #4]
    788c:	e5879010 	str	r9, [r7, #16]
    7890:	e587900c 	str	r9, [r7, #12]
    7894:	e5876008 	str	r6, [r7, #8]
    7898:	e5c83000 	strb	r3, [r8]
    789c:	e8bd87f0 	pop	{r4, r5, r6, r7, r8, r9, sl, pc}
    78a0:	eb0007a8 	bl	9748 <OS_CPU_SR_Restore>
    78a4:	e3a0305a 	mov	r3, #90	; 0x5a
    78a8:	e1a00007 	mov	r0, r7
    78ac:	e5c83000 	strb	r3, [r8]
    78b0:	e8bd87f0 	pop	{r4, r5, r6, r7, r8, r9, sl, pc}
    78b4:	e1a0200a 	mov	r2, sl
    78b8:	eaffffee 	b	7878 <OSMemCreate+0x64>

000078bc <OSMemGet>:
    78bc:	e92d4070 	push	{r4, r5, r6, lr}
    78c0:	e1a04000 	mov	r4, r0
    78c4:	e1a06001 	mov	r6, r1
    78c8:	eb000798 	bl	9730 <OS_CPU_SR_Save>
    78cc:	e5943010 	ldr	r3, [r4, #16]
    78d0:	e3530000 	cmp	r3, #0
    78d4:	0a000009 	beq	7900 <OSMemGet+0x44>
    78d8:	e5945004 	ldr	r5, [r4, #4]
    78dc:	e2433001 	sub	r3, r3, #1
    78e0:	e5952000 	ldr	r2, [r5]
    78e4:	e5843010 	str	r3, [r4, #16]
    78e8:	e5842004 	str	r2, [r4, #4]
    78ec:	eb000795 	bl	9748 <OS_CPU_SR_Restore>
    78f0:	e3a03000 	mov	r3, #0
    78f4:	e1a00005 	mov	r0, r5
    78f8:	e5c63000 	strb	r3, [r6]
    78fc:	e8bd8070 	pop	{r4, r5, r6, pc}
    7900:	e1a05003 	mov	r5, r3
    7904:	eb00078f 	bl	9748 <OS_CPU_SR_Restore>
    7908:	e3a0305d 	mov	r3, #93	; 0x5d
    790c:	e1a00005 	mov	r0, r5
    7910:	e5c63000 	strb	r3, [r6]
    7914:	e8bd8070 	pop	{r4, r5, r6, pc}

00007918 <OSMemNameGet>:
    7918:	e3003604 	movw	r3, #1540	; 0x604
    791c:	e3403001 	movt	r3, #1
    7920:	e92d41f0 	push	{r4, r5, r6, r7, r8, lr}
    7924:	e1a05000 	mov	r5, r0
    7928:	e5d34000 	ldrb	r4, [r3]
    792c:	e1a07001 	mov	r7, r1
    7930:	e1a06002 	mov	r6, r2
    7934:	e3540000 	cmp	r4, #0
    7938:	0a000004 	beq	7950 <OSMemNameGet+0x38>
    793c:	e3a05000 	mov	r5, #0
    7940:	e3a03011 	mov	r3, #17
    7944:	e1a00005 	mov	r0, r5
    7948:	e5c23000 	strb	r3, [r2]
    794c:	e8bd81f0 	pop	{r4, r5, r6, r7, r8, pc}
    7950:	eb000776 	bl	9730 <OS_CPU_SR_Save>
    7954:	e1a08000 	mov	r8, r0
    7958:	e5950014 	ldr	r0, [r5, #20]
    795c:	e5870000 	str	r0, [r7]
    7960:	ebfffdba 	bl	7050 <OS_StrLen>
    7964:	e1a05000 	mov	r5, r0
    7968:	e1a00008 	mov	r0, r8
    796c:	eb000775 	bl	9748 <OS_CPU_SR_Restore>
    7970:	e5c64000 	strb	r4, [r6]
    7974:	e1a00005 	mov	r0, r5
    7978:	e8bd81f0 	pop	{r4, r5, r6, r7, r8, pc}

0000797c <OSMemNameSet>:
    797c:	e92d40f8 	push	{r3, r4, r5, r6, r7, lr}
    7980:	e3003604 	movw	r3, #1540	; 0x604
    7984:	e3403001 	movt	r3, #1
    7988:	e1a06000 	mov	r6, r0
    798c:	e1a07001 	mov	r7, r1
    7990:	e1a05002 	mov	r5, r2
    7994:	e5d34000 	ldrb	r4, [r3]
    7998:	e3540000 	cmp	r4, #0
    799c:	13a03012 	movne	r3, #18
    79a0:	15c23000 	strbne	r3, [r2]
    79a4:	18bd80f8 	popne	{r3, r4, r5, r6, r7, pc}
    79a8:	eb000760 	bl	9730 <OS_CPU_SR_Save>
    79ac:	e5867014 	str	r7, [r6, #20]
    79b0:	eb000764 	bl	9748 <OS_CPU_SR_Restore>
    79b4:	e5c54000 	strb	r4, [r5]
    79b8:	e8bd80f8 	pop	{r3, r4, r5, r6, r7, pc}

000079bc <OSMemPut>:
    79bc:	e92d4038 	push	{r3, r4, r5, lr}
    79c0:	e1a04000 	mov	r4, r0
    79c4:	e1a05001 	mov	r5, r1
    79c8:	eb000758 	bl	9730 <OS_CPU_SR_Save>
    79cc:	e5943010 	ldr	r3, [r4, #16]
    79d0:	e594200c 	ldr	r2, [r4, #12]
    79d4:	e1530002 	cmp	r3, r2
    79d8:	3a000002 	bcc	79e8 <OSMemPut+0x2c>
    79dc:	eb000759 	bl	9748 <OS_CPU_SR_Restore>
    79e0:	e3a0005e 	mov	r0, #94	; 0x5e
    79e4:	e8bd8038 	pop	{r3, r4, r5, pc}
    79e8:	e5942004 	ldr	r2, [r4, #4]
    79ec:	e2833001 	add	r3, r3, #1
    79f0:	e5852000 	str	r2, [r5]
    79f4:	e5845004 	str	r5, [r4, #4]
    79f8:	e5843010 	str	r3, [r4, #16]
    79fc:	eb000751 	bl	9748 <OS_CPU_SR_Restore>
    7a00:	e3a00000 	mov	r0, #0
    7a04:	e8bd8038 	pop	{r3, r4, r5, pc}

00007a08 <OSMemQuery>:
    7a08:	e92d4038 	push	{r3, r4, r5, lr}
    7a0c:	e1a04001 	mov	r4, r1
    7a10:	e1a05000 	mov	r5, r0
    7a14:	eb000745 	bl	9730 <OS_CPU_SR_Save>
    7a18:	e2851008 	add	r1, r5, #8
    7a1c:	e595e000 	ldr	lr, [r5]
    7a20:	e595c004 	ldr	ip, [r5, #4]
    7a24:	e891000e 	ldm	r1, {r1, r2, r3}
    7a28:	e584e000 	str	lr, [r4]
    7a2c:	e584c004 	str	ip, [r4, #4]
    7a30:	e584200c 	str	r2, [r4, #12]
    7a34:	e5843010 	str	r3, [r4, #16]
    7a38:	e5841008 	str	r1, [r4, #8]
    7a3c:	eb000741 	bl	9748 <OS_CPU_SR_Restore>
    7a40:	e594200c 	ldr	r2, [r4, #12]
    7a44:	e5943010 	ldr	r3, [r4, #16]
    7a48:	e3a00000 	mov	r0, #0
    7a4c:	e0633002 	rsb	r3, r3, r2
    7a50:	e5843014 	str	r3, [r4, #20]
    7a54:	e8bd8038 	pop	{r3, r4, r5, pc}

00007a58 <OS_MemInit>:
    7a58:	e92d4070 	push	{r4, r5, r6, lr}
    7a5c:	e3000564 	movw	r0, #1380	; 0x564
    7a60:	e3a01078 	mov	r1, #120	; 0x78
    7a64:	e3400001 	movt	r0, #1
    7a68:	ebfffc4f 	bl	6bac <OS_MemClr>
    7a6c:	e3004564 	movw	r4, #1380	; 0x564
    7a70:	e3a03000 	mov	r3, #0
    7a74:	e30d6e78 	movw	r6, #56952	; 0xde78
    7a78:	e3404001 	movt	r4, #1
    7a7c:	e3406000 	movt	r6, #0
    7a80:	e1a00003 	mov	r0, r3
    7a84:	e080c003 	add	ip, r0, r3
    7a88:	e2833001 	add	r3, r3, #1
    7a8c:	e3530004 	cmp	r3, #4
    7a90:	e3002564 	movw	r2, #1380	; 0x564
    7a94:	e1a00083 	lsl	r0, r3, #1
    7a98:	e084c18c 	add	ip, r4, ip, lsl #3
    7a9c:	e0805003 	add	r5, r0, r3
    7aa0:	e30d1e78 	movw	r1, #56952	; 0xde78
    7aa4:	e3402001 	movt	r2, #1
    7aa8:	e3401000 	movt	r1, #0
    7aac:	e0845185 	add	r5, r4, r5, lsl #3
    7ab0:	e58c6014 	str	r6, [ip, #20]
    7ab4:	e58c5004 	str	r5, [ip, #4]
    7ab8:	1afffff1 	bne	7a84 <OS_MemInit+0x2c>
    7abc:	e30035ec 	movw	r3, #1516	; 0x5ec
    7ac0:	e3403001 	movt	r3, #1
    7ac4:	e5821074 	str	r1, [r2, #116]	; 0x74
    7ac8:	e3a01000 	mov	r1, #0
    7acc:	e5832000 	str	r2, [r3]
    7ad0:	e5821064 	str	r1, [r2, #100]	; 0x64
    7ad4:	e8bd8070 	pop	{r4, r5, r6, pc}

00007ad8 <OSMutex_RdyAtPrio>:
    7ad8:	e5d02030 	ldrb	r2, [r0, #48]	; 0x30
    7adc:	e30035f8 	movw	r3, #1528	; 0x5f8
    7ae0:	e3403001 	movt	r3, #1
    7ae4:	e5d0c031 	ldrb	ip, [r0, #49]	; 0x31
    7ae8:	e92d05f0 	push	{r4, r5, r6, r7, r8, sl}
    7aec:	e3a06001 	mov	r6, #1
    7af0:	e7d34002 	ldrb	r4, [r3, r2]
    7af4:	e300555d 	movw	r5, #1373	; 0x55d
    7af8:	e3405001 	movt	r5, #1
    7afc:	e1c4c00c 	bic	ip, r4, ip
    7b00:	e7c3c002 	strb	ip, [r3, r2]
    7b04:	e35c0000 	cmp	ip, #0
    7b08:	e30025f4 	movw	r2, #1524	; 0x5f4
    7b0c:	e3402001 	movt	r2, #1
    7b10:	e5c0102e 	strb	r1, [r0, #46]	; 0x2e
    7b14:	05d04032 	ldrbeq	r4, [r0, #50]	; 0x32
    7b18:	05d2c000 	ldrbeq	ip, [r2]
    7b1c:	e5c51000 	strb	r1, [r5]
    7b20:	01ccc004 	biceq	ip, ip, r4
    7b24:	e2014007 	and	r4, r1, #7
    7b28:	05c2c000 	strbeq	ip, [r2]
    7b2c:	e7e2c1d1 	ubfx	ip, r1, #3, #3
    7b30:	e1a07c16 	lsl	r7, r6, ip
    7b34:	e1a06416 	lsl	r6, r6, r4
    7b38:	e5c0402f 	strb	r4, [r0, #47]	; 0x2f
    7b3c:	e3004f90 	movw	r4, #3984	; 0xf90
    7b40:	e5c0c030 	strb	ip, [r0, #48]	; 0x30
    7b44:	e6ef7077 	uxtb	r7, r7
    7b48:	e6ef6076 	uxtb	r6, r6
    7b4c:	e5c07032 	strb	r7, [r0, #50]	; 0x32
    7b50:	e5c06031 	strb	r6, [r0, #49]	; 0x31
    7b54:	e3404001 	movt	r4, #1
    7b58:	e5d2a000 	ldrb	sl, [r2]
    7b5c:	e7d3800c 	ldrb	r8, [r3, ip]
    7b60:	e187700a 	orr	r7, r7, sl
    7b64:	e7840101 	str	r0, [r4, r1, lsl #2]
    7b68:	e1866008 	orr	r6, r6, r8
    7b6c:	e5c27000 	strb	r7, [r2]
    7b70:	e7c3600c 	strb	r6, [r3, ip]
    7b74:	e8bd05f0 	pop	{r4, r5, r6, r7, r8, sl}
    7b78:	e12fff1e 	bx	lr

00007b7c <OSMutexAccept>:
    7b7c:	e92d4070 	push	{r4, r5, r6, lr}
    7b80:	e1a04000 	mov	r4, r0
    7b84:	e5d03000 	ldrb	r3, [r0]
    7b88:	e1a05001 	mov	r5, r1
    7b8c:	e3530004 	cmp	r3, #4
    7b90:	0a000003 	beq	7ba4 <OSMutexAccept+0x28>
    7b94:	e3a03001 	mov	r3, #1
    7b98:	e3a00000 	mov	r0, #0
    7b9c:	e5c13000 	strb	r3, [r1]
    7ba0:	e8bd8070 	pop	{r4, r5, r6, pc}
    7ba4:	e3003604 	movw	r3, #1540	; 0x604
    7ba8:	e3403001 	movt	r3, #1
    7bac:	e5d36000 	ldrb	r6, [r3]
    7bb0:	e3560000 	cmp	r6, #0
    7bb4:	0a000003 	beq	7bc8 <OSMutexAccept+0x4c>
    7bb8:	e3a03002 	mov	r3, #2
    7bbc:	e3a00000 	mov	r0, #0
    7bc0:	e5c13000 	strb	r3, [r1]
    7bc4:	e8bd8070 	pop	{r4, r5, r6, pc}
    7bc8:	eb0006d8 	bl	9730 <OS_CPU_SR_Save>
    7bcc:	e1d430b8 	ldrh	r3, [r4, #8]
    7bd0:	e6ef2073 	uxtb	r2, r3
    7bd4:	e35200ff 	cmp	r2, #255	; 0xff
    7bd8:	e1a0c000 	mov	ip, r0
    7bdc:	1a000014 	bne	7c34 <OSMutexAccept+0xb8>
    7be0:	e3002608 	movw	r2, #1544	; 0x608
    7be4:	e3402001 	movt	r2, #1
    7be8:	e1a01423 	lsr	r1, r3, #8
    7bec:	e2033cff 	and	r3, r3, #65280	; 0xff00
    7bf0:	e5922000 	ldr	r2, [r2]
    7bf4:	e35100ff 	cmp	r1, #255	; 0xff
    7bf8:	e1c430b8 	strh	r3, [r4, #8]
    7bfc:	e5d2e02e 	ldrb	lr, [r2, #46]	; 0x2e
    7c00:	e5842004 	str	r2, [r4, #4]
    7c04:	e183300e 	orr	r3, r3, lr
    7c08:	e1c430b8 	strh	r3, [r4, #8]
    7c0c:	0a000002 	beq	7c1c <OSMutexAccept+0xa0>
    7c10:	e5d2302e 	ldrb	r3, [r2, #46]	; 0x2e
    7c14:	e1530001 	cmp	r3, r1
    7c18:	9a000009 	bls	7c44 <OSMutexAccept+0xc8>
    7c1c:	e1a0000c 	mov	r0, ip
    7c20:	eb0006c8 	bl	9748 <OS_CPU_SR_Restore>
    7c24:	e3a03000 	mov	r3, #0
    7c28:	e3a00001 	mov	r0, #1
    7c2c:	e5c53000 	strb	r3, [r5]
    7c30:	e8bd8070 	pop	{r4, r5, r6, pc}
    7c34:	eb0006c3 	bl	9748 <OS_CPU_SR_Restore>
    7c38:	e1a00006 	mov	r0, r6
    7c3c:	e5c56000 	strb	r6, [r5]
    7c40:	e8bd8070 	pop	{r4, r5, r6, pc}
    7c44:	eb0006bf 	bl	9748 <OS_CPU_SR_Restore>
    7c48:	e3a03078 	mov	r3, #120	; 0x78
    7c4c:	e3a00001 	mov	r0, #1
    7c50:	e5c53000 	strb	r3, [r5]
    7c54:	e8bd8070 	pop	{r4, r5, r6, pc}

00007c58 <OSMutexCreate>:
    7c58:	e92d40f8 	push	{r3, r4, r5, r6, r7, lr}
    7c5c:	e3003604 	movw	r3, #1540	; 0x604
    7c60:	e3403001 	movt	r3, #1
    7c64:	e1a05000 	mov	r5, r0
    7c68:	e1a06001 	mov	r6, r1
    7c6c:	e5d34000 	ldrb	r4, [r3]
    7c70:	e3540000 	cmp	r4, #0
    7c74:	13a03010 	movne	r3, #16
    7c78:	13a04000 	movne	r4, #0
    7c7c:	15c13000 	strbne	r3, [r1]
    7c80:	1a000020 	bne	7d08 <OSMutexCreate+0xb0>
    7c84:	eb0006a9 	bl	9730 <OS_CPU_SR_Save>
    7c88:	e35500ff 	cmp	r5, #255	; 0xff
    7c8c:	e1a01000 	mov	r1, r0
    7c90:	0a00002b 	beq	7d44 <OSMutexCreate+0xec>
    7c94:	e3003f90 	movw	r3, #3984	; 0xf90
    7c98:	e3403001 	movt	r3, #1
    7c9c:	e7932105 	ldr	r2, [r3, r5, lsl #2]
    7ca0:	e3520000 	cmp	r2, #0
    7ca4:	1a000019 	bne	7d10 <OSMutexCreate+0xb8>
    7ca8:	e3002600 	movw	r2, #1536	; 0x600
    7cac:	e3402001 	movt	r2, #1
    7cb0:	e3a00001 	mov	r0, #1
    7cb4:	e7830105 	str	r0, [r3, r5, lsl #2]
    7cb8:	e5924000 	ldr	r4, [r2]
    7cbc:	e3540000 	cmp	r4, #0
    7cc0:	0a000017 	beq	7d24 <OSMutexCreate+0xcc>
    7cc4:	e5943004 	ldr	r3, [r4, #4]
    7cc8:	e1a00001 	mov	r0, r1
    7ccc:	e1a05405 	lsl	r5, r5, #8
    7cd0:	e3a07000 	mov	r7, #0
    7cd4:	e38550ff 	orr	r5, r5, #255	; 0xff
    7cd8:	e5823000 	str	r3, [r2]
    7cdc:	eb000699 	bl	9748 <OS_CPU_SR_Restore>
    7ce0:	e3a03004 	mov	r3, #4
    7ce4:	e1c450b8 	strh	r5, [r4, #8]
    7ce8:	e5c43000 	strb	r3, [r4]
    7cec:	e1a00004 	mov	r0, r4
    7cf0:	e30d3e78 	movw	r3, #56952	; 0xde78
    7cf4:	e5847004 	str	r7, [r4, #4]
    7cf8:	e3403000 	movt	r3, #0
    7cfc:	e5843014 	str	r3, [r4, #20]
    7d00:	ebfffb9e 	bl	6b80 <OS_EventWaitListInit>
    7d04:	e5c67000 	strb	r7, [r6]
    7d08:	e1a00004 	mov	r0, r4
    7d0c:	e8bd80f8 	pop	{r3, r4, r5, r6, r7, pc}
    7d10:	eb00068c 	bl	9748 <OS_CPU_SR_Restore>
    7d14:	e3a03028 	mov	r3, #40	; 0x28
    7d18:	e1a00004 	mov	r0, r4
    7d1c:	e5c63000 	strb	r3, [r6]
    7d20:	e8bd80f8 	pop	{r3, r4, r5, r6, r7, pc}
    7d24:	e7834105 	str	r4, [r3, r5, lsl #2]
    7d28:	e1a00001 	mov	r0, r1
    7d2c:	e3a04000 	mov	r4, #0
    7d30:	eb000684 	bl	9748 <OS_CPU_SR_Restore>
    7d34:	e3a03004 	mov	r3, #4
    7d38:	e1a00004 	mov	r0, r4
    7d3c:	e5c63000 	strb	r3, [r6]
    7d40:	e8bd80f8 	pop	{r3, r4, r5, r6, r7, pc}
    7d44:	e3002600 	movw	r2, #1536	; 0x600
    7d48:	e3402001 	movt	r2, #1
    7d4c:	e5924000 	ldr	r4, [r2]
    7d50:	e3540000 	cmp	r4, #0
    7d54:	1affffda 	bne	7cc4 <OSMutexCreate+0x6c>
    7d58:	eafffff2 	b	7d28 <OSMutexCreate+0xd0>

00007d5c <OSMutexDel>:
    7d5c:	e92d40f0 	push	{r4, r5, r6, r7, lr}
    7d60:	e1a04000 	mov	r4, r0
    7d64:	e5d03000 	ldrb	r3, [r0]
    7d68:	e24dd00c 	sub	sp, sp, #12
    7d6c:	e1a05002 	mov	r5, r2
    7d70:	e3530004 	cmp	r3, #4
    7d74:	13a03001 	movne	r3, #1
    7d78:	15c23000 	strbne	r3, [r2]
    7d7c:	0a000002 	beq	7d8c <OSMutexDel+0x30>
    7d80:	e1a00004 	mov	r0, r4
    7d84:	e28dd00c 	add	sp, sp, #12
    7d88:	e8bd80f0 	pop	{r4, r5, r6, r7, pc}
    7d8c:	e3003604 	movw	r3, #1540	; 0x604
    7d90:	e3403001 	movt	r3, #1
    7d94:	e5d33000 	ldrb	r3, [r3]
    7d98:	e3530000 	cmp	r3, #0
    7d9c:	13a0300f 	movne	r3, #15
    7da0:	15c23000 	strbne	r3, [r2]
    7da4:	1afffff5 	bne	7d80 <OSMutexDel+0x24>
    7da8:	e58d1004 	str	r1, [sp, #4]
    7dac:	eb00065f 	bl	9730 <OS_CPU_SR_Save>
    7db0:	e5d4300a 	ldrb	r3, [r4, #10]
    7db4:	e59d1004 	ldr	r1, [sp, #4]
    7db8:	e2936000 	adds	r6, r3, #0
    7dbc:	13a06001 	movne	r6, #1
    7dc0:	e3510000 	cmp	r1, #0
    7dc4:	e1a07000 	mov	r7, r0
    7dc8:	1a000016 	bne	7e28 <OSMutexDel+0xcc>
    7dcc:	e3560000 	cmp	r6, #0
    7dd0:	1a00001a 	bne	7e40 <OSMutexDel+0xe4>
    7dd4:	e1d420b8 	ldrh	r2, [r4, #8]
    7dd8:	e30d3e78 	movw	r3, #56952	; 0xde78
    7ddc:	e3403000 	movt	r3, #0
    7de0:	e5843014 	str	r3, [r4, #20]
    7de4:	e1a02422 	lsr	r2, r2, #8
    7de8:	e35200ff 	cmp	r2, #255	; 0xff
    7dec:	13003f90 	movwne	r3, #3984	; 0xf90
    7df0:	13403001 	movtne	r3, #1
    7df4:	17836102 	strne	r6, [r3, r2, lsl #2]
    7df8:	e3003600 	movw	r3, #1536	; 0x600
    7dfc:	e3403001 	movt	r3, #1
    7e00:	e3a06000 	mov	r6, #0
    7e04:	e5c46000 	strb	r6, [r4]
    7e08:	e5932000 	ldr	r2, [r3]
    7e0c:	e1c460b8 	strh	r6, [r4, #8]
    7e10:	e5834000 	str	r4, [r3]
    7e14:	e5842004 	str	r2, [r4, #4]
    7e18:	e1a04006 	mov	r4, r6
    7e1c:	eb000649 	bl	9748 <OS_CPU_SR_Restore>
    7e20:	e5c56000 	strb	r6, [r5]
    7e24:	eaffffd5 	b	7d80 <OSMutexDel+0x24>
    7e28:	e3510001 	cmp	r1, #1
    7e2c:	0a000007 	beq	7e50 <OSMutexDel+0xf4>
    7e30:	eb000644 	bl	9748 <OS_CPU_SR_Restore>
    7e34:	e3a03007 	mov	r3, #7
    7e38:	e5c53000 	strb	r3, [r5]
    7e3c:	eaffffcf 	b	7d80 <OSMutexDel+0x24>
    7e40:	eb000640 	bl	9748 <OS_CPU_SR_Restore>
    7e44:	e3a03049 	mov	r3, #73	; 0x49
    7e48:	e5c53000 	strb	r3, [r5]
    7e4c:	eaffffcb 	b	7d80 <OSMutexDel+0x24>
    7e50:	e1d410b8 	ldrh	r1, [r4, #8]
    7e54:	e1a02421 	lsr	r2, r1, #8
    7e58:	e35200ff 	cmp	r2, #255	; 0xff
    7e5c:	0a000005 	beq	7e78 <OSMutexDel+0x11c>
    7e60:	e5940004 	ldr	r0, [r4, #4]
    7e64:	e3500000 	cmp	r0, #0
    7e68:	0a000002 	beq	7e78 <OSMutexDel+0x11c>
    7e6c:	e5d0c02e 	ldrb	ip, [r0, #46]	; 0x2e
    7e70:	e15c0002 	cmp	ip, r2
    7e74:	0a000024 	beq	7f0c <OSMutexDel+0x1b0>
    7e78:	e3530000 	cmp	r3, #0
    7e7c:	0a000007 	beq	7ea0 <OSMutexDel+0x144>
    7e80:	e3a03002 	mov	r3, #2
    7e84:	e1a00004 	mov	r0, r4
    7e88:	e3a01000 	mov	r1, #0
    7e8c:	e3a02010 	mov	r2, #16
    7e90:	ebfffb01 	bl	6a9c <OS_EventTaskRdy>
    7e94:	e5d4300a 	ldrb	r3, [r4, #10]
    7e98:	e3530000 	cmp	r3, #0
    7e9c:	1afffff7 	bne	7e80 <OSMutexDel+0x124>
    7ea0:	e1d420b8 	ldrh	r2, [r4, #8]
    7ea4:	e30d3e78 	movw	r3, #56952	; 0xde78
    7ea8:	e3403000 	movt	r3, #0
    7eac:	e5843014 	str	r3, [r4, #20]
    7eb0:	e1a02422 	lsr	r2, r2, #8
    7eb4:	e35200ff 	cmp	r2, #255	; 0xff
    7eb8:	13003f90 	movwne	r3, #3984	; 0xf90
    7ebc:	13403001 	movtne	r3, #1
    7ec0:	13a01000 	movne	r1, #0
    7ec4:	17831102 	strne	r1, [r3, r2, lsl #2]
    7ec8:	e3003600 	movw	r3, #1536	; 0x600
    7ecc:	e3403001 	movt	r3, #1
    7ed0:	e3a02000 	mov	r2, #0
    7ed4:	e5c42000 	strb	r2, [r4]
    7ed8:	e5931000 	ldr	r1, [r3]
    7edc:	e1a00007 	mov	r0, r7
    7ee0:	e1c420b8 	strh	r2, [r4, #8]
    7ee4:	e5834000 	str	r4, [r3]
    7ee8:	e5841004 	str	r1, [r4, #4]
    7eec:	eb000615 	bl	9748 <OS_CPU_SR_Restore>
    7ef0:	e3560001 	cmp	r6, #1
    7ef4:	0a000002 	beq	7f04 <OSMutexDel+0x1a8>
    7ef8:	e3a04000 	mov	r4, #0
    7efc:	e5c54000 	strb	r4, [r5]
    7f00:	eaffff9e 	b	7d80 <OSMutexDel+0x24>
    7f04:	ebfffb3b 	bl	6bf8 <OS_Sched>
    7f08:	eafffffa 	b	7ef8 <OSMutexDel+0x19c>
    7f0c:	e6ef1071 	uxtb	r1, r1
    7f10:	ebfffef0 	bl	7ad8 <OSMutex_RdyAtPrio>
    7f14:	e5d4300a 	ldrb	r3, [r4, #10]
    7f18:	eaffffd6 	b	7e78 <OSMutexDel+0x11c>

00007f1c <OSMutexPend>:
    7f1c:	e92d4ff0 	push	{r4, r5, r6, r7, r8, r9, sl, fp, lr}
    7f20:	e1a04000 	mov	r4, r0
    7f24:	e5d03000 	ldrb	r3, [r0]
    7f28:	e24dd00c 	sub	sp, sp, #12
    7f2c:	e3530004 	cmp	r3, #4
    7f30:	13a03001 	movne	r3, #1
    7f34:	15c23000 	strbne	r3, [r2]
    7f38:	0a000001 	beq	7f44 <OSMutexPend+0x28>
    7f3c:	e28dd00c 	add	sp, sp, #12
    7f40:	e8bd8ff0 	pop	{r4, r5, r6, r7, r8, r9, sl, fp, pc}
    7f44:	e3003604 	movw	r3, #1540	; 0x604
    7f48:	e3403001 	movt	r3, #1
    7f4c:	e5d33000 	ldrb	r3, [r3]
    7f50:	e3530000 	cmp	r3, #0
    7f54:	13a03002 	movne	r3, #2
    7f58:	15c23000 	strbne	r3, [r2]
    7f5c:	1afffff6 	bne	7f3c <OSMutexPend+0x20>
    7f60:	e3003554 	movw	r3, #1364	; 0x554
    7f64:	e3403001 	movt	r3, #1
    7f68:	e5d33000 	ldrb	r3, [r3]
    7f6c:	e3530000 	cmp	r3, #0
    7f70:	13a0300d 	movne	r3, #13
    7f74:	15c23000 	strbne	r3, [r2]
    7f78:	1affffef 	bne	7f3c <OSMutexPend+0x20>
    7f7c:	e58d1004 	str	r1, [sp, #4]
    7f80:	e58d2000 	str	r2, [sp]
    7f84:	eb0005e9 	bl	9730 <OS_CPU_SR_Save>
    7f88:	e1d430b8 	ldrh	r3, [r4, #8]
    7f8c:	e59d1004 	ldr	r1, [sp, #4]
    7f90:	e59d2000 	ldr	r2, [sp]
    7f94:	e6efe073 	uxtb	lr, r3
    7f98:	e1a06423 	lsr	r6, r3, #8
    7f9c:	e35e00ff 	cmp	lr, #255	; 0xff
    7fa0:	e6efc076 	uxtb	ip, r6
    7fa4:	e1a07000 	mov	r7, r0
    7fa8:	0a000066 	beq	8148 <OSMutexPend+0x22c>
    7fac:	e35c00ff 	cmp	ip, #255	; 0xff
    7fb0:	03005608 	movweq	r5, #1544	; 0x608
    7fb4:	03405001 	movteq	r5, #1
    7fb8:	0a000039 	beq	80a4 <OSMutexPend+0x188>
    7fbc:	e5943004 	ldr	r3, [r4, #4]
    7fc0:	e3005608 	movw	r5, #1544	; 0x608
    7fc4:	e3405001 	movt	r5, #1
    7fc8:	e5d3002e 	ldrb	r0, [r3, #46]	; 0x2e
    7fcc:	e150000c 	cmp	r0, ip
    7fd0:	9a000033 	bls	80a4 <OSMutexPend+0x188>
    7fd4:	e5950000 	ldr	r0, [r5]
    7fd8:	e5d0002e 	ldrb	r0, [r0, #46]	; 0x2e
    7fdc:	e150000e 	cmp	r0, lr
    7fe0:	2a00002f 	bcs	80a4 <OSMutexPend+0x188>
    7fe4:	e5d38030 	ldrb	r8, [r3, #48]	; 0x30
    7fe8:	e30005f8 	movw	r0, #1528	; 0x5f8
    7fec:	e3400001 	movt	r0, #1
    7ff0:	e5d3e031 	ldrb	lr, [r3, #49]	; 0x31
    7ff4:	e7d0a008 	ldrb	sl, [r0, r8]
    7ff8:	e11a000e 	tst	sl, lr
    7ffc:	0a00006b 	beq	81b0 <OSMutexPend+0x294>
    8000:	e1cae00e 	bic	lr, sl, lr
    8004:	e7c0e008 	strb	lr, [r0, r8]
    8008:	e35e0000 	cmp	lr, #0
    800c:	13a0a001 	movne	sl, #1
    8010:	1a000006 	bne	8030 <OSMutexPend+0x114>
    8014:	e300e5f4 	movw	lr, #1524	; 0x5f4
    8018:	e340e001 	movt	lr, #1
    801c:	e5d39032 	ldrb	r9, [r3, #50]	; 0x32
    8020:	e3a0a001 	mov	sl, #1
    8024:	e5de8000 	ldrb	r8, [lr]
    8028:	e1c88009 	bic	r8, r8, r9
    802c:	e5ce8000 	strb	r8, [lr]
    8030:	e3a08001 	mov	r8, #1
    8034:	e1a0e1ac 	lsr	lr, ip, #3
    8038:	e2066007 	and	r6, r6, #7
    803c:	e15a0008 	cmp	sl, r8
    8040:	e1a0ae18 	lsl	sl, r8, lr
    8044:	e1a08618 	lsl	r8, r8, r6
    8048:	e5c3c02e 	strb	ip, [r3, #46]	; 0x2e
    804c:	e6efa07a 	uxtb	sl, sl
    8050:	e6ef8078 	uxtb	r8, r8
    8054:	e5c3e030 	strb	lr, [r3, #48]	; 0x30
    8058:	e5c3602f 	strb	r6, [r3, #47]	; 0x2f
    805c:	e5c3a032 	strb	sl, [r3, #50]	; 0x32
    8060:	e5c38031 	strb	r8, [r3, #49]	; 0x31
    8064:	0a000062 	beq	81f4 <OSMutexPend+0x2d8>
    8068:	e593001c 	ldr	r0, [r3, #28]
    806c:	e3500000 	cmp	r0, #0
    8070:	0a000008 	beq	8098 <OSMutexPend+0x17c>
    8074:	e5d0e00a 	ldrb	lr, [r0, #10]
    8078:	e18aa00e 	orr	sl, sl, lr
    807c:	e5c0a00a 	strb	sl, [r0, #10]
    8080:	e5d36030 	ldrb	r6, [r3, #48]	; 0x30
    8084:	e5d3e031 	ldrb	lr, [r3, #49]	; 0x31
    8088:	e0800006 	add	r0, r0, r6
    808c:	e5d0600b 	ldrb	r6, [r0, #11]
    8090:	e186e00e 	orr	lr, r6, lr
    8094:	e5c0e00b 	strb	lr, [r0, #11]
    8098:	e3000f90 	movw	r0, #3984	; 0xf90
    809c:	e3400001 	movt	r0, #1
    80a0:	e780310c 	str	r3, [r0, ip, lsl #2]
    80a4:	e5953000 	ldr	r3, [r5]
    80a8:	e3a0e000 	mov	lr, #0
    80ac:	e1a00004 	mov	r0, r4
    80b0:	e5d3c02c 	ldrb	ip, [r3, #44]	; 0x2c
    80b4:	e5c3e02d 	strb	lr, [r3, #45]	; 0x2d
    80b8:	e5831028 	str	r1, [r3, #40]	; 0x28
    80bc:	e38cc010 	orr	ip, ip, #16
    80c0:	e5c3c02c 	strb	ip, [r3, #44]	; 0x2c
    80c4:	e58d2000 	str	r2, [sp]
    80c8:	ebfffa08 	bl	68f0 <OS_EventTaskWait>
    80cc:	e1a00007 	mov	r0, r7
    80d0:	eb00059c 	bl	9748 <OS_CPU_SR_Restore>
    80d4:	ebfffac7 	bl	6bf8 <OS_Sched>
    80d8:	eb000594 	bl	9730 <OS_CPU_SR_Save>
    80dc:	e59d2000 	ldr	r2, [sp]
    80e0:	e1a06000 	mov	r6, r0
    80e4:	e5950000 	ldr	r0, [r5]
    80e8:	e5d0302d 	ldrb	r3, [r0, #45]	; 0x2d
    80ec:	e3530000 	cmp	r3, #0
    80f0:	1a00000a 	bne	8120 <OSMutexPend+0x204>
    80f4:	e5c23000 	strb	r3, [r2]
    80f8:	e5953000 	ldr	r3, [r5]
    80fc:	e3a02000 	mov	r2, #0
    8100:	e1a00006 	mov	r0, r6
    8104:	e5c3202c 	strb	r2, [r3, #44]	; 0x2c
    8108:	e5c3202d 	strb	r2, [r3, #45]	; 0x2d
    810c:	e583201c 	str	r2, [r3, #28]
    8110:	e5832020 	str	r2, [r3, #32]
    8114:	e28dd00c 	add	sp, sp, #12
    8118:	e8bd4ff0 	pop	{r4, r5, r6, r7, r8, r9, sl, fp, lr}
    811c:	ea000589 	b	9748 <OS_CPU_SR_Restore>
    8120:	e3530002 	cmp	r3, #2
    8124:	03a0300e 	moveq	r3, #14
    8128:	05c23000 	strbeq	r3, [r2]
    812c:	0afffff1 	beq	80f8 <OSMutexPend+0x1dc>
    8130:	e1a01004 	mov	r1, r4
    8134:	e58d2000 	str	r2, [sp]
    8138:	ebfffa34 	bl	6a10 <OS_EventTaskRemove>
    813c:	e3a0300a 	mov	r3, #10
    8140:	e59d2000 	ldr	r2, [sp]
    8144:	eaffffea 	b	80f4 <OSMutexPend+0x1d8>
    8148:	e3001608 	movw	r1, #1544	; 0x608
    814c:	e3401001 	movt	r1, #1
    8150:	e2033cff 	and	r3, r3, #65280	; 0xff00
    8154:	e35c00ff 	cmp	ip, #255	; 0xff
    8158:	e5911000 	ldr	r1, [r1]
    815c:	e1c430b8 	strh	r3, [r4, #8]
    8160:	e5d1e02e 	ldrb	lr, [r1, #46]	; 0x2e
    8164:	e5841004 	str	r1, [r4, #4]
    8168:	e183300e 	orr	r3, r3, lr
    816c:	e1c430b8 	strh	r3, [r4, #8]
    8170:	0a000002 	beq	8180 <OSMutexPend+0x264>
    8174:	e5d1302e 	ldrb	r3, [r1, #46]	; 0x2e
    8178:	e153000c 	cmp	r3, ip
    817c:	9a000006 	bls	819c <OSMutexPend+0x280>
    8180:	e1a00007 	mov	r0, r7
    8184:	e58d2000 	str	r2, [sp]
    8188:	eb00056e 	bl	9748 <OS_CPU_SR_Restore>
    818c:	e59d2000 	ldr	r2, [sp]
    8190:	e3a03000 	mov	r3, #0
    8194:	e5c23000 	strb	r3, [r2]
    8198:	eaffff67 	b	7f3c <OSMutexPend+0x20>
    819c:	eb000569 	bl	9748 <OS_CPU_SR_Restore>
    81a0:	e59d2000 	ldr	r2, [sp]
    81a4:	e3a03078 	mov	r3, #120	; 0x78
    81a8:	e5c23000 	strb	r3, [r2]
    81ac:	eaffff62 	b	7f3c <OSMutexPend+0x20>
    81b0:	e593901c 	ldr	r9, [r3, #28]
    81b4:	e3590000 	cmp	r9, #0
    81b8:	0a00000b 	beq	81ec <OSMutexPend+0x2d0>
    81bc:	e0898008 	add	r8, r9, r8
    81c0:	e5d8a00b 	ldrb	sl, [r8, #11]
    81c4:	e1cae00e 	bic	lr, sl, lr
    81c8:	e5c8e00b 	strb	lr, [r8, #11]
    81cc:	e35e0000 	cmp	lr, #0
    81d0:	1a000005 	bne	81ec <OSMutexPend+0x2d0>
    81d4:	e5d38032 	ldrb	r8, [r3, #50]	; 0x32
    81d8:	e3a0a000 	mov	sl, #0
    81dc:	e5d9e00a 	ldrb	lr, [r9, #10]
    81e0:	e1cee008 	bic	lr, lr, r8
    81e4:	e5c9e00a 	strb	lr, [r9, #10]
    81e8:	eaffff90 	b	8030 <OSMutexPend+0x114>
    81ec:	e3a0a000 	mov	sl, #0
    81f0:	eaffff8e 	b	8030 <OSMutexPend+0x114>
    81f4:	e30065f4 	movw	r6, #1524	; 0x5f4
    81f8:	e3406001 	movt	r6, #1
    81fc:	e7d0b00e 	ldrb	fp, [r0, lr]
    8200:	e5d69000 	ldrb	r9, [r6]
    8204:	e188800b 	orr	r8, r8, fp
    8208:	e7c0800e 	strb	r8, [r0, lr]
    820c:	e18aa009 	orr	sl, sl, r9
    8210:	e5c6a000 	strb	sl, [r6]
    8214:	eaffff9f 	b	8098 <OSMutexPend+0x17c>

00008218 <OSMutexPost>:
    8218:	e92d40f8 	push	{r3, r4, r5, r6, r7, lr}
    821c:	e3003604 	movw	r3, #1540	; 0x604
    8220:	e3403001 	movt	r3, #1
    8224:	e1a04000 	mov	r4, r0
    8228:	e5d33000 	ldrb	r3, [r3]
    822c:	e3530000 	cmp	r3, #0
    8230:	0a000001 	beq	823c <OSMutexPost+0x24>
    8234:	e3a00005 	mov	r0, #5
    8238:	e8bd80f8 	pop	{r3, r4, r5, r6, r7, pc}
    823c:	e5d03000 	ldrb	r3, [r0]
    8240:	e3530004 	cmp	r3, #4
    8244:	0a000001 	beq	8250 <OSMutexPost+0x38>
    8248:	e3a00001 	mov	r0, #1
    824c:	e8bd80f8 	pop	{r3, r4, r5, r6, r7, pc}
    8250:	eb000536 	bl	9730 <OS_CPU_SR_Save>
    8254:	e3003608 	movw	r3, #1544	; 0x608
    8258:	e3403001 	movt	r3, #1
    825c:	e5942004 	ldr	r2, [r4, #4]
    8260:	e1d410b8 	ldrh	r1, [r4, #8]
    8264:	e5933000 	ldr	r3, [r3]
    8268:	e1520003 	cmp	r2, r3
    826c:	e1a05000 	mov	r5, r0
    8270:	0a000002 	beq	8280 <OSMutexPost+0x68>
    8274:	eb000533 	bl	9748 <OS_CPU_SR_Restore>
    8278:	e3a00064 	mov	r0, #100	; 0x64
    827c:	e8bd80f8 	pop	{r3, r4, r5, r6, r7, pc}
    8280:	e1a06421 	lsr	r6, r1, #8
    8284:	e35600ff 	cmp	r6, #255	; 0xff
    8288:	0a000006 	beq	82a8 <OSMutexPost+0x90>
    828c:	e5d2302e 	ldrb	r3, [r2, #46]	; 0x2e
    8290:	e1530006 	cmp	r3, r6
    8294:	0a00002b 	beq	8348 <OSMutexPost+0x130>
    8298:	e3003f90 	movw	r3, #3984	; 0xf90
    829c:	e3403001 	movt	r3, #1
    82a0:	e3a02001 	mov	r2, #1
    82a4:	e7832106 	str	r2, [r3, r6, lsl #2]
    82a8:	e5d4700a 	ldrb	r7, [r4, #10]
    82ac:	e3570000 	cmp	r7, #0
    82b0:	0a000018 	beq	8318 <OSMutexPost+0x100>
    82b4:	e3a01000 	mov	r1, #0
    82b8:	e3a02010 	mov	r2, #16
    82bc:	e1a03001 	mov	r3, r1
    82c0:	e1a00004 	mov	r0, r4
    82c4:	ebfff9f4 	bl	6a9c <OS_EventTaskRdy>
    82c8:	e3003f90 	movw	r3, #3984	; 0xf90
    82cc:	e3403001 	movt	r3, #1
    82d0:	e1d420b8 	ldrh	r2, [r4, #8]
    82d4:	e3c220ff 	bic	r2, r2, #255	; 0xff
    82d8:	e1500006 	cmp	r0, r6
    82dc:	e7933100 	ldr	r3, [r3, r0, lsl #2]
    82e0:	e1800002 	orr	r0, r0, r2
    82e4:	e1c400b8 	strh	r0, [r4, #8]
    82e8:	83a07000 	movhi	r7, #0
    82ec:	93a07001 	movls	r7, #1
    82f0:	e35600ff 	cmp	r6, #255	; 0xff
    82f4:	e5843004 	str	r3, [r4, #4]
    82f8:	e1a00005 	mov	r0, r5
    82fc:	03a07000 	moveq	r7, #0
    8300:	e3570000 	cmp	r7, #0
    8304:	0a00000b 	beq	8338 <OSMutexPost+0x120>
    8308:	eb00050e 	bl	9748 <OS_CPU_SR_Restore>
    830c:	ebfffa39 	bl	6bf8 <OS_Sched>
    8310:	e3a00078 	mov	r0, #120	; 0x78
    8314:	e8bd80f8 	pop	{r3, r4, r5, r6, r7, pc}
    8318:	e1d430b8 	ldrh	r3, [r4, #8]
    831c:	e1a00005 	mov	r0, r5
    8320:	e5847004 	str	r7, [r4, #4]
    8324:	e38330ff 	orr	r3, r3, #255	; 0xff
    8328:	e1c430b8 	strh	r3, [r4, #8]
    832c:	eb000505 	bl	9748 <OS_CPU_SR_Restore>
    8330:	e1a00007 	mov	r0, r7
    8334:	e8bd80f8 	pop	{r3, r4, r5, r6, r7, pc}
    8338:	eb000502 	bl	9748 <OS_CPU_SR_Restore>
    833c:	ebfffa2d 	bl	6bf8 <OS_Sched>
    8340:	e1a00007 	mov	r0, r7
    8344:	e8bd80f8 	pop	{r3, r4, r5, r6, r7, pc}
    8348:	e1a00002 	mov	r0, r2
    834c:	e6ef1071 	uxtb	r1, r1
    8350:	ebfffde0 	bl	7ad8 <OSMutex_RdyAtPrio>
    8354:	eaffffcf 	b	8298 <OSMutexPost+0x80>

00008358 <OSMutexQuery>:
    8358:	e3003604 	movw	r3, #1540	; 0x604
    835c:	e3403001 	movt	r3, #1
    8360:	e92d4030 	push	{r4, r5, lr}
    8364:	e1a05000 	mov	r5, r0
    8368:	e5d34000 	ldrb	r4, [r3]
    836c:	e24dd00c 	sub	sp, sp, #12
    8370:	e3540000 	cmp	r4, #0
    8374:	13a00006 	movne	r0, #6
    8378:	0a000001 	beq	8384 <OSMutexQuery+0x2c>
    837c:	e28dd00c 	add	sp, sp, #12
    8380:	e8bd8030 	pop	{r4, r5, pc}
    8384:	e5d53000 	ldrb	r3, [r5]
    8388:	e3530004 	cmp	r3, #4
    838c:	13a00001 	movne	r0, #1
    8390:	1afffff9 	bne	837c <OSMutexQuery+0x24>
    8394:	e58d1004 	str	r1, [sp, #4]
    8398:	eb0004e4 	bl	9730 <OS_CPU_SR_Save>
    839c:	e1d530b8 	ldrh	r3, [r5, #8]
    83a0:	e59d1004 	ldr	r1, [sp, #4]
    83a4:	e1a03423 	lsr	r3, r3, #8
    83a8:	e281c008 	add	ip, r1, #8
    83ac:	e5c1300b 	strb	r3, [r1, #11]
    83b0:	e5d53008 	ldrb	r3, [r5, #8]
    83b4:	e35300ff 	cmp	r3, #255	; 0xff
    83b8:	15c14009 	strbne	r4, [r1, #9]
    83bc:	e5c1300a 	strb	r3, [r1, #10]
    83c0:	03a03001 	moveq	r3, #1
    83c4:	05c13009 	strbeq	r3, [r1, #9]
    83c8:	e5f5200a 	ldrb	r2, [r5, #10]!
    83cc:	e1a03001 	mov	r3, r1
    83d0:	e5c12008 	strb	r2, [r1, #8]
    83d4:	e5f52001 	ldrb	r2, [r5, #1]!
    83d8:	e4c32001 	strb	r2, [r3], #1
    83dc:	e153000c 	cmp	r3, ip
    83e0:	1afffffb 	bne	83d4 <OSMutexQuery+0x7c>
    83e4:	eb0004d7 	bl	9748 <OS_CPU_SR_Restore>
    83e8:	e3a00000 	mov	r0, #0
    83ec:	eaffffe2 	b	837c <OSMutexQuery+0x24>

000083f0 <OSSemAccept>:
    83f0:	e92d4038 	push	{r3, r4, r5, lr}
    83f4:	e1a05000 	mov	r5, r0
    83f8:	e5d03000 	ldrb	r3, [r0]
    83fc:	e3530003 	cmp	r3, #3
    8400:	13a04000 	movne	r4, #0
    8404:	0a000001 	beq	8410 <OSSemAccept+0x20>
    8408:	e1a00004 	mov	r0, r4
    840c:	e8bd8038 	pop	{r3, r4, r5, pc}
    8410:	eb0004c6 	bl	9730 <OS_CPU_SR_Save>
    8414:	e1d540b8 	ldrh	r4, [r5, #8]
    8418:	e3540000 	cmp	r4, #0
    841c:	12443001 	subne	r3, r4, #1
    8420:	11c530b8 	strhne	r3, [r5, #8]
    8424:	eb0004c7 	bl	9748 <OS_CPU_SR_Restore>
    8428:	e1a00004 	mov	r0, r4
    842c:	e8bd8038 	pop	{r3, r4, r5, pc}

00008430 <OSSemCreate>:
    8430:	e3003604 	movw	r3, #1540	; 0x604
    8434:	e3403001 	movt	r3, #1
    8438:	e92d4070 	push	{r4, r5, r6, lr}
    843c:	e1a06000 	mov	r6, r0
    8440:	e5d35000 	ldrb	r5, [r3]
    8444:	e3550000 	cmp	r5, #0
    8448:	13a04000 	movne	r4, #0
    844c:	1a000011 	bne	8498 <OSSemCreate+0x68>
    8450:	eb0004b6 	bl	9730 <OS_CPU_SR_Save>
    8454:	e3003600 	movw	r3, #1536	; 0x600
    8458:	e3403001 	movt	r3, #1
    845c:	e5934000 	ldr	r4, [r3]
    8460:	e3540000 	cmp	r4, #0
    8464:	0a00000d 	beq	84a0 <OSSemCreate+0x70>
    8468:	e5942004 	ldr	r2, [r4, #4]
    846c:	e5832000 	str	r2, [r3]
    8470:	eb0004b4 	bl	9748 <OS_CPU_SR_Restore>
    8474:	e3a03003 	mov	r3, #3
    8478:	e1c460b8 	strh	r6, [r4, #8]
    847c:	e5c43000 	strb	r3, [r4]
    8480:	e1a00004 	mov	r0, r4
    8484:	e30d3e78 	movw	r3, #56952	; 0xde78
    8488:	e5845004 	str	r5, [r4, #4]
    848c:	e3403000 	movt	r3, #0
    8490:	e5843014 	str	r3, [r4, #20]
    8494:	ebfff9b9 	bl	6b80 <OS_EventWaitListInit>
    8498:	e1a00004 	mov	r0, r4
    849c:	e8bd8070 	pop	{r4, r5, r6, pc}
    84a0:	eb0004a8 	bl	9748 <OS_CPU_SR_Restore>
    84a4:	e1a00004 	mov	r0, r4
    84a8:	e8bd8070 	pop	{r4, r5, r6, pc}

000084ac <OSSemDel>:
    84ac:	e92d41f0 	push	{r4, r5, r6, r7, r8, lr}
    84b0:	e1a04000 	mov	r4, r0
    84b4:	e5d03000 	ldrb	r3, [r0]
    84b8:	e24dd008 	sub	sp, sp, #8
    84bc:	e1a05002 	mov	r5, r2
    84c0:	e3530003 	cmp	r3, #3
    84c4:	13a03001 	movne	r3, #1
    84c8:	15c23000 	strbne	r3, [r2]
    84cc:	0a000002 	beq	84dc <OSSemDel+0x30>
    84d0:	e1a00004 	mov	r0, r4
    84d4:	e28dd008 	add	sp, sp, #8
    84d8:	e8bd81f0 	pop	{r4, r5, r6, r7, r8, pc}
    84dc:	e3003604 	movw	r3, #1540	; 0x604
    84e0:	e3403001 	movt	r3, #1
    84e4:	e5d33000 	ldrb	r3, [r3]
    84e8:	e3530000 	cmp	r3, #0
    84ec:	13a0300f 	movne	r3, #15
    84f0:	15c23000 	strbne	r3, [r2]
    84f4:	1afffff5 	bne	84d0 <OSSemDel+0x24>
    84f8:	e58d1004 	str	r1, [sp, #4]
    84fc:	eb00048b 	bl	9730 <OS_CPU_SR_Save>
    8500:	e5d4700a 	ldrb	r7, [r4, #10]
    8504:	e59d1004 	ldr	r1, [sp, #4]
    8508:	e2977000 	adds	r7, r7, #0
    850c:	13a07001 	movne	r7, #1
    8510:	e3510000 	cmp	r1, #0
    8514:	e1a06007 	mov	r6, r7
    8518:	e1a08000 	mov	r8, r0
    851c:	1a00000f 	bne	8560 <OSSemDel+0xb4>
    8520:	e3570000 	cmp	r7, #0
    8524:	1a000013 	bne	8578 <OSSemDel+0xcc>
    8528:	e3003600 	movw	r3, #1536	; 0x600
    852c:	e3403001 	movt	r3, #1
    8530:	e5c47000 	strb	r7, [r4]
    8534:	e30d2e78 	movw	r2, #56952	; 0xde78
    8538:	e5931000 	ldr	r1, [r3]
    853c:	e3402000 	movt	r2, #0
    8540:	e1c470b8 	strh	r7, [r4, #8]
    8544:	e5842014 	str	r2, [r4, #20]
    8548:	e5841004 	str	r1, [r4, #4]
    854c:	e5834000 	str	r4, [r3]
    8550:	eb00047c 	bl	9748 <OS_CPU_SR_Restore>
    8554:	e1a04007 	mov	r4, r7
    8558:	e5c57000 	strb	r7, [r5]
    855c:	eaffffdb 	b	84d0 <OSSemDel+0x24>
    8560:	e3510001 	cmp	r1, #1
    8564:	0a000007 	beq	8588 <OSSemDel+0xdc>
    8568:	eb000476 	bl	9748 <OS_CPU_SR_Restore>
    856c:	e3a03007 	mov	r3, #7
    8570:	e5c53000 	strb	r3, [r5]
    8574:	eaffffd5 	b	84d0 <OSSemDel+0x24>
    8578:	eb000472 	bl	9748 <OS_CPU_SR_Restore>
    857c:	e3a03049 	mov	r3, #73	; 0x49
    8580:	e5c53000 	strb	r3, [r5]
    8584:	eaffffd1 	b	84d0 <OSSemDel+0x24>
    8588:	e3570000 	cmp	r7, #0
    858c:	0a000007 	beq	85b0 <OSSemDel+0x104>
    8590:	e3a03002 	mov	r3, #2
    8594:	e1a00004 	mov	r0, r4
    8598:	e3a01000 	mov	r1, #0
    859c:	e3a02001 	mov	r2, #1
    85a0:	ebfff93d 	bl	6a9c <OS_EventTaskRdy>
    85a4:	e5d4300a 	ldrb	r3, [r4, #10]
    85a8:	e3530000 	cmp	r3, #0
    85ac:	1afffff7 	bne	8590 <OSSemDel+0xe4>
    85b0:	e3003600 	movw	r3, #1536	; 0x600
    85b4:	e3403001 	movt	r3, #1
    85b8:	e3a01000 	mov	r1, #0
    85bc:	e5c41000 	strb	r1, [r4]
    85c0:	e593c000 	ldr	ip, [r3]
    85c4:	e30d2e78 	movw	r2, #56952	; 0xde78
    85c8:	e1c410b8 	strh	r1, [r4, #8]
    85cc:	e3402000 	movt	r2, #0
    85d0:	e1a00008 	mov	r0, r8
    85d4:	e5842014 	str	r2, [r4, #20]
    85d8:	e584c004 	str	ip, [r4, #4]
    85dc:	e5834000 	str	r4, [r3]
    85e0:	eb000458 	bl	9748 <OS_CPU_SR_Restore>
    85e4:	e3560001 	cmp	r6, #1
    85e8:	0a000002 	beq	85f8 <OSSemDel+0x14c>
    85ec:	e3a04000 	mov	r4, #0
    85f0:	e5c54000 	strb	r4, [r5]
    85f4:	eaffffb5 	b	84d0 <OSSemDel+0x24>
    85f8:	ebfff97e 	bl	6bf8 <OS_Sched>
    85fc:	eafffffa 	b	85ec <OSSemDel+0x140>

00008600 <OSSemPend>:
    8600:	e92d4070 	push	{r4, r5, r6, lr}
    8604:	e1a04000 	mov	r4, r0
    8608:	e5d03000 	ldrb	r3, [r0]
    860c:	e24dd008 	sub	sp, sp, #8
    8610:	e3530003 	cmp	r3, #3
    8614:	13a03001 	movne	r3, #1
    8618:	15c23000 	strbne	r3, [r2]
    861c:	0a000001 	beq	8628 <OSSemPend+0x28>
    8620:	e28dd008 	add	sp, sp, #8
    8624:	e8bd8070 	pop	{r4, r5, r6, pc}
    8628:	e3003604 	movw	r3, #1540	; 0x604
    862c:	e3403001 	movt	r3, #1
    8630:	e5d33000 	ldrb	r3, [r3]
    8634:	e3530000 	cmp	r3, #0
    8638:	13a03002 	movne	r3, #2
    863c:	15c23000 	strbne	r3, [r2]
    8640:	1afffff6 	bne	8620 <OSSemPend+0x20>
    8644:	e3003554 	movw	r3, #1364	; 0x554
    8648:	e3403001 	movt	r3, #1
    864c:	e5d35000 	ldrb	r5, [r3]
    8650:	e3550000 	cmp	r5, #0
    8654:	13a0300d 	movne	r3, #13
    8658:	15c23000 	strbne	r3, [r2]
    865c:	1affffef 	bne	8620 <OSSemPend+0x20>
    8660:	e58d1004 	str	r1, [sp, #4]
    8664:	e58d2000 	str	r2, [sp]
    8668:	eb000430 	bl	9730 <OS_CPU_SR_Save>
    866c:	e1d4c0b8 	ldrh	ip, [r4, #8]
    8670:	e59d1004 	ldr	r1, [sp, #4]
    8674:	e35c0000 	cmp	ip, #0
    8678:	e59d2000 	ldr	r2, [sp]
    867c:	e1a06000 	mov	r6, r0
    8680:	1a000029 	bne	872c <OSSemPend+0x12c>
    8684:	e3005608 	movw	r5, #1544	; 0x608
    8688:	e3405001 	movt	r5, #1
    868c:	e1a00004 	mov	r0, r4
    8690:	e5953000 	ldr	r3, [r5]
    8694:	e5d3e02c 	ldrb	lr, [r3, #44]	; 0x2c
    8698:	e5c3c02d 	strb	ip, [r3, #45]	; 0x2d
    869c:	e5831028 	str	r1, [r3, #40]	; 0x28
    86a0:	e38ec001 	orr	ip, lr, #1
    86a4:	e5c3c02c 	strb	ip, [r3, #44]	; 0x2c
    86a8:	e58d2000 	str	r2, [sp]
    86ac:	ebfff88f 	bl	68f0 <OS_EventTaskWait>
    86b0:	e1a00006 	mov	r0, r6
    86b4:	eb000423 	bl	9748 <OS_CPU_SR_Restore>
    86b8:	ebfff94e 	bl	6bf8 <OS_Sched>
    86bc:	eb00041b 	bl	9730 <OS_CPU_SR_Save>
    86c0:	e59d2000 	ldr	r2, [sp]
    86c4:	e1a06000 	mov	r6, r0
    86c8:	e5950000 	ldr	r0, [r5]
    86cc:	e5d0302d 	ldrb	r3, [r0, #45]	; 0x2d
    86d0:	e3530000 	cmp	r3, #0
    86d4:	1a00000a 	bne	8704 <OSSemPend+0x104>
    86d8:	e5c23000 	strb	r3, [r2]
    86dc:	e5953000 	ldr	r3, [r5]
    86e0:	e3a02000 	mov	r2, #0
    86e4:	e1a00006 	mov	r0, r6
    86e8:	e5c3202c 	strb	r2, [r3, #44]	; 0x2c
    86ec:	e5c3202d 	strb	r2, [r3, #45]	; 0x2d
    86f0:	e583201c 	str	r2, [r3, #28]
    86f4:	e5832020 	str	r2, [r3, #32]
    86f8:	e28dd008 	add	sp, sp, #8
    86fc:	e8bd4070 	pop	{r4, r5, r6, lr}
    8700:	ea000410 	b	9748 <OS_CPU_SR_Restore>
    8704:	e3530002 	cmp	r3, #2
    8708:	03a0300e 	moveq	r3, #14
    870c:	05c23000 	strbeq	r3, [r2]
    8710:	0afffff1 	beq	86dc <OSSemPend+0xdc>
    8714:	e1a01004 	mov	r1, r4
    8718:	e58d2000 	str	r2, [sp]
    871c:	ebfff8bb 	bl	6a10 <OS_EventTaskRemove>
    8720:	e3a0300a 	mov	r3, #10
    8724:	e59d2000 	ldr	r2, [sp]
    8728:	eaffffea 	b	86d8 <OSSemPend+0xd8>
    872c:	e24cc001 	sub	ip, ip, #1
    8730:	e1c4c0b8 	strh	ip, [r4, #8]
    8734:	eb000403 	bl	9748 <OS_CPU_SR_Restore>
    8738:	e59d2000 	ldr	r2, [sp]
    873c:	e5c25000 	strb	r5, [r2]
    8740:	eaffffb6 	b	8620 <OSSemPend+0x20>

00008744 <OSSemPendAbort>:
    8744:	e92d41f0 	push	{r4, r5, r6, r7, r8, lr}
    8748:	e1a04000 	mov	r4, r0
    874c:	e5d03000 	ldrb	r3, [r0]
    8750:	e24dd008 	sub	sp, sp, #8
    8754:	e1a06002 	mov	r6, r2
    8758:	e3530003 	cmp	r3, #3
    875c:	0a000005 	beq	8778 <OSSemPendAbort+0x34>
    8760:	e3a05000 	mov	r5, #0
    8764:	e3a03001 	mov	r3, #1
    8768:	e5c23000 	strb	r3, [r2]
    876c:	e1a00005 	mov	r0, r5
    8770:	e28dd008 	add	sp, sp, #8
    8774:	e8bd81f0 	pop	{r4, r5, r6, r7, r8, pc}
    8778:	e58d1004 	str	r1, [sp, #4]
    877c:	eb0003eb 	bl	9730 <OS_CPU_SR_Save>
    8780:	e5d4700a 	ldrb	r7, [r4, #10]
    8784:	e59d1004 	ldr	r1, [sp, #4]
    8788:	e3570000 	cmp	r7, #0
    878c:	e1a08000 	mov	r8, r0
    8790:	0a000019 	beq	87fc <OSSemPendAbort+0xb8>
    8794:	e3510001 	cmp	r1, #1
    8798:	0a00000b 	beq	87cc <OSSemPendAbort+0x88>
    879c:	e1a00004 	mov	r0, r4
    87a0:	e3a01000 	mov	r1, #0
    87a4:	e3a02001 	mov	r2, #1
    87a8:	e3a03002 	mov	r3, #2
    87ac:	ebfff8ba 	bl	6a9c <OS_EventTaskRdy>
    87b0:	e3a05001 	mov	r5, #1
    87b4:	e1a00008 	mov	r0, r8
    87b8:	eb0003e2 	bl	9748 <OS_CPU_SR_Restore>
    87bc:	ebfff90d 	bl	6bf8 <OS_Sched>
    87c0:	e3a0300e 	mov	r3, #14
    87c4:	e5c63000 	strb	r3, [r6]
    87c8:	eaffffe7 	b	876c <OSSemPendAbort+0x28>
    87cc:	e3a05000 	mov	r5, #0
    87d0:	e3a03002 	mov	r3, #2
    87d4:	e1a00004 	mov	r0, r4
    87d8:	e3a01000 	mov	r1, #0
    87dc:	e3a02001 	mov	r2, #1
    87e0:	ebfff8ad 	bl	6a9c <OS_EventTaskRdy>
    87e4:	e5d4300a 	ldrb	r3, [r4, #10]
    87e8:	e2855001 	add	r5, r5, #1
    87ec:	e3530000 	cmp	r3, #0
    87f0:	e6ef5075 	uxtb	r5, r5
    87f4:	1afffff5 	bne	87d0 <OSSemPendAbort+0x8c>
    87f8:	eaffffed 	b	87b4 <OSSemPendAbort+0x70>
    87fc:	eb0003d1 	bl	9748 <OS_CPU_SR_Restore>
    8800:	e1a05007 	mov	r5, r7
    8804:	e5c67000 	strb	r7, [r6]
    8808:	eaffffd7 	b	876c <OSSemPendAbort+0x28>

0000880c <OSSemPost>:
    880c:	e92d4070 	push	{r4, r5, r6, lr}
    8810:	e1a04000 	mov	r4, r0
    8814:	e5d03000 	ldrb	r3, [r0]
    8818:	e3530003 	cmp	r3, #3
    881c:	0a000001 	beq	8828 <OSSemPost+0x1c>
    8820:	e3a00001 	mov	r0, #1
    8824:	e8bd8070 	pop	{r4, r5, r6, pc}
    8828:	eb0003c0 	bl	9730 <OS_CPU_SR_Save>
    882c:	e5d4500a 	ldrb	r5, [r4, #10]
    8830:	e3550000 	cmp	r5, #0
    8834:	e1a06000 	mov	r6, r0
    8838:	1a00000b 	bne	886c <OSSemPost+0x60>
    883c:	e1d430b8 	ldrh	r3, [r4, #8]
    8840:	e30f2fff 	movw	r2, #65535	; 0xffff
    8844:	e1530002 	cmp	r3, r2
    8848:	0a000004 	beq	8860 <OSSemPost+0x54>
    884c:	e2833001 	add	r3, r3, #1
    8850:	e1c430b8 	strh	r3, [r4, #8]
    8854:	eb0003bb 	bl	9748 <OS_CPU_SR_Restore>
    8858:	e1a00005 	mov	r0, r5
    885c:	e8bd8070 	pop	{r4, r5, r6, pc}
    8860:	eb0003b8 	bl	9748 <OS_CPU_SR_Restore>
    8864:	e3a00033 	mov	r0, #51	; 0x33
    8868:	e8bd8070 	pop	{r4, r5, r6, pc}
    886c:	e3a01000 	mov	r1, #0
    8870:	e3a02001 	mov	r2, #1
    8874:	e1a03001 	mov	r3, r1
    8878:	e1a00004 	mov	r0, r4
    887c:	ebfff886 	bl	6a9c <OS_EventTaskRdy>
    8880:	e1a00006 	mov	r0, r6
    8884:	eb0003af 	bl	9748 <OS_CPU_SR_Restore>
    8888:	ebfff8da 	bl	6bf8 <OS_Sched>
    888c:	e3a00000 	mov	r0, #0
    8890:	e8bd8070 	pop	{r4, r5, r6, pc}

00008894 <OSSemQuery>:
    8894:	e92d4010 	push	{r4, lr}
    8898:	e1a04000 	mov	r4, r0
    889c:	e5d03000 	ldrb	r3, [r0]
    88a0:	e24dd008 	sub	sp, sp, #8
    88a4:	e3530003 	cmp	r3, #3
    88a8:	13a00001 	movne	r0, #1
    88ac:	0a000001 	beq	88b8 <OSSemQuery+0x24>
    88b0:	e28dd008 	add	sp, sp, #8
    88b4:	e8bd8010 	pop	{r4, pc}
    88b8:	e58d1004 	str	r1, [sp, #4]
    88bc:	eb00039b 	bl	9730 <OS_CPU_SR_Save>
    88c0:	e59d1004 	ldr	r1, [sp, #4]
    88c4:	e1a02004 	mov	r2, r4
    88c8:	e5f2c00a 	ldrb	ip, [r2, #10]!
    88cc:	e2813002 	add	r3, r1, #2
    88d0:	e281e00a 	add	lr, r1, #10
    88d4:	e5c1c00a 	strb	ip, [r1, #10]
    88d8:	e5f2c001 	ldrb	ip, [r2, #1]!
    88dc:	e4c3c001 	strb	ip, [r3], #1
    88e0:	e153000e 	cmp	r3, lr
    88e4:	1afffffb 	bne	88d8 <OSSemQuery+0x44>
    88e8:	e1d430b8 	ldrh	r3, [r4, #8]
    88ec:	e1c130b0 	strh	r3, [r1]
    88f0:	eb000394 	bl	9748 <OS_CPU_SR_Restore>
    88f4:	e3a00000 	mov	r0, #0
    88f8:	eaffffec 	b	88b0 <OSSemQuery+0x1c>

000088fc <OSSemSet>:
    88fc:	e92d4010 	push	{r4, lr}
    8900:	e1a04000 	mov	r4, r0
    8904:	e5d03000 	ldrb	r3, [r0]
    8908:	e24dd008 	sub	sp, sp, #8
    890c:	e3530003 	cmp	r3, #3
    8910:	0a000003 	beq	8924 <OSSemSet+0x28>
    8914:	e3a03001 	mov	r3, #1
    8918:	e5c23000 	strb	r3, [r2]
    891c:	e28dd008 	add	sp, sp, #8
    8920:	e8bd8010 	pop	{r4, pc}
    8924:	e58d1004 	str	r1, [sp, #4]
    8928:	e58d2000 	str	r2, [sp]
    892c:	eb00037f 	bl	9730 <OS_CPU_SR_Save>
    8930:	e59d2000 	ldr	r2, [sp]
    8934:	e3a03000 	mov	r3, #0
    8938:	e5c23000 	strb	r3, [r2]
    893c:	e1d430b8 	ldrh	r3, [r4, #8]
    8940:	e59d1004 	ldr	r1, [sp, #4]
    8944:	e3530000 	cmp	r3, #0
    8948:	1a000004 	bne	8960 <OSSemSet+0x64>
    894c:	e5d4300a 	ldrb	r3, [r4, #10]
    8950:	e3530000 	cmp	r3, #0
    8954:	13a03049 	movne	r3, #73	; 0x49
    8958:	15c23000 	strbne	r3, [r2]
    895c:	1a000000 	bne	8964 <OSSemSet+0x68>
    8960:	e1c410b8 	strh	r1, [r4, #8]
    8964:	e28dd008 	add	sp, sp, #8
    8968:	e8bd4010 	pop	{r4, lr}
    896c:	ea000375 	b	9748 <OS_CPU_SR_Restore>

00008970 <OSTaskChangePrio>:
    8970:	e92d4ff8 	push	{r3, r4, r5, r6, r7, r8, r9, sl, fp, lr}
    8974:	e1a04001 	mov	r4, r1
    8978:	e1a05000 	mov	r5, r0
    897c:	eb00036b 	bl	9730 <OS_CPU_SR_Save>
    8980:	e3003f90 	movw	r3, #3984	; 0xf90
    8984:	e3403001 	movt	r3, #1
    8988:	e7932104 	ldr	r2, [r3, r4, lsl #2]
    898c:	e3520000 	cmp	r2, #0
    8990:	e1a0a000 	mov	sl, r0
    8994:	0a000002 	beq	89a4 <OSTaskChangePrio+0x34>
    8998:	eb00036a 	bl	9748 <OS_CPU_SR_Restore>
    899c:	e3a00028 	mov	r0, #40	; 0x28
    89a0:	e8bd8ff8 	pop	{r3, r4, r5, r6, r7, r8, r9, sl, fp, pc}
    89a4:	e35500ff 	cmp	r5, #255	; 0xff
    89a8:	03002608 	movweq	r2, #1544	; 0x608
    89ac:	03402001 	movteq	r2, #1
    89b0:	05922000 	ldreq	r2, [r2]
    89b4:	05d2502e 	ldrbeq	r5, [r2, #46]	; 0x2e
    89b8:	e793c105 	ldr	ip, [r3, r5, lsl #2]
    89bc:	e3003f90 	movw	r3, #3984	; 0xf90
    89c0:	e3403001 	movt	r3, #1
    89c4:	e35c0000 	cmp	ip, #0
    89c8:	0a000058 	beq	8b30 <OSTaskChangePrio+0x1c0>
    89cc:	e35c0001 	cmp	ip, #1
    89d0:	0a000059 	beq	8b3c <OSTaskChangePrio+0x1cc>
    89d4:	e3a02000 	mov	r2, #0
    89d8:	e7832105 	str	r2, [r3, r5, lsl #2]
    89dc:	e783c104 	str	ip, [r3, r4, lsl #2]
    89e0:	e30035f8 	movw	r3, #1528	; 0x5f8
    89e4:	e5dc7030 	ldrb	r7, [ip, #48]	; 0x30
    89e8:	e3403001 	movt	r3, #1
    89ec:	e5dc8031 	ldrb	r8, [ip, #49]	; 0x31
    89f0:	e3a06001 	mov	r6, #1
    89f4:	e1a0e1a4 	lsr	lr, r4, #3
    89f8:	e2049007 	and	r9, r4, #7
    89fc:	e7d32007 	ldrb	r2, [r3, r7]
    8a00:	e1a05e16 	lsl	r5, r6, lr
    8a04:	e1a06916 	lsl	r6, r6, r9
    8a08:	e5dc0032 	ldrb	r0, [ip, #50]	; 0x32
    8a0c:	e1120008 	tst	r2, r8
    8a10:	e6ef5075 	uxtb	r5, r5
    8a14:	e6ef6076 	uxtb	r6, r6
    8a18:	0a00000b 	beq	8a4c <OSTaskChangePrio+0xdc>
    8a1c:	e1c22008 	bic	r2, r2, r8
    8a20:	e7c32007 	strb	r2, [r3, r7]
    8a24:	e3520000 	cmp	r2, #0
    8a28:	e30025f4 	movw	r2, #1524	; 0x5f4
    8a2c:	e3402001 	movt	r2, #1
    8a30:	e7d3100e 	ldrb	r1, [r3, lr]
    8a34:	e5d2b000 	ldrb	fp, [r2]
    8a38:	01cbb000 	biceq	fp, fp, r0
    8a3c:	e18bb005 	orr	fp, fp, r5
    8a40:	e5c2b000 	strb	fp, [r2]
    8a44:	e1862001 	orr	r2, r6, r1
    8a48:	e7c3200e 	strb	r2, [r3, lr]
    8a4c:	e59c301c 	ldr	r3, [ip, #28]
    8a50:	e3530000 	cmp	r3, #0
    8a54:	0a00000c 	beq	8a8c <OSTaskChangePrio+0x11c>
    8a58:	e0831007 	add	r1, r3, r7
    8a5c:	e5d1200b 	ldrb	r2, [r1, #11]
    8a60:	e1c22008 	bic	r2, r2, r8
    8a64:	e5c1200b 	strb	r2, [r1, #11]
    8a68:	e5d3100a 	ldrb	r1, [r3, #10]
    8a6c:	e3520000 	cmp	r2, #0
    8a70:	e083200e 	add	r2, r3, lr
    8a74:	01c11000 	biceq	r1, r1, r0
    8a78:	e1811005 	orr	r1, r1, r5
    8a7c:	e5c3100a 	strb	r1, [r3, #10]
    8a80:	e5d2300b 	ldrb	r3, [r2, #11]
    8a84:	e1863003 	orr	r3, r6, r3
    8a88:	e5c2300b 	strb	r3, [r2, #11]
    8a8c:	e59c1020 	ldr	r1, [ip, #32]
    8a90:	e3510000 	cmp	r1, #0
    8a94:	0a000015 	beq	8af0 <OSTaskChangePrio+0x180>
    8a98:	e5913000 	ldr	r3, [r1]
    8a9c:	e3530000 	cmp	r3, #0
    8aa0:	0a000012 	beq	8af0 <OSTaskChangePrio+0x180>
    8aa4:	e1e08008 	mvn	r8, r8
    8aa8:	e1e00000 	mvn	r0, r0
    8aac:	e6ef8078 	uxtb	r8, r8
    8ab0:	e083b007 	add	fp, r3, r7
    8ab4:	e5db200b 	ldrb	r2, [fp, #11]
    8ab8:	e0082002 	and	r2, r8, r2
    8abc:	e5cb200b 	strb	r2, [fp, #11]
    8ac0:	e5d3b00a 	ldrb	fp, [r3, #10]
    8ac4:	e3520000 	cmp	r2, #0
    8ac8:	e083200e 	add	r2, r3, lr
    8acc:	0000b00b 	andeq	fp, r0, fp
    8ad0:	e18bb005 	orr	fp, fp, r5
    8ad4:	e5c3b00a 	strb	fp, [r3, #10]
    8ad8:	e5d2300b 	ldrb	r3, [r2, #11]
    8adc:	e1863003 	orr	r3, r6, r3
    8ae0:	e5c2300b 	strb	r3, [r2, #11]
    8ae4:	e5b13004 	ldr	r3, [r1, #4]!
    8ae8:	e3530000 	cmp	r3, #0
    8aec:	1affffef 	bne	8ab0 <OSTaskChangePrio+0x140>
    8af0:	e5cc402e 	strb	r4, [ip, #46]	; 0x2e
    8af4:	e1a0000a 	mov	r0, sl
    8af8:	e5cce030 	strb	lr, [ip, #48]	; 0x30
    8afc:	e5cc902f 	strb	r9, [ip, #47]	; 0x2f
    8b00:	e5cc5032 	strb	r5, [ip, #50]	; 0x32
    8b04:	e5cc6031 	strb	r6, [ip, #49]	; 0x31
    8b08:	eb00030e 	bl	9748 <OS_CPU_SR_Restore>
    8b0c:	e3003556 	movw	r3, #1366	; 0x556
    8b10:	e3403001 	movt	r3, #1
    8b14:	e5d33000 	ldrb	r3, [r3]
    8b18:	e3530001 	cmp	r3, #1
    8b1c:	0a000001 	beq	8b28 <OSTaskChangePrio+0x1b8>
    8b20:	e3a00000 	mov	r0, #0
    8b24:	e8bd8ff8 	pop	{r3, r4, r5, r6, r7, r8, r9, sl, fp, pc}
    8b28:	ebfff832 	bl	6bf8 <OS_Sched>
    8b2c:	eafffffb 	b	8b20 <OSTaskChangePrio+0x1b0>
    8b30:	eb000304 	bl	9748 <OS_CPU_SR_Restore>
    8b34:	e3a00029 	mov	r0, #41	; 0x29
    8b38:	e8bd8ff8 	pop	{r3, r4, r5, r6, r7, r8, r9, sl, fp, pc}
    8b3c:	eb000301 	bl	9748 <OS_CPU_SR_Restore>
    8b40:	e3a00043 	mov	r0, #67	; 0x43
    8b44:	e8bd8ff8 	pop	{r3, r4, r5, r6, r7, r8, r9, sl, fp, pc}

00008b48 <OSTaskCreate>:
    8b48:	e92d45f0 	push	{r4, r5, r6, r7, r8, sl, lr}
    8b4c:	e24dd014 	sub	sp, sp, #20
    8b50:	e1a0a000 	mov	sl, r0
    8b54:	e1a08001 	mov	r8, r1
    8b58:	e1a05002 	mov	r5, r2
    8b5c:	e1a06003 	mov	r6, r3
    8b60:	eb0002f2 	bl	9730 <OS_CPU_SR_Save>
    8b64:	e300c604 	movw	ip, #1540	; 0x604
    8b68:	e340c001 	movt	ip, #1
    8b6c:	e5dcc000 	ldrb	ip, [ip]
    8b70:	e35c0000 	cmp	ip, #0
    8b74:	1a000009 	bne	8ba0 <OSTaskCreate+0x58>
    8b78:	e3004f90 	movw	r4, #3984	; 0xf90
    8b7c:	e3404001 	movt	r4, #1
    8b80:	e7947106 	ldr	r7, [r4, r6, lsl #2]
    8b84:	e3570000 	cmp	r7, #0
    8b88:	0a000007 	beq	8bac <OSTaskCreate+0x64>
    8b8c:	eb0002ed 	bl	9748 <OS_CPU_SR_Restore>
    8b90:	e3a05028 	mov	r5, #40	; 0x28
    8b94:	e1a00005 	mov	r0, r5
    8b98:	e28dd014 	add	sp, sp, #20
    8b9c:	e8bd85f0 	pop	{r4, r5, r6, r7, r8, sl, pc}
    8ba0:	eb0002e8 	bl	9748 <OS_CPU_SR_Restore>
    8ba4:	e3a0503c 	mov	r5, #60	; 0x3c
    8ba8:	eafffff9 	b	8b94 <OSTaskCreate+0x4c>
    8bac:	e3a03001 	mov	r3, #1
    8bb0:	e7843106 	str	r3, [r4, r6, lsl #2]
    8bb4:	eb0002e3 	bl	9748 <OS_CPU_SR_Restore>
    8bb8:	e1a02005 	mov	r2, r5
    8bbc:	e1a01008 	mov	r1, r8
    8bc0:	e1a03007 	mov	r3, r7
    8bc4:	e1a0000a 	mov	r0, sl
    8bc8:	eb0003f4 	bl	9ba0 <OSTaskStkInit>
    8bcc:	e58d7000 	str	r7, [sp]
    8bd0:	e58d7004 	str	r7, [sp, #4]
    8bd4:	e1a02007 	mov	r2, r7
    8bd8:	e58d7008 	str	r7, [sp, #8]
    8bdc:	e1a03007 	mov	r3, r7
    8be0:	e1a01000 	mov	r1, r0
    8be4:	e1a00006 	mov	r0, r6
    8be8:	ebfff93f 	bl	70ec <OS_TCBInit>
    8bec:	e2505000 	subs	r5, r0, #0
    8bf0:	1a000006 	bne	8c10 <OSTaskCreate+0xc8>
    8bf4:	e3003556 	movw	r3, #1366	; 0x556
    8bf8:	e3403001 	movt	r3, #1
    8bfc:	e5d33000 	ldrb	r3, [r3]
    8c00:	e3530001 	cmp	r3, #1
    8c04:	1affffe2 	bne	8b94 <OSTaskCreate+0x4c>
    8c08:	ebfff7fa 	bl	6bf8 <OS_Sched>
    8c0c:	eaffffe0 	b	8b94 <OSTaskCreate+0x4c>
    8c10:	eb0002c6 	bl	9730 <OS_CPU_SR_Save>
    8c14:	e7847106 	str	r7, [r4, r6, lsl #2]
    8c18:	eb0002ca 	bl	9748 <OS_CPU_SR_Restore>
    8c1c:	eaffffdc 	b	8b94 <OSTaskCreate+0x4c>

00008c20 <OSTaskCreateExt>:
    8c20:	e92d47f0 	push	{r4, r5, r6, r7, r8, r9, sl, lr}
    8c24:	e24dd010 	sub	sp, sp, #16
    8c28:	e1a07000 	mov	r7, r0
    8c2c:	e1a08001 	mov	r8, r1
    8c30:	e1a0a002 	mov	sl, r2
    8c34:	e1a06003 	mov	r6, r3
    8c38:	e1dd54b0 	ldrh	r5, [sp, #64]	; 0x40
    8c3c:	eb0002bb 	bl	9730 <OS_CPU_SR_Save>
    8c40:	e300c604 	movw	ip, #1540	; 0x604
    8c44:	e340c001 	movt	ip, #1
    8c48:	e5dcc000 	ldrb	ip, [ip]
    8c4c:	e35c0000 	cmp	ip, #0
    8c50:	1a000009 	bne	8c7c <OSTaskCreateExt+0x5c>
    8c54:	e3004f90 	movw	r4, #3984	; 0xf90
    8c58:	e3404001 	movt	r4, #1
    8c5c:	e7949106 	ldr	r9, [r4, r6, lsl #2]
    8c60:	e3590000 	cmp	r9, #0
    8c64:	0a000007 	beq	8c88 <OSTaskCreateExt+0x68>
    8c68:	eb0002b6 	bl	9748 <OS_CPU_SR_Restore>
    8c6c:	e3a05028 	mov	r5, #40	; 0x28
    8c70:	e1a00005 	mov	r0, r5
    8c74:	e28dd010 	add	sp, sp, #16
    8c78:	e8bd87f0 	pop	{r4, r5, r6, r7, r8, r9, sl, pc}
    8c7c:	eb0002b1 	bl	9748 <OS_CPU_SR_Restore>
    8c80:	e3a0503c 	mov	r5, #60	; 0x3c
    8c84:	eafffff9 	b	8c70 <OSTaskCreateExt+0x50>
    8c88:	e3a03001 	mov	r3, #1
    8c8c:	e7843106 	str	r3, [r4, r6, lsl #2]
    8c90:	eb0002ac 	bl	9748 <OS_CPU_SR_Restore>
    8c94:	e2053003 	and	r3, r5, #3
    8c98:	e3530003 	cmp	r3, #3
    8c9c:	1a000006 	bne	8cbc <OSTaskCreateExt+0x9c>
    8ca0:	e59d3038 	ldr	r3, [sp, #56]	; 0x38
    8ca4:	e3530000 	cmp	r3, #0
    8ca8:	0a000003 	beq	8cbc <OSTaskCreateExt+0x9c>
    8cac:	e59d2034 	ldr	r2, [sp, #52]	; 0x34
    8cb0:	e2533001 	subs	r3, r3, #1
    8cb4:	e4829004 	str	r9, [r2], #4
    8cb8:	1afffffc 	bne	8cb0 <OSTaskCreateExt+0x90>
    8cbc:	e1a03005 	mov	r3, r5
    8cc0:	e1a01008 	mov	r1, r8
    8cc4:	e1a0200a 	mov	r2, sl
    8cc8:	e1a00007 	mov	r0, r7
    8ccc:	eb0003b3 	bl	9ba0 <OSTaskStkInit>
    8cd0:	e59d3038 	ldr	r3, [sp, #56]	; 0x38
    8cd4:	e59d2034 	ldr	r2, [sp, #52]	; 0x34
    8cd8:	e58d3000 	str	r3, [sp]
    8cdc:	e59d303c 	ldr	r3, [sp, #60]	; 0x3c
    8ce0:	e98d0028 	stmib	sp, {r3, r5}
    8ce4:	e1dd33b0 	ldrh	r3, [sp, #48]	; 0x30
    8ce8:	e1a01000 	mov	r1, r0
    8cec:	e1a00006 	mov	r0, r6
    8cf0:	ebfff8fd 	bl	70ec <OS_TCBInit>
    8cf4:	e2505000 	subs	r5, r0, #0
    8cf8:	1a000006 	bne	8d18 <OSTaskCreateExt+0xf8>
    8cfc:	e3003556 	movw	r3, #1366	; 0x556
    8d00:	e3403001 	movt	r3, #1
    8d04:	e5d33000 	ldrb	r3, [r3]
    8d08:	e3530001 	cmp	r3, #1
    8d0c:	1affffd7 	bne	8c70 <OSTaskCreateExt+0x50>
    8d10:	ebfff7b8 	bl	6bf8 <OS_Sched>
    8d14:	eaffffd5 	b	8c70 <OSTaskCreateExt+0x50>
    8d18:	eb000284 	bl	9730 <OS_CPU_SR_Save>
    8d1c:	e3a03000 	mov	r3, #0
    8d20:	e7843106 	str	r3, [r4, r6, lsl #2]
    8d24:	eb000287 	bl	9748 <OS_CPU_SR_Restore>
    8d28:	eaffffd0 	b	8c70 <OSTaskCreateExt+0x50>

00008d2c <OSTaskDel>:
    8d2c:	e3003604 	movw	r3, #1540	; 0x604
    8d30:	e3403001 	movt	r3, #1
    8d34:	e92d41f0 	push	{r4, r5, r6, r7, r8, lr}
    8d38:	e1a04000 	mov	r4, r0
    8d3c:	e5d33000 	ldrb	r3, [r3]
    8d40:	e3530000 	cmp	r3, #0
    8d44:	0a000001 	beq	8d50 <OSTaskDel+0x24>
    8d48:	e3a00040 	mov	r0, #64	; 0x40
    8d4c:	e8bd81f0 	pop	{r4, r5, r6, r7, r8, pc}
    8d50:	e350003f 	cmp	r0, #63	; 0x3f
    8d54:	1a000001 	bne	8d60 <OSTaskDel+0x34>
    8d58:	e3a0003e 	mov	r0, #62	; 0x3e
    8d5c:	e8bd81f0 	pop	{r4, r5, r6, r7, r8, pc}
    8d60:	eb000272 	bl	9730 <OS_CPU_SR_Save>
    8d64:	e35400ff 	cmp	r4, #255	; 0xff
    8d68:	e3006f90 	movw	r6, #3984	; 0xf90
    8d6c:	e3406001 	movt	r6, #1
    8d70:	03003608 	movweq	r3, #1544	; 0x608
    8d74:	03403001 	movteq	r3, #1
    8d78:	e1a08000 	mov	r8, r0
    8d7c:	05933000 	ldreq	r3, [r3]
    8d80:	05d3402e 	ldrbeq	r4, [r3, #46]	; 0x2e
    8d84:	e7965104 	ldr	r5, [r6, r4, lsl #2]
    8d88:	e3550000 	cmp	r5, #0
    8d8c:	0a000058 	beq	8ef4 <OSTaskDel+0x1c8>
    8d90:	e3550001 	cmp	r5, #1
    8d94:	0a000059 	beq	8f00 <OSTaskDel+0x1d4>
    8d98:	e5d51030 	ldrb	r1, [r5, #48]	; 0x30
    8d9c:	e30035f8 	movw	r3, #1528	; 0x5f8
    8da0:	e3403001 	movt	r3, #1
    8da4:	e5d50031 	ldrb	r0, [r5, #49]	; 0x31
    8da8:	e7d32001 	ldrb	r2, [r3, r1]
    8dac:	e1c22000 	bic	r2, r2, r0
    8db0:	e7c32001 	strb	r2, [r3, r1]
    8db4:	e3520000 	cmp	r2, #0
    8db8:	0a000043 	beq	8ecc <OSTaskDel+0x1a0>
    8dbc:	e595101c 	ldr	r1, [r5, #28]
    8dc0:	e3510000 	cmp	r1, #0
    8dc4:	0a000001 	beq	8dd0 <OSTaskDel+0xa4>
    8dc8:	e1a00005 	mov	r0, r5
    8dcc:	ebfff70f 	bl	6a10 <OS_EventTaskRemove>
    8dd0:	e5951020 	ldr	r1, [r5, #32]
    8dd4:	e3510000 	cmp	r1, #0
    8dd8:	0a000001 	beq	8de4 <OSTaskDel+0xb8>
    8ddc:	e1a00005 	mov	r0, r5
    8de0:	ebfff716 	bl	6a40 <OS_EventTaskRemoveMulti>
    8de4:	e3007554 	movw	r7, #1364	; 0x554
    8de8:	e3407001 	movt	r7, #1
    8dec:	e3a03000 	mov	r3, #0
    8df0:	e1a00008 	mov	r0, r8
    8df4:	e5d72000 	ldrb	r2, [r7]
    8df8:	e5853028 	str	r3, [r5, #40]	; 0x28
    8dfc:	e35200ff 	cmp	r2, #255	; 0xff
    8e00:	e5c5302c 	strb	r3, [r5, #44]	; 0x2c
    8e04:	e5c5302d 	strb	r3, [r5, #45]	; 0x2d
    8e08:	12822001 	addne	r2, r2, #1
    8e0c:	15c72000 	strbne	r2, [r7]
    8e10:	eb00024c 	bl	9748 <OS_CPU_SR_Restore>
    8e14:	ebfff6b4 	bl	68ec <OS_Dummy>
    8e18:	eb000244 	bl	9730 <OS_CPU_SR_Save>
    8e1c:	e5d72000 	ldrb	r2, [r7]
    8e20:	e3003554 	movw	r3, #1364	; 0x554
    8e24:	e3403001 	movt	r3, #1
    8e28:	e3520000 	cmp	r2, #0
    8e2c:	12422001 	subne	r2, r2, #1
    8e30:	15c32000 	strbne	r2, [r3]
    8e34:	e1a08000 	mov	r8, r0
    8e38:	e1a00005 	mov	r0, r5
    8e3c:	eb000353 	bl	9b90 <OSTaskDelHook>
    8e40:	e3a02000 	mov	r2, #0
    8e44:	e30035e8 	movw	r3, #1512	; 0x5e8
    8e48:	e7862104 	str	r2, [r6, r4, lsl #2]
    8e4c:	e3403001 	movt	r3, #1
    8e50:	e5952018 	ldr	r2, [r5, #24]
    8e54:	e1a00008 	mov	r0, r8
    8e58:	e3520000 	cmp	r2, #0
    8e5c:	e5d31000 	ldrb	r1, [r3]
    8e60:	e2411001 	sub	r1, r1, #1
    8e64:	e5c31000 	strb	r1, [r3]
    8e68:	15953014 	ldrne	r3, [r5, #20]
    8e6c:	03003560 	movweq	r3, #1376	; 0x560
    8e70:	05951014 	ldreq	r1, [r5, #20]
    8e74:	03403001 	movteq	r3, #1
    8e78:	15823014 	strne	r3, [r2, #20]
    8e7c:	15953014 	ldrne	r3, [r5, #20]
    8e80:	05831000 	streq	r1, [r3]
    8e84:	05812018 	streq	r2, [r1, #24]
    8e88:	15832018 	strne	r2, [r3, #24]
    8e8c:	e30035e4 	movw	r3, #1508	; 0x5e4
    8e90:	e3403001 	movt	r3, #1
    8e94:	e30d2e78 	movw	r2, #56952	; 0xde78
    8e98:	e3402000 	movt	r2, #0
    8e9c:	e5852048 	str	r2, [r5, #72]	; 0x48
    8ea0:	e5931000 	ldr	r1, [r3]
    8ea4:	e5835000 	str	r5, [r3]
    8ea8:	e5851014 	str	r1, [r5, #20]
    8eac:	eb000225 	bl	9748 <OS_CPU_SR_Restore>
    8eb0:	e3003556 	movw	r3, #1366	; 0x556
    8eb4:	e3403001 	movt	r3, #1
    8eb8:	e5d33000 	ldrb	r3, [r3]
    8ebc:	e3530001 	cmp	r3, #1
    8ec0:	0a000008 	beq	8ee8 <OSTaskDel+0x1bc>
    8ec4:	e3a00000 	mov	r0, #0
    8ec8:	e8bd81f0 	pop	{r4, r5, r6, r7, r8, pc}
    8ecc:	e30035f4 	movw	r3, #1524	; 0x5f4
    8ed0:	e3403001 	movt	r3, #1
    8ed4:	e5d51032 	ldrb	r1, [r5, #50]	; 0x32
    8ed8:	e5d32000 	ldrb	r2, [r3]
    8edc:	e1c22001 	bic	r2, r2, r1
    8ee0:	e5c32000 	strb	r2, [r3]
    8ee4:	eaffffb4 	b	8dbc <OSTaskDel+0x90>
    8ee8:	ebfff742 	bl	6bf8 <OS_Sched>
    8eec:	e3a00000 	mov	r0, #0
    8ef0:	e8bd81f0 	pop	{r4, r5, r6, r7, r8, pc}
    8ef4:	eb000213 	bl	9748 <OS_CPU_SR_Restore>
    8ef8:	e3a00043 	mov	r0, #67	; 0x43
    8efc:	e8bd81f0 	pop	{r4, r5, r6, r7, r8, pc}
    8f00:	eb000210 	bl	9748 <OS_CPU_SR_Restore>
    8f04:	e3a0003d 	mov	r0, #61	; 0x3d
    8f08:	e8bd81f0 	pop	{r4, r5, r6, r7, r8, pc}

00008f0c <OSTaskDelReq>:
    8f0c:	e350003f 	cmp	r0, #63	; 0x3f
    8f10:	e92d4010 	push	{r4, lr}
    8f14:	e1a04000 	mov	r4, r0
    8f18:	03a0403e 	moveq	r4, #62	; 0x3e
    8f1c:	0a00000d 	beq	8f58 <OSTaskDelReq+0x4c>
    8f20:	e35400ff 	cmp	r4, #255	; 0xff
    8f24:	0a00000d 	beq	8f60 <OSTaskDelReq+0x54>
    8f28:	eb000200 	bl	9730 <OS_CPU_SR_Save>
    8f2c:	e3003f90 	movw	r3, #3984	; 0xf90
    8f30:	e3403001 	movt	r3, #1
    8f34:	e7933104 	ldr	r3, [r3, r4, lsl #2]
    8f38:	e3530000 	cmp	r3, #0
    8f3c:	0a000013 	beq	8f90 <OSTaskDelReq+0x84>
    8f40:	e3530001 	cmp	r3, #1
    8f44:	0a00000d 	beq	8f80 <OSTaskDelReq+0x74>
    8f48:	e3a0203f 	mov	r2, #63	; 0x3f
    8f4c:	e5c32033 	strb	r2, [r3, #51]	; 0x33
    8f50:	eb0001fc 	bl	9748 <OS_CPU_SR_Restore>
    8f54:	e3a04000 	mov	r4, #0
    8f58:	e1a00004 	mov	r0, r4
    8f5c:	e8bd8010 	pop	{r4, pc}
    8f60:	eb0001f2 	bl	9730 <OS_CPU_SR_Save>
    8f64:	e3003608 	movw	r3, #1544	; 0x608
    8f68:	e3403001 	movt	r3, #1
    8f6c:	e5933000 	ldr	r3, [r3]
    8f70:	e5d34033 	ldrb	r4, [r3, #51]	; 0x33
    8f74:	eb0001f3 	bl	9748 <OS_CPU_SR_Restore>
    8f78:	e1a00004 	mov	r0, r4
    8f7c:	e8bd8010 	pop	{r4, pc}
    8f80:	e3a0403d 	mov	r4, #61	; 0x3d
    8f84:	eb0001ef 	bl	9748 <OS_CPU_SR_Restore>
    8f88:	e1a00004 	mov	r0, r4
    8f8c:	e8bd8010 	pop	{r4, pc}
    8f90:	eb0001ec 	bl	9748 <OS_CPU_SR_Restore>
    8f94:	e3a04043 	mov	r4, #67	; 0x43
    8f98:	eaffffee 	b	8f58 <OSTaskDelReq+0x4c>

00008f9c <OSTaskNameGet>:
    8f9c:	e92d40f8 	push	{r3, r4, r5, r6, r7, lr}
    8fa0:	e3003604 	movw	r3, #1540	; 0x604
    8fa4:	e3403001 	movt	r3, #1
    8fa8:	e1a04000 	mov	r4, r0
    8fac:	e1a06001 	mov	r6, r1
    8fb0:	e1a05002 	mov	r5, r2
    8fb4:	e5d33000 	ldrb	r3, [r3]
    8fb8:	e3530000 	cmp	r3, #0
    8fbc:	0a000004 	beq	8fd4 <OSTaskNameGet+0x38>
    8fc0:	e3a04000 	mov	r4, #0
    8fc4:	e3a03011 	mov	r3, #17
    8fc8:	e5c23000 	strb	r3, [r2]
    8fcc:	e1a00004 	mov	r0, r4
    8fd0:	e8bd80f8 	pop	{r3, r4, r5, r6, r7, pc}
    8fd4:	eb0001d5 	bl	9730 <OS_CPU_SR_Save>
    8fd8:	e35400ff 	cmp	r4, #255	; 0xff
    8fdc:	03003608 	movweq	r3, #1544	; 0x608
    8fe0:	03403001 	movteq	r3, #1
    8fe4:	e1a07000 	mov	r7, r0
    8fe8:	05933000 	ldreq	r3, [r3]
    8fec:	05d3402e 	ldrbeq	r4, [r3, #46]	; 0x2e
    8ff0:	e3003f90 	movw	r3, #3984	; 0xf90
    8ff4:	e3403001 	movt	r3, #1
    8ff8:	e7934104 	ldr	r4, [r3, r4, lsl #2]
    8ffc:	e3540000 	cmp	r4, #0
    9000:	0a000010 	beq	9048 <OSTaskNameGet+0xac>
    9004:	e3540001 	cmp	r4, #1
    9008:	0a000009 	beq	9034 <OSTaskNameGet+0x98>
    900c:	e5940048 	ldr	r0, [r4, #72]	; 0x48
    9010:	e5860000 	str	r0, [r6]
    9014:	ebfff80d 	bl	7050 <OS_StrLen>
    9018:	e1a04000 	mov	r4, r0
    901c:	e1a00007 	mov	r0, r7
    9020:	eb0001c8 	bl	9748 <OS_CPU_SR_Restore>
    9024:	e3a03000 	mov	r3, #0
    9028:	e1a00004 	mov	r0, r4
    902c:	e5c53000 	strb	r3, [r5]
    9030:	e8bd80f8 	pop	{r3, r4, r5, r6, r7, pc}
    9034:	eb0001c3 	bl	9748 <OS_CPU_SR_Restore>
    9038:	e3a04000 	mov	r4, #0
    903c:	e3a03043 	mov	r3, #67	; 0x43
    9040:	e5c53000 	strb	r3, [r5]
    9044:	eaffffe0 	b	8fcc <OSTaskNameGet+0x30>
    9048:	eb0001be 	bl	9748 <OS_CPU_SR_Restore>
    904c:	e3a03043 	mov	r3, #67	; 0x43
    9050:	e5c53000 	strb	r3, [r5]
    9054:	eaffffdc 	b	8fcc <OSTaskNameGet+0x30>

00009058 <OSTaskNameSet>:
    9058:	e3003604 	movw	r3, #1540	; 0x604
    905c:	e3403001 	movt	r3, #1
    9060:	e92d4070 	push	{r4, r5, r6, lr}
    9064:	e1a05000 	mov	r5, r0
    9068:	e5d33000 	ldrb	r3, [r3]
    906c:	e1a06001 	mov	r6, r1
    9070:	e1a04002 	mov	r4, r2
    9074:	e3530000 	cmp	r3, #0
    9078:	13a03012 	movne	r3, #18
    907c:	15c23000 	strbne	r3, [r2]
    9080:	18bd8070 	popne	{r4, r5, r6, pc}
    9084:	eb0001a9 	bl	9730 <OS_CPU_SR_Save>
    9088:	e35500ff 	cmp	r5, #255	; 0xff
    908c:	03003608 	movweq	r3, #1544	; 0x608
    9090:	03403001 	movteq	r3, #1
    9094:	05933000 	ldreq	r3, [r3]
    9098:	05d3502e 	ldrbeq	r5, [r3, #46]	; 0x2e
    909c:	e3003f90 	movw	r3, #3984	; 0xf90
    90a0:	e3403001 	movt	r3, #1
    90a4:	e7933105 	ldr	r3, [r3, r5, lsl #2]
    90a8:	e3530000 	cmp	r3, #0
    90ac:	0a000006 	beq	90cc <OSTaskNameSet+0x74>
    90b0:	e3530001 	cmp	r3, #1
    90b4:	0a000004 	beq	90cc <OSTaskNameSet+0x74>
    90b8:	e5836048 	str	r6, [r3, #72]	; 0x48
    90bc:	eb0001a1 	bl	9748 <OS_CPU_SR_Restore>
    90c0:	e3a03000 	mov	r3, #0
    90c4:	e5c43000 	strb	r3, [r4]
    90c8:	e8bd8070 	pop	{r4, r5, r6, pc}
    90cc:	eb00019d 	bl	9748 <OS_CPU_SR_Restore>
    90d0:	e3a03043 	mov	r3, #67	; 0x43
    90d4:	e5c43000 	strb	r3, [r4]
    90d8:	e8bd8070 	pop	{r4, r5, r6, pc}

000090dc <OSTaskResume>:
    90dc:	e92d4070 	push	{r4, r5, r6, lr}
    90e0:	e1a04000 	mov	r4, r0
    90e4:	eb000191 	bl	9730 <OS_CPU_SR_Save>
    90e8:	e3003f90 	movw	r3, #3984	; 0xf90
    90ec:	e3403001 	movt	r3, #1
    90f0:	e7933104 	ldr	r3, [r3, r4, lsl #2]
    90f4:	e3530000 	cmp	r3, #0
    90f8:	0a000028 	beq	91a0 <OSTaskResume+0xc4>
    90fc:	e3530001 	cmp	r3, #1
    9100:	0a000029 	beq	91ac <OSTaskResume+0xd0>
    9104:	e5d3202c 	ldrb	r2, [r3, #44]	; 0x2c
    9108:	e2021008 	and	r1, r2, #8
    910c:	e6ef1071 	uxtb	r1, r1
    9110:	e3510000 	cmp	r1, #0
    9114:	0a00001b 	beq	9188 <OSTaskResume+0xac>
    9118:	e20240f7 	and	r4, r2, #247	; 0xf7
    911c:	e5c3402c 	strb	r4, [r3, #44]	; 0x2c
    9120:	e3540000 	cmp	r4, #0
    9124:	1a00001a 	bne	9194 <OSTaskResume+0xb8>
    9128:	e5935028 	ldr	r5, [r3, #40]	; 0x28
    912c:	e3550000 	cmp	r5, #0
    9130:	1a000017 	bne	9194 <OSTaskResume+0xb8>
    9134:	e5d3c030 	ldrb	ip, [r3, #48]	; 0x30
    9138:	e30015f4 	movw	r1, #1524	; 0x5f4
    913c:	e30025f8 	movw	r2, #1528	; 0x5f8
    9140:	e3401001 	movt	r1, #1
    9144:	e3402001 	movt	r2, #1
    9148:	e5d34032 	ldrb	r4, [r3, #50]	; 0x32
    914c:	e5d16000 	ldrb	r6, [r1]
    9150:	e7d2e00c 	ldrb	lr, [r2, ip]
    9154:	e5d33031 	ldrb	r3, [r3, #49]	; 0x31
    9158:	e1864004 	orr	r4, r6, r4
    915c:	e5c14000 	strb	r4, [r1]
    9160:	e18e3003 	orr	r3, lr, r3
    9164:	e7c2300c 	strb	r3, [r2, ip]
    9168:	eb000176 	bl	9748 <OS_CPU_SR_Restore>
    916c:	e3003556 	movw	r3, #1366	; 0x556
    9170:	e3403001 	movt	r3, #1
    9174:	e5d33000 	ldrb	r3, [r3]
    9178:	e3530001 	cmp	r3, #1
    917c:	0a00000d 	beq	91b8 <OSTaskResume+0xdc>
    9180:	e3a00000 	mov	r0, #0
    9184:	e8bd8070 	pop	{r4, r5, r6, pc}
    9188:	eb00016e 	bl	9748 <OS_CPU_SR_Restore>
    918c:	e3a00044 	mov	r0, #68	; 0x44
    9190:	e8bd8070 	pop	{r4, r5, r6, pc}
    9194:	eb00016b 	bl	9748 <OS_CPU_SR_Restore>
    9198:	e3a00000 	mov	r0, #0
    919c:	e8bd8070 	pop	{r4, r5, r6, pc}
    91a0:	eb000168 	bl	9748 <OS_CPU_SR_Restore>
    91a4:	e3a00046 	mov	r0, #70	; 0x46
    91a8:	e8bd8070 	pop	{r4, r5, r6, pc}
    91ac:	eb000165 	bl	9748 <OS_CPU_SR_Restore>
    91b0:	e3a00043 	mov	r0, #67	; 0x43
    91b4:	e8bd8070 	pop	{r4, r5, r6, pc}
    91b8:	ebfff68e 	bl	6bf8 <OS_Sched>
    91bc:	e1a00005 	mov	r0, r5
    91c0:	e8bd8070 	pop	{r4, r5, r6, pc}

000091c4 <OSTaskStkChk>:
    91c4:	e3a03000 	mov	r3, #0
    91c8:	e5813000 	str	r3, [r1]
    91cc:	e5813004 	str	r3, [r1, #4]
    91d0:	e92d4070 	push	{r4, r5, r6, lr}
    91d4:	e1a05000 	mov	r5, r0
    91d8:	e1a04001 	mov	r4, r1
    91dc:	eb000153 	bl	9730 <OS_CPU_SR_Save>
    91e0:	e35500ff 	cmp	r5, #255	; 0xff
    91e4:	03003608 	movweq	r3, #1544	; 0x608
    91e8:	03403001 	movteq	r3, #1
    91ec:	05933000 	ldreq	r3, [r3]
    91f0:	05d3502e 	ldrbeq	r5, [r3, #46]	; 0x2e
    91f4:	e3003f90 	movw	r3, #3984	; 0xf90
    91f8:	e3403001 	movt	r3, #1
    91fc:	e7933105 	ldr	r3, [r3, r5, lsl #2]
    9200:	e3530000 	cmp	r3, #0
    9204:	0a000016 	beq	9264 <OSTaskStkChk+0xa0>
    9208:	e3530001 	cmp	r3, #1
    920c:	0a000014 	beq	9264 <OSTaskStkChk+0xa0>
    9210:	e1d321b0 	ldrh	r2, [r3, #16]
    9214:	e3120001 	tst	r2, #1
    9218:	1a000002 	bne	9228 <OSTaskStkChk+0x64>
    921c:	eb000149 	bl	9748 <OS_CPU_SR_Restore>
    9220:	e3a00045 	mov	r0, #69	; 0x45
    9224:	e8bd8070 	pop	{r4, r5, r6, pc}
    9228:	e5935008 	ldr	r5, [r3, #8]
    922c:	e593600c 	ldr	r6, [r3, #12]
    9230:	eb000144 	bl	9748 <OS_CPU_SR_Restore>
    9234:	e5953000 	ldr	r3, [r5]
    9238:	e3530000 	cmp	r3, #0
    923c:	1a00000b 	bne	9270 <OSTaskStkChk+0xac>
    9240:	e1a02005 	mov	r2, r5
    9244:	e5b20004 	ldr	r0, [r2, #4]!
    9248:	e2833001 	add	r3, r3, #1
    924c:	e3500000 	cmp	r0, #0
    9250:	0afffffb 	beq	9244 <OSTaskStkChk+0x80>
    9254:	e0636006 	rsb	r6, r3, r6
    9258:	e3a00000 	mov	r0, #0
    925c:	e8840048 	stm	r4, {r3, r6}
    9260:	e8bd8070 	pop	{r4, r5, r6, pc}
    9264:	eb000137 	bl	9748 <OS_CPU_SR_Restore>
    9268:	e3a00043 	mov	r0, #67	; 0x43
    926c:	e8bd8070 	pop	{r4, r5, r6, pc}
    9270:	e3a03000 	mov	r3, #0
    9274:	eafffff6 	b	9254 <OSTaskStkChk+0x90>

00009278 <OSTaskSuspend>:
    9278:	e92d4038 	push	{r3, r4, r5, lr}
    927c:	e1a04000 	mov	r4, r0
    9280:	eb00012a 	bl	9730 <OS_CPU_SR_Save>
    9284:	e35400ff 	cmp	r4, #255	; 0xff
    9288:	e3003608 	movw	r3, #1544	; 0x608
    928c:	e3403001 	movt	r3, #1
    9290:	0a000023 	beq	9324 <OSTaskSuspend+0xac>
    9294:	e5933000 	ldr	r3, [r3]
    9298:	e5d3502e 	ldrb	r5, [r3, #46]	; 0x2e
    929c:	e0553004 	subs	r3, r5, r4
    92a0:	e2735000 	rsbs	r5, r3, #0
    92a4:	e0b55003 	adcs	r5, r5, r3
    92a8:	e3003f90 	movw	r3, #3984	; 0xf90
    92ac:	e3403001 	movt	r3, #1
    92b0:	e7933104 	ldr	r3, [r3, r4, lsl #2]
    92b4:	e3530000 	cmp	r3, #0
    92b8:	0a000020 	beq	9340 <OSTaskSuspend+0xc8>
    92bc:	e3530001 	cmp	r3, #1
    92c0:	0a000021 	beq	934c <OSTaskSuspend+0xd4>
    92c4:	e5d3c030 	ldrb	ip, [r3, #48]	; 0x30
    92c8:	e30025f8 	movw	r2, #1528	; 0x5f8
    92cc:	e3402001 	movt	r2, #1
    92d0:	e5d3e031 	ldrb	lr, [r3, #49]	; 0x31
    92d4:	e7d2100c 	ldrb	r1, [r2, ip]
    92d8:	e1c1100e 	bic	r1, r1, lr
    92dc:	e7c2100c 	strb	r1, [r2, ip]
    92e0:	e3510000 	cmp	r1, #0
    92e4:	0a000007 	beq	9308 <OSTaskSuspend+0x90>
    92e8:	e5d3202c 	ldrb	r2, [r3, #44]	; 0x2c
    92ec:	e3822008 	orr	r2, r2, #8
    92f0:	e5c3202c 	strb	r2, [r3, #44]	; 0x2c
    92f4:	eb000113 	bl	9748 <OS_CPU_SR_Restore>
    92f8:	e3550001 	cmp	r5, #1
    92fc:	0a00000c 	beq	9334 <OSTaskSuspend+0xbc>
    9300:	e3a00000 	mov	r0, #0
    9304:	e8bd8038 	pop	{r3, r4, r5, pc}
    9308:	e30025f4 	movw	r2, #1524	; 0x5f4
    930c:	e3402001 	movt	r2, #1
    9310:	e5d3c032 	ldrb	ip, [r3, #50]	; 0x32
    9314:	e5d21000 	ldrb	r1, [r2]
    9318:	e1c1100c 	bic	r1, r1, ip
    931c:	e5c21000 	strb	r1, [r2]
    9320:	eafffff0 	b	92e8 <OSTaskSuspend+0x70>
    9324:	e5933000 	ldr	r3, [r3]
    9328:	e3a05001 	mov	r5, #1
    932c:	e5d3402e 	ldrb	r4, [r3, #46]	; 0x2e
    9330:	eaffffdc 	b	92a8 <OSTaskSuspend+0x30>
    9334:	ebfff62f 	bl	6bf8 <OS_Sched>
    9338:	e3a00000 	mov	r0, #0
    933c:	e8bd8038 	pop	{r3, r4, r5, pc}
    9340:	eb000100 	bl	9748 <OS_CPU_SR_Restore>
    9344:	e3a00048 	mov	r0, #72	; 0x48
    9348:	e8bd8038 	pop	{r3, r4, r5, pc}
    934c:	eb0000fd 	bl	9748 <OS_CPU_SR_Restore>
    9350:	e3a00043 	mov	r0, #67	; 0x43
    9354:	e8bd8038 	pop	{r3, r4, r5, pc}

00009358 <OSTaskQuery>:
    9358:	e92d4070 	push	{r4, r5, r6, lr}
    935c:	e1a04000 	mov	r4, r0
    9360:	e1a06001 	mov	r6, r1
    9364:	eb0000f1 	bl	9730 <OS_CPU_SR_Save>
    9368:	e35400ff 	cmp	r4, #255	; 0xff
    936c:	03003608 	movweq	r3, #1544	; 0x608
    9370:	03403001 	movteq	r3, #1
    9374:	e1a05000 	mov	r5, r0
    9378:	05933000 	ldreq	r3, [r3]
    937c:	05d3402e 	ldrbeq	r4, [r3, #46]	; 0x2e
    9380:	e3003f90 	movw	r3, #3984	; 0xf90
    9384:	e3403001 	movt	r3, #1
    9388:	e7931104 	ldr	r1, [r3, r4, lsl #2]
    938c:	e3510000 	cmp	r1, #0
    9390:	0a00000b 	beq	93c4 <OSTaskQuery+0x6c>
    9394:	e3510001 	cmp	r1, #1
    9398:	0a000006 	beq	93b8 <OSTaskQuery+0x60>
    939c:	e3a02050 	mov	r2, #80	; 0x50
    93a0:	e1a00006 	mov	r0, r6
    93a4:	ebfff609 	bl	6bd0 <OS_MemCopy>
    93a8:	e1a00005 	mov	r0, r5
    93ac:	eb0000e5 	bl	9748 <OS_CPU_SR_Restore>
    93b0:	e3a00000 	mov	r0, #0
    93b4:	e8bd8070 	pop	{r4, r5, r6, pc}
    93b8:	eb0000e2 	bl	9748 <OS_CPU_SR_Restore>
    93bc:	e3a00043 	mov	r0, #67	; 0x43
    93c0:	e8bd8070 	pop	{r4, r5, r6, pc}
    93c4:	eb0000df 	bl	9748 <OS_CPU_SR_Restore>
    93c8:	e3a00029 	mov	r0, #41	; 0x29
    93cc:	e8bd8070 	pop	{r4, r5, r6, pc}

000093d0 <OSTaskRegGet>:
    93d0:	e92d4070 	push	{r4, r5, r6, lr}
    93d4:	e1a04000 	mov	r4, r0
    93d8:	e1a06001 	mov	r6, r1
    93dc:	e1a05002 	mov	r5, r2
    93e0:	eb0000d2 	bl	9730 <OS_CPU_SR_Save>
    93e4:	e35400ff 	cmp	r4, #255	; 0xff
    93e8:	03003608 	movweq	r3, #1544	; 0x608
    93ec:	13003f90 	movwne	r3, #3984	; 0xf90
    93f0:	03403001 	movteq	r3, #1
    93f4:	13403001 	movtne	r3, #1
    93f8:	05933000 	ldreq	r3, [r3]
    93fc:	17933104 	ldrne	r3, [r3, r4, lsl #2]
    9400:	e0836106 	add	r6, r3, r6, lsl #2
    9404:	e596404c 	ldr	r4, [r6, #76]	; 0x4c
    9408:	eb0000ce 	bl	9748 <OS_CPU_SR_Restore>
    940c:	e3a03000 	mov	r3, #0
    9410:	e5c53000 	strb	r3, [r5]
    9414:	e1a00004 	mov	r0, r4
    9418:	e8bd8070 	pop	{r4, r5, r6, pc}

0000941c <OSTaskRegGetID>:
    941c:	e92d4038 	push	{r3, r4, r5, lr}
    9420:	e1a05000 	mov	r5, r0
    9424:	eb0000c1 	bl	9730 <OS_CPU_SR_Save>
    9428:	e3003555 	movw	r3, #1365	; 0x555
    942c:	e3403001 	movt	r3, #1
    9430:	e5d34000 	ldrb	r4, [r3]
    9434:	e3540000 	cmp	r4, #0
    9438:	1a000005 	bne	9454 <OSTaskRegGetID+0x38>
    943c:	e3a02001 	mov	r2, #1
    9440:	e5c32000 	strb	r2, [r3]
    9444:	eb0000bf 	bl	9748 <OS_CPU_SR_Restore>
    9448:	e5c54000 	strb	r4, [r5]
    944c:	e1a00004 	mov	r0, r4
    9450:	e8bd8038 	pop	{r3, r4, r5, pc}
    9454:	e3e03069 	mvn	r3, #105	; 0x69
    9458:	e3a04001 	mov	r4, #1
    945c:	e5c53000 	strb	r3, [r5]
    9460:	eb0000b8 	bl	9748 <OS_CPU_SR_Restore>
    9464:	e1a00004 	mov	r0, r4
    9468:	e8bd8038 	pop	{r3, r4, r5, pc}

0000946c <OSTaskRegSet>:
    946c:	e92d40f8 	push	{r3, r4, r5, r6, r7, lr}
    9470:	e1a05003 	mov	r5, r3
    9474:	e1a04000 	mov	r4, r0
    9478:	e1a06001 	mov	r6, r1
    947c:	e1a07002 	mov	r7, r2
    9480:	eb0000aa 	bl	9730 <OS_CPU_SR_Save>
    9484:	e35400ff 	cmp	r4, #255	; 0xff
    9488:	03003608 	movweq	r3, #1544	; 0x608
    948c:	1300cf90 	movwne	ip, #3984	; 0xf90
    9490:	03403001 	movteq	r3, #1
    9494:	1340c001 	movtne	ip, #1
    9498:	05933000 	ldreq	r3, [r3]
    949c:	179c3104 	ldrne	r3, [ip, r4, lsl #2]
    94a0:	e0836106 	add	r6, r3, r6, lsl #2
    94a4:	e586704c 	str	r7, [r6, #76]	; 0x4c
    94a8:	eb0000a6 	bl	9748 <OS_CPU_SR_Restore>
    94ac:	e3a03000 	mov	r3, #0
    94b0:	e5c53000 	strb	r3, [r5]
    94b4:	e8bd80f8 	pop	{r3, r4, r5, r6, r7, pc}

000094b8 <OS_TaskReturn>:
    94b8:	e92d4008 	push	{r3, lr}
    94bc:	e3003608 	movw	r3, #1544	; 0x608
    94c0:	e3403001 	movt	r3, #1
    94c4:	e5930000 	ldr	r0, [r3]
    94c8:	eb0001b2 	bl	9b98 <OSTaskReturnHook>
    94cc:	e3a000ff 	mov	r0, #255	; 0xff
    94d0:	e8bd4008 	pop	{r3, lr}
    94d4:	eafffe14 	b	8d2c <OSTaskDel>

000094d8 <OS_TaskStkClr>:
    94d8:	e2022003 	and	r2, r2, #3
    94dc:	e3520003 	cmp	r2, #3
    94e0:	112fff1e 	bxne	lr
    94e4:	e3510000 	cmp	r1, #0
    94e8:	012fff1e 	bxeq	lr
    94ec:	e3a03000 	mov	r3, #0
    94f0:	e2511001 	subs	r1, r1, #1
    94f4:	e4803004 	str	r3, [r0], #4
    94f8:	1afffffc 	bne	94f0 <OS_TaskStkClr+0x18>
    94fc:	e12fff1e 	bx	lr

00009500 <OSTimeDly>:
    9500:	e3003604 	movw	r3, #1540	; 0x604
    9504:	e3403001 	movt	r3, #1
    9508:	e92d4010 	push	{r4, lr}
    950c:	e1a04000 	mov	r4, r0
    9510:	e5d33000 	ldrb	r3, [r3]
    9514:	e3530000 	cmp	r3, #0
    9518:	18bd8010 	popne	{r4, pc}
    951c:	e3003554 	movw	r3, #1364	; 0x554
    9520:	e3403001 	movt	r3, #1
    9524:	e5d33000 	ldrb	r3, [r3]
    9528:	e3530000 	cmp	r3, #0
    952c:	18bd8010 	popne	{r4, pc}
    9530:	e3500000 	cmp	r0, #0
    9534:	08bd8010 	popeq	{r4, pc}
    9538:	eb00007c 	bl	9730 <OS_CPU_SR_Save>
    953c:	e3002608 	movw	r2, #1544	; 0x608
    9540:	e3402001 	movt	r2, #1
    9544:	e30035f8 	movw	r3, #1528	; 0x5f8
    9548:	e3403001 	movt	r3, #1
    954c:	e5922000 	ldr	r2, [r2]
    9550:	e5d2c030 	ldrb	ip, [r2, #48]	; 0x30
    9554:	e5d2e031 	ldrb	lr, [r2, #49]	; 0x31
    9558:	e7d3100c 	ldrb	r1, [r3, ip]
    955c:	e1c1100e 	bic	r1, r1, lr
    9560:	e7c3100c 	strb	r1, [r3, ip]
    9564:	e3510000 	cmp	r1, #0
    9568:	1a000005 	bne	9584 <OSTimeDly+0x84>
    956c:	e30035f4 	movw	r3, #1524	; 0x5f4
    9570:	e3403001 	movt	r3, #1
    9574:	e5d2c032 	ldrb	ip, [r2, #50]	; 0x32
    9578:	e5d31000 	ldrb	r1, [r3]
    957c:	e1c1100c 	bic	r1, r1, ip
    9580:	e5c31000 	strb	r1, [r3]
    9584:	e5824028 	str	r4, [r2, #40]	; 0x28
    9588:	eb00006e 	bl	9748 <OS_CPU_SR_Restore>
    958c:	e8bd4010 	pop	{r4, lr}
    9590:	eafff598 	b	6bf8 <OS_Sched>

00009594 <OSTimeDlyHMSM>:
    9594:	e300c604 	movw	ip, #1540	; 0x604
    9598:	e340c001 	movt	ip, #1
    959c:	e92d4010 	push	{r4, lr}
    95a0:	e5dcc000 	ldrb	ip, [ip]
    95a4:	e35c0000 	cmp	ip, #0
    95a8:	0a000001 	beq	95b4 <OSTimeDlyHMSM+0x20>
    95ac:	e3a00055 	mov	r0, #85	; 0x55
    95b0:	e8bd8010 	pop	{r4, pc}
    95b4:	e300c554 	movw	ip, #1364	; 0x554
    95b8:	e340c001 	movt	ip, #1
    95bc:	e5dc4000 	ldrb	r4, [ip]
    95c0:	e3540000 	cmp	r4, #0
    95c4:	0a000001 	beq	95d0 <OSTimeDlyHMSM+0x3c>
    95c8:	e3a00032 	mov	r0, #50	; 0x32
    95cc:	e8bd8010 	pop	{r4, pc}
    95d0:	e3a0cffa 	mov	ip, #1000	; 0x3e8
    95d4:	e0611201 	rsb	r1, r1, r1, lsl #4
    95d8:	e003039c 	mul	r3, ip, r3
    95dc:	e0822101 	add	r2, r2, r1, lsl #2
    95e0:	e3a01ee1 	mov	r1, #3600	; 0xe10
    95e4:	e304edd3 	movw	lr, #19923	; 0x4dd3
    95e8:	e0202091 	mla	r0, r1, r0, r2
    95ec:	e341e062 	movt	lr, #4194	; 0x1062
    95f0:	e08e239e 	umull	r2, lr, lr, r3
    95f4:	e000009c 	mul	r0, ip, r0
    95f8:	e080032e 	add	r0, r0, lr, lsr #6
    95fc:	ebffffbf 	bl	9500 <OSTimeDly>
    9600:	e1a00004 	mov	r0, r4
    9604:	e8bd8010 	pop	{r4, pc}

00009608 <OSTimeDlyResume>:
    9608:	e350003e 	cmp	r0, #62	; 0x3e
    960c:	e92d4070 	push	{r4, r5, r6, lr}
    9610:	e1a04000 	mov	r4, r0
    9614:	9a000001 	bls	9620 <OSTimeDlyResume+0x18>
    9618:	e3a0002a 	mov	r0, #42	; 0x2a
    961c:	e8bd8070 	pop	{r4, r5, r6, pc}
    9620:	eb000042 	bl	9730 <OS_CPU_SR_Save>
    9624:	e3003f90 	movw	r3, #3984	; 0xf90
    9628:	e3403001 	movt	r3, #1
    962c:	e7933104 	ldr	r3, [r3, r4, lsl #2]
    9630:	e3530000 	cmp	r3, #0
    9634:	e1a01000 	mov	r1, r0
    9638:	0a000029 	beq	96e4 <OSTimeDlyResume+0xdc>
    963c:	e3530001 	cmp	r3, #1
    9640:	0a000027 	beq	96e4 <OSTimeDlyResume+0xdc>
    9644:	e5932028 	ldr	r2, [r3, #40]	; 0x28
    9648:	e3520000 	cmp	r2, #0
    964c:	0a00000f 	beq	9690 <OSTimeDlyResume+0x88>
    9650:	e5d3202c 	ldrb	r2, [r3, #44]	; 0x2c
    9654:	e3a00000 	mov	r0, #0
    9658:	e5830028 	str	r0, [r3, #40]	; 0x28
    965c:	e2120037 	ands	r0, r2, #55	; 0x37
    9660:	120220c8 	andne	r2, r2, #200	; 0xc8
    9664:	15c3202c 	strbne	r2, [r3, #44]	; 0x2c
    9668:	e2022008 	and	r2, r2, #8
    966c:	13a00001 	movne	r0, #1
    9670:	e5c3002d 	strb	r0, [r3, #45]	; 0x2d
    9674:	e6ef4072 	uxtb	r4, r2
    9678:	e3540000 	cmp	r4, #0
    967c:	0a000006 	beq	969c <OSTimeDlyResume+0x94>
    9680:	e1a00001 	mov	r0, r1
    9684:	eb00002f 	bl	9748 <OS_CPU_SR_Restore>
    9688:	e3a00000 	mov	r0, #0
    968c:	e8bd8070 	pop	{r4, r5, r6, pc}
    9690:	eb00002c 	bl	9748 <OS_CPU_SR_Restore>
    9694:	e3a00050 	mov	r0, #80	; 0x50
    9698:	e8bd8070 	pop	{r4, r5, r6, pc}
    969c:	e5d3e030 	ldrb	lr, [r3, #48]	; 0x30
    96a0:	e300c5f4 	movw	ip, #1524	; 0x5f4
    96a4:	e30025f8 	movw	r2, #1528	; 0x5f8
    96a8:	e340c001 	movt	ip, #1
    96ac:	e3402001 	movt	r2, #1
    96b0:	e5d35032 	ldrb	r5, [r3, #50]	; 0x32
    96b4:	e5dc6000 	ldrb	r6, [ip]
    96b8:	e1a00001 	mov	r0, r1
    96bc:	e5d33031 	ldrb	r3, [r3, #49]	; 0x31
    96c0:	e7d2100e 	ldrb	r1, [r2, lr]
    96c4:	e1865005 	orr	r5, r6, r5
    96c8:	e5cc5000 	strb	r5, [ip]
    96cc:	e1813003 	orr	r3, r1, r3
    96d0:	e7c2300e 	strb	r3, [r2, lr]
    96d4:	eb00001b 	bl	9748 <OS_CPU_SR_Restore>
    96d8:	ebfff546 	bl	6bf8 <OS_Sched>
    96dc:	e1a00004 	mov	r0, r4
    96e0:	e8bd8070 	pop	{r4, r5, r6, pc}
    96e4:	eb000017 	bl	9748 <OS_CPU_SR_Restore>
    96e8:	e3a00043 	mov	r0, #67	; 0x43
    96ec:	e8bd8070 	pop	{r4, r5, r6, pc}

000096f0 <OSTimeGet>:
    96f0:	e92d4010 	push	{r4, lr}
    96f4:	eb00000d 	bl	9730 <OS_CPU_SR_Save>
    96f8:	e300360c 	movw	r3, #1548	; 0x60c
    96fc:	e3403001 	movt	r3, #1
    9700:	e5934000 	ldr	r4, [r3]
    9704:	eb00000f 	bl	9748 <OS_CPU_SR_Restore>
    9708:	e1a00004 	mov	r0, r4
    970c:	e8bd8010 	pop	{r4, pc}

00009710 <OSTimeSet>:
    9710:	e92d4010 	push	{r4, lr}
    9714:	e1a04000 	mov	r4, r0
    9718:	eb000004 	bl	9730 <OS_CPU_SR_Save>
    971c:	e300360c 	movw	r3, #1548	; 0x60c
    9720:	e3403001 	movt	r3, #1
    9724:	e5834000 	str	r4, [r3]
    9728:	e8bd4010 	pop	{r4, lr}
    972c:	ea000005 	b	9748 <OS_CPU_SR_Restore>

00009730 <OS_CPU_SR_Save>:
    9730:	e10f0000 	mrs	r0, CPSR
    9734:	ef000019 	svc	0x00000019
    9738:	e38010c0 	orr	r1, r0, #192	; 0xc0
    973c:	e121f001 	msr	CPSR_c, r1
    9740:	ef000019 	svc	0x00000019
    9744:	e12fff1e 	bx	lr

00009748 <OS_CPU_SR_Restore>:
    9748:	e121f000 	msr	CPSR_c, r0
    974c:	ef000019 	svc	0x00000019
    9750:	e12fff1e 	bx	lr

00009754 <OSStartHighRdy>:
    9754:	e59f03d0 	ldr	r0, [pc, #976]	; 9b2c <OS_CPU_ARM_CtxID_Get+0x8>
    9758:	e1a0e00f 	mov	lr, pc
    975c:	e12fff10 	bx	r0
    9760:	e59f03c8 	ldr	r0, [pc, #968]	; 9b30 <OS_CPU_ARM_CtxID_Get+0xc>
    9764:	e3a01001 	mov	r1, #1
    9768:	e5c01000 	strb	r1, [r0]
    976c:	e59f03c0 	ldr	r0, [pc, #960]	; 9b34 <OS_CPU_ARM_CtxID_Get+0x10>
    9770:	e5900000 	ldr	r0, [r0]
    9774:	e590d000 	ldr	sp, [r0]
    9778:	e8bd0001 	ldmfd	sp!, {r0}
    977c:	e12ff000 	msr	CPSR_fsxc, r0
    9780:	ef000019 	svc	0x00000019
    9784:	e8fddfff 	ldm	sp!, {r0, r1, r2, r3, r4, r5, r6, r7, r8, r9, sl, fp, ip, lr, pc}^

00009788 <OSCtxSw>:
    9788:	e92d4000 	stmfd	sp!, {lr}
    978c:	e92d4000 	stmfd	sp!, {lr}
    9790:	e92d1fff 	push	{r0, r1, r2, r3, r4, r5, r6, r7, r8, r9, sl, fp, ip}
    9794:	e10f0000 	mrs	r0, CPSR
    9798:	e31e0001 	tst	lr, #1
    979c:	13800020 	orrne	r0, r0, #32
    97a0:	e92d0001 	stmfd	sp!, {r0}
    97a4:	e59f038c 	ldr	r0, [pc, #908]	; 9b38 <OS_CPU_ARM_CtxID_Get+0x14>
    97a8:	e5901000 	ldr	r1, [r0]
    97ac:	e581d000 	str	sp, [r1]
    97b0:	e59f0374 	ldr	r0, [pc, #884]	; 9b2c <OS_CPU_ARM_CtxID_Get+0x8>
    97b4:	e1a0e00f 	mov	lr, pc
    97b8:	e12fff10 	bx	r0
    97bc:	e59f0378 	ldr	r0, [pc, #888]	; 9b3c <OS_CPU_ARM_CtxID_Get+0x18>
    97c0:	e59f1378 	ldr	r1, [pc, #888]	; 9b40 <OS_CPU_ARM_CtxID_Get+0x1c>
    97c4:	e5d12000 	ldrb	r2, [r1]
    97c8:	e5c02000 	strb	r2, [r0]
    97cc:	e59f0364 	ldr	r0, [pc, #868]	; 9b38 <OS_CPU_ARM_CtxID_Get+0x14>
    97d0:	e59f135c 	ldr	r1, [pc, #860]	; 9b34 <OS_CPU_ARM_CtxID_Get+0x10>
    97d4:	e5912000 	ldr	r2, [r1]
    97d8:	e5802000 	str	r2, [r0]
    97dc:	e592d000 	ldr	sp, [r2]
    97e0:	f57ff01f 	clrex
    97e4:	e8bd0001 	ldmfd	sp!, {r0}
    97e8:	e12ff000 	msr	CPSR_fsxc, r0
    97ec:	ef000019 	svc	0x00000019
    97f0:	e8fddfff 	ldm	sp!, {r0, r1, r2, r3, r4, r5, r6, r7, r8, r9, sl, fp, ip, lr, pc}^

000097f4 <OSIntCtxSw>:
    97f4:	e59f0330 	ldr	r0, [pc, #816]	; 9b2c <OS_CPU_ARM_CtxID_Get+0x8>
    97f8:	e1a0e00f 	mov	lr, pc
    97fc:	e12fff10 	bx	r0
    9800:	e59f0334 	ldr	r0, [pc, #820]	; 9b3c <OS_CPU_ARM_CtxID_Get+0x18>
    9804:	e59f1334 	ldr	r1, [pc, #820]	; 9b40 <OS_CPU_ARM_CtxID_Get+0x1c>
    9808:	e5d12000 	ldrb	r2, [r1]
    980c:	e5c02000 	strb	r2, [r0]
    9810:	e59f0320 	ldr	r0, [pc, #800]	; 9b38 <OS_CPU_ARM_CtxID_Get+0x14>
    9814:	e59f1318 	ldr	r1, [pc, #792]	; 9b34 <OS_CPU_ARM_CtxID_Get+0x10>
    9818:	e5912000 	ldr	r2, [r1]
    981c:	e5802000 	str	r2, [r0]
    9820:	e592d000 	ldr	sp, [r2]
    9824:	f57ff01f 	clrex
    9828:	e8bd0001 	ldmfd	sp!, {r0}
    982c:	e12ff000 	msr	CPSR_fsxc, r0
    9830:	ef000019 	svc	0x00000019
    9834:	e8fddfff 	ldm	sp!, {r0, r1, r2, r3, r4, r5, r6, r7, r8, r9, sl, fp, ip, lr, pc}^

00009838 <OS_CPU_ARM_ExceptUndefInstrHndlr>:
    9838:	e92d5fff 	push	{r0, r1, r2, r3, r4, r5, r6, r7, r8, r9, sl, fp, ip, lr}
    983c:	e1a0200e 	mov	r2, lr
    9840:	e3a00001 	mov	r0, #1
    9844:	ea000012 	b	9894 <OS_CPU_ARM_ExceptHndlr>

00009848 <OS_CPU_ARM_ExceptSwiHndlr>:
    9848:	e92d5fff 	push	{r0, r1, r2, r3, r4, r5, r6, r7, r8, r9, sl, fp, ip, lr}
    984c:	e1a0200e 	mov	r2, lr
    9850:	e3a00002 	mov	r0, #2
    9854:	ea00000e 	b	9894 <OS_CPU_ARM_ExceptHndlr>

00009858 <OS_CPU_ARM_ExceptPrefetchAbortHndlr>:
    9858:	e24ee004 	sub	lr, lr, #4
    985c:	e92d5fff 	push	{r0, r1, r2, r3, r4, r5, r6, r7, r8, r9, sl, fp, ip, lr}
    9860:	e1a0200e 	mov	r2, lr
    9864:	e3a00003 	mov	r0, #3
    9868:	ea000009 	b	9894 <OS_CPU_ARM_ExceptHndlr>

0000986c <OS_CPU_ARM_ExceptDataAbortHndlr>:
    986c:	e24ee008 	sub	lr, lr, #8
    9870:	e92d5fff 	push	{r0, r1, r2, r3, r4, r5, r6, r7, r8, r9, sl, fp, ip, lr}
    9874:	e1a0200e 	mov	r2, lr
    9878:	e3a00004 	mov	r0, #4
    987c:	ea000004 	b	9894 <OS_CPU_ARM_ExceptHndlr>

00009880 <OS_CPU_ARM_ExceptFiqHndlr>:
    9880:	e24ee004 	sub	lr, lr, #4
    9884:	e92d5fff 	push	{r0, r1, r2, r3, r4, r5, r6, r7, r8, r9, sl, fp, ip, lr}
    9888:	e1a0200e 	mov	r2, lr
    988c:	e3a00007 	mov	r0, #7
    9890:	eaffffff 	b	9894 <OS_CPU_ARM_ExceptHndlr>

00009894 <OS_CPU_ARM_ExceptHndlr>:
    9894:	e14f1000 	mrs	r1, SPSR
    9898:	e201301f 	and	r3, r1, #31
    989c:	e3530013 	cmp	r3, #19
    98a0:	1a000021 	bne	992c <OS_CPU_ARM_ExceptHndlr_BrkExcept>

000098a4 <OS_CPU_ARM_ExceptHndlr_BrkTask>:
    98a4:	e10f3000 	mrs	r3, CPSR
    98a8:	e1a0400d 	mov	r4, sp
    98ac:	e321f0d3 	msr	CPSR_c, #211	; 0xd3
    98b0:	e92d0004 	stmfd	sp!, {r2}
    98b4:	e92d4000 	stmfd	sp!, {lr}
    98b8:	e92d1fe0 	push	{r5, r6, r7, r8, r9, sl, fp, ip}
    98bc:	e8b403e0 	ldm	r4!, {r5, r6, r7, r8, r9}
    98c0:	e92d03e0 	push	{r5, r6, r7, r8, r9}
    98c4:	e92d0002 	stmfd	sp!, {r1}
    98c8:	e59f1260 	ldr	r1, [pc, #608]	; 9b30 <OS_CPU_ARM_CtxID_Get+0xc>
    98cc:	e5d11000 	ldrb	r1, [r1]
    98d0:	e3510001 	cmp	r1, #1
    98d4:	1a000008 	bne	98fc <OS_CPU_ARM_ExceptHndlr_BrkTask_1>
    98d8:	e59f1264 	ldr	r1, [pc, #612]	; 9b44 <OS_CPU_ARM_CtxID_Get+0x20>
    98dc:	e5d12000 	ldrb	r2, [r1]
    98e0:	e2822001 	add	r2, r2, #1
    98e4:	e5c12000 	strb	r2, [r1]
    98e8:	e3520001 	cmp	r2, #1
    98ec:	1a000024 	bne	9984 <OS_CPU_ARM_ExceptHndlr_BrkIRQ>
    98f0:	e59f1240 	ldr	r1, [pc, #576]	; 9b38 <OS_CPU_ARM_CtxID_Get+0x14>
    98f4:	e5912000 	ldr	r2, [r1]
    98f8:	e582d000 	str	sp, [r2]

000098fc <OS_CPU_ARM_ExceptHndlr_BrkTask_1>:
    98fc:	e12ff003 	msr	CPSR_fsxc, r3
    9900:	e59f1240 	ldr	r1, [pc, #576]	; 9b48 <OS_CPU_ARM_CtxID_Get+0x24>
    9904:	e1a0e00f 	mov	lr, pc
    9908:	e12fff11 	bx	r1
    990c:	e28dd038 	add	sp, sp, #56	; 0x38
    9910:	e321f0d3 	msr	CPSR_c, #211	; 0xd3
    9914:	e59f0230 	ldr	r0, [pc, #560]	; 9b4c <OS_CPU_ARM_CtxID_Get+0x28>
    9918:	e1a0e00f 	mov	lr, pc
    991c:	e12fff10 	bx	r0
    9920:	e8bd0001 	ldmfd	sp!, {r0}
    9924:	e12cf000 	msr	CPSR_fs, r0
    9928:	e8fddfff 	ldm	sp!, {r0, r1, r2, r3, r4, r5, r6, r7, r8, r9, sl, fp, ip, lr, pc}^

0000992c <OS_CPU_ARM_ExceptHndlr_BrkExcept>:
    992c:	e92d0002 	stmfd	sp!, {r1}
    9930:	e10f3000 	mrs	r3, CPSR
    9934:	e321f0d3 	msr	CPSR_c, #211	; 0xd3
    9938:	e92d0008 	stmfd	sp!, {r3}
    993c:	e59f2200 	ldr	r2, [pc, #512]	; 9b44 <OS_CPU_ARM_CtxID_Get+0x20>
    9940:	e5d24000 	ldrb	r4, [r2]
    9944:	e2844001 	add	r4, r4, #1
    9948:	e5c24000 	strb	r4, [r2]
    994c:	e12ff003 	msr	CPSR_fsxc, r3
    9950:	e59f21f0 	ldr	r2, [pc, #496]	; 9b48 <OS_CPU_ARM_CtxID_Get+0x24>
    9954:	e1a0e00f 	mov	lr, pc
    9958:	e12fff12 	bx	r2
    995c:	e321f0d3 	msr	CPSR_c, #211	; 0xd3
    9960:	e59f21dc 	ldr	r2, [pc, #476]	; 9b44 <OS_CPU_ARM_CtxID_Get+0x20>
    9964:	e5d24000 	ldrb	r4, [r2]
    9968:	e2444001 	sub	r4, r4, #1
    996c:	e5c24000 	strb	r4, [r2]
    9970:	e8bd0008 	ldmfd	sp!, {r3}
    9974:	e12ff003 	msr	CPSR_fsxc, r3
    9978:	e8bd0001 	ldmfd	sp!, {r0}
    997c:	e16ff000 	msr	SPSR_fsxc, r0
    9980:	e8fd9fff 	ldm	sp!, {r0, r1, r2, r3, r4, r5, r6, r7, r8, r9, sl, fp, ip, pc}^

00009984 <OS_CPU_ARM_ExceptHndlr_BrkIRQ>:
    9984:	e12ff003 	msr	CPSR_fsxc, r3
    9988:	e59f11b8 	ldr	r1, [pc, #440]	; 9b48 <OS_CPU_ARM_CtxID_Get+0x24>
    998c:	e1a0e00f 	mov	lr, pc
    9990:	e12fff11 	bx	r1
    9994:	e28dd038 	add	sp, sp, #56	; 0x38
    9998:	e321f0d3 	msr	CPSR_c, #211	; 0xd3
    999c:	e59f21a0 	ldr	r2, [pc, #416]	; 9b44 <OS_CPU_ARM_CtxID_Get+0x20>
    99a0:	e5d24000 	ldrb	r4, [r2]
    99a4:	e2444001 	sub	r4, r4, #1
    99a8:	e5c24000 	strb	r4, [r2]
    99ac:	e8bd0001 	ldmfd	sp!, {r0}
    99b0:	e16ff000 	msr	SPSR_fsxc, r0
    99b4:	e8fddfff 	ldm	sp!, {r0, r1, r2, r3, r4, r5, r6, r7, r8, r9, sl, fp, ip, lr, pc}^

000099b8 <OS_CPU_ARM_ExceptIrqHndlr>:
    99b8:	e92d4000 	stmfd	sp!, {lr}
    99bc:	e92d1fff 	push	{r0, r1, r2, r3, r4, r5, r6, r7, r8, r9, sl, fp, ip}
    99c0:	e10f1000 	mrs	r1, CPSR
    99c4:	e92d0002 	stmfd	sp!, {r1}
    99c8:	e3a00006 	mov	r0, #6
    99cc:	e59f315c 	ldr	r3, [pc, #348]	; 9b30 <OS_CPU_ARM_CtxID_Get+0xc>
    99d0:	e5d34000 	ldrb	r4, [r3]
    99d4:	e3540001 	cmp	r4, #1
    99d8:	1a000024 	bne	9a70 <OS_CPU_ARM_IRQHndlr_BreakNothing>
    99dc:	e59f3160 	ldr	r3, [pc, #352]	; 9b44 <OS_CPU_ARM_CtxID_Get+0x20>
    99e0:	e5d34000 	ldrb	r4, [r3]
    99e4:	e2844001 	add	r4, r4, #1
    99e8:	e5c34000 	strb	r4, [r3]
    99ec:	e3540001 	cmp	r4, #1
    99f0:	1a000011 	bne	9a3c <OS_CPU_ARM_IRQHndlr_BreakIRQ>

000099f4 <OS_CPU_ARM_IRQHndlr_BreakTask>:
    99f4:	e59f313c 	ldr	r3, [pc, #316]	; 9b38 <OS_CPU_ARM_CtxID_Get+0x14>
    99f8:	e5934000 	ldr	r4, [r3]
    99fc:	e584d000 	str	sp, [r4]
    9a00:	e59f3148 	ldr	r3, [pc, #328]	; 9b50 <OS_CPU_ARM_CtxID_Get+0x2c>
    9a04:	e593d000 	ldr	sp, [r3]
    9a08:	e59f1138 	ldr	r1, [pc, #312]	; 9b48 <OS_CPU_ARM_CtxID_Get+0x24>
    9a0c:	e1a0e00f 	mov	lr, pc
    9a10:	e12fff11 	bx	r1
    9a14:	e59f0130 	ldr	r0, [pc, #304]	; 9b4c <OS_CPU_ARM_CtxID_Get+0x28>
    9a18:	e1a0e00f 	mov	lr, pc
    9a1c:	e12fff10 	bx	r0
    9a20:	e59f3110 	ldr	r3, [pc, #272]	; 9b38 <OS_CPU_ARM_CtxID_Get+0x14>
    9a24:	e5934000 	ldr	r4, [r3]
    9a28:	e594d000 	ldr	sp, [r4]
    9a2c:	e8bd0001 	ldmfd	sp!, {r0}
    9a30:	e12ff000 	msr	CPSR_fsxc, r0
    9a34:	ef000019 	svc	0x00000019
    9a38:	e8fddfff 	ldm	sp!, {r0, r1, r2, r3, r4, r5, r6, r7, r8, r9, sl, fp, ip, lr, pc}^

00009a3c <OS_CPU_ARM_IRQHndlr_BreakIRQ>:
    9a3c:	e59f3110 	ldr	r3, [pc, #272]	; 9b54 <OS_CPU_ARM_CtxID_Get+0x30>
    9a40:	e583d000 	str	sp, [r3]
    9a44:	e59f30fc 	ldr	r3, [pc, #252]	; 9b48 <OS_CPU_ARM_CtxID_Get+0x24>
    9a48:	e1a0e00f 	mov	lr, pc
    9a4c:	e12fff13 	bx	r3
    9a50:	e59f30ec 	ldr	r3, [pc, #236]	; 9b44 <OS_CPU_ARM_CtxID_Get+0x20>
    9a54:	e5d34000 	ldrb	r4, [r3]
    9a58:	e2444001 	sub	r4, r4, #1
    9a5c:	e5c34000 	strb	r4, [r3]
    9a60:	e8bd0001 	ldmfd	sp!, {r0}
    9a64:	e12ff000 	msr	CPSR_fsxc, r0
    9a68:	ef000019 	svc	0x00000019
    9a6c:	e8fddfff 	ldm	sp!, {r0, r1, r2, r3, r4, r5, r6, r7, r8, r9, sl, fp, ip, lr, pc}^

00009a70 <OS_CPU_ARM_IRQHndlr_BreakNothing>:
    9a70:	e59f30d0 	ldr	r3, [pc, #208]	; 9b48 <OS_CPU_ARM_CtxID_Get+0x24>
    9a74:	e1a0e00f 	mov	lr, pc
    9a78:	e12fff13 	bx	r3
    9a7c:	e8bd0001 	ldmfd	sp!, {r0}
    9a80:	e12ff000 	msr	CPSR_fsxc, r0
    9a84:	ef000019 	svc	0x00000019
    9a88:	e8fddfff 	ldm	sp!, {r0, r1, r2, r3, r4, r5, r6, r7, r8, r9, sl, fp, ip, lr, pc}^

00009a8c <OS_CPU_SR_INT_En>:
    9a8c:	e10f0000 	mrs	r0, CPSR
    9a90:	ef000019 	svc	0x00000019
    9a94:	e3c000c0 	bic	r0, r0, #192	; 0xc0
    9a98:	e121f000 	msr	CPSR_c, r0
    9a9c:	ef000019 	svc	0x00000019
    9aa0:	e12fff1e 	bx	lr

00009aa4 <OS_CPU_SR_INT_Dis>:
    9aa4:	e10f0000 	mrs	r0, CPSR
    9aa8:	ef000019 	svc	0x00000019
    9aac:	e38000c0 	orr	r0, r0, #192	; 0xc0
    9ab0:	e121f000 	msr	CPSR_c, r0
    9ab4:	ef000019 	svc	0x00000019
    9ab8:	e12fff1e 	bx	lr

00009abc <OS_CPU_SR_IRQ_En>:
    9abc:	e10f0000 	mrs	r0, CPSR
    9ac0:	ef000019 	svc	0x00000019
    9ac4:	e3c00080 	bic	r0, r0, #128	; 0x80
    9ac8:	e121f000 	msr	CPSR_c, r0
    9acc:	ef000019 	svc	0x00000019
    9ad0:	e12fff1e 	bx	lr

00009ad4 <OS_CPU_SR_IRQ_Dis>:
    9ad4:	e10f0000 	mrs	r0, CPSR
    9ad8:	ef000019 	svc	0x00000019
    9adc:	e3800080 	orr	r0, r0, #128	; 0x80
    9ae0:	e121f000 	msr	CPSR_c, r0
    9ae4:	ef000019 	svc	0x00000019
    9ae8:	e12fff1e 	bx	lr

00009aec <OS_CPU_SR_FIQ_En>:
    9aec:	e10f0000 	mrs	r0, CPSR
    9af0:	ef000019 	svc	0x00000019
    9af4:	e3c00040 	bic	r0, r0, #64	; 0x40
    9af8:	e121f000 	msr	CPSR_c, r0
    9afc:	ef000019 	svc	0x00000019
    9b00:	e12fff1e 	bx	lr

00009b04 <OS_CPU_SR_FIQ_Dis>:
    9b04:	e10f0000 	mrs	r0, CPSR
    9b08:	ef000019 	svc	0x00000019
    9b0c:	e3800040 	orr	r0, r0, #64	; 0x40
    9b10:	e121f000 	msr	CPSR_c, r0
    9b14:	ef000019 	svc	0x00000019
    9b18:	e12fff1e 	bx	lr

00009b1c <OS_CPU_ARM_CtxID_Set>:
    9b1c:	ee0d0f30 	mcr	15, 0, r0, cr13, cr0, {1}
    9b20:	e12fff1e 	bx	lr

00009b24 <OS_CPU_ARM_CtxID_Get>:
    9b24:	ee1d0f30 	mrc	15, 0, r0, cr13, cr0, {1}
    9b28:	e12fff1e 	bx	lr
    9b2c:	00009c90 	muleq	r0, r0, ip
    9b30:	00010556 	andeq	r0, r1, r6, asr r5
    9b34:	000105f0 	strdeq	r0, [r1], -r0	; <UNPREDICTABLE>
    9b38:	00010608 	andeq	r0, r1, r8, lsl #12
    9b3c:	0001055d 	andeq	r0, r1, sp, asr r5
    9b40:	0001055c 	andeq	r0, r1, ip, asr r5
    9b44:	00010604 	andeq	r0, r1, r4, lsl #12
    9b48:	00009d94 	muleq	r0, r4, sp
    9b4c:	000065e8 	andeq	r6, r0, r8, ror #11
    9b50:	00011090 	muleq	r1, r0, r0
    9b54:	00011094 	muleq	r1, r4, r0

00009b58 <OSInitHookBegin>:
    9b58:	e3013098 	movw	r3, #4248	; 0x1098
    9b5c:	e3403001 	movt	r3, #1
    9b60:	e2831c02 	add	r1, r3, #512	; 0x200
    9b64:	e3a02000 	mov	r2, #0
    9b68:	e4832004 	str	r2, [r3], #4
    9b6c:	e1530001 	cmp	r3, r1
    9b70:	1afffffc 	bne	9b68 <OSInitHookBegin+0x10>
    9b74:	e3012090 	movw	r2, #4240	; 0x1090
    9b78:	e3402001 	movt	r2, #1
    9b7c:	e3c33007 	bic	r3, r3, #7
    9b80:	e5823000 	str	r3, [r2]
    9b84:	e12fff1e 	bx	lr

00009b88 <OSInitHookEnd>:
    9b88:	e12fff1e 	bx	lr

00009b8c <OSTaskCreateHook>:
    9b8c:	ea0008c3 	b	bea0 <App_TaskCreateHook>

00009b90 <OSTaskDelHook>:
    9b90:	ea0008c3 	b	bea4 <App_TaskDelHook>

00009b94 <OSTaskIdleHook>:
    9b94:	ea0008c3 	b	bea8 <App_TaskIdleHook>

00009b98 <OSTaskReturnHook>:
    9b98:	ea0008c3 	b	beac <App_TaskReturnHook>

00009b9c <OSTaskStatHook>:
    9b9c:	ea0008c3 	b	beb0 <App_TaskStatHook>

00009ba0 <OSTaskStkInit>:
    9ba0:	e2822004 	add	r2, r2, #4
    9ba4:	e3100001 	tst	r0, #1
    9ba8:	e92d0ff0 	push	{r4, r5, r6, r7, r8, r9, sl, fp}
    9bac:	e3c22007 	bic	r2, r2, #7
    9bb0:	e24dd010 	sub	sp, sp, #16
    9bb4:	e3c00001 	bic	r0, r0, #1
    9bb8:	e5020004 	str	r0, [r2, #-4]
    9bbc:	e30904b8 	movw	r0, #38072	; 0x94b8
    9bc0:	e3400000 	movt	r0, #0
    9bc4:	e58d0008 	str	r0, [sp, #8]
    9bc8:	e3000202 	movw	r0, #514	; 0x202
    9bcc:	e7df0810 	bfi	r0, r0, #16, #16
    9bd0:	e58d000c 	str	r0, [sp, #12]
    9bd4:	e3003303 	movw	r3, #771	; 0x303
    9bd8:	e59d0008 	ldr	r0, [sp, #8]
    9bdc:	e7df3813 	bfi	r3, r3, #16, #16
    9be0:	e58d3004 	str	r3, [sp, #4]
    9be4:	e301b212 	movw	fp, #4626	; 0x1212
    9be8:	e3019111 	movw	r9, #4369	; 0x1111
    9bec:	e7dfb81b 	bfi	fp, fp, #16, #16
    9bf0:	e5020008 	str	r0, [r2, #-8]
    9bf4:	e7df9819 	bfi	r9, r9, #16, #16
    9bf8:	e59d0004 	ldr	r0, [sp, #4]
    9bfc:	e301a010 	movw	sl, #4112	; 0x1010
    9c00:	e3008909 	movw	r8, #2313	; 0x909
    9c04:	e7dfa81a 	bfi	sl, sl, #16, #16
    9c08:	e7df8818 	bfi	r8, r8, #16, #16
    9c0c:	e3007808 	movw	r7, #2056	; 0x808
    9c10:	e5020030 	str	r0, [r2, #-48]	; 0xffffffd0
    9c14:	e7df7817 	bfi	r7, r7, #16, #16
    9c18:	e59d000c 	ldr	r0, [sp, #12]
    9c1c:	e3006707 	movw	r6, #1799	; 0x707
    9c20:	e3005606 	movw	r5, #1542	; 0x606
    9c24:	e7df6816 	bfi	r6, r6, #16, #16
    9c28:	e7df5815 	bfi	r5, r5, #16, #16
    9c2c:	e3004505 	movw	r4, #1285	; 0x505
    9c30:	e5020034 	str	r0, [r2, #-52]	; 0xffffffcc
    9c34:	e7df4814 	bfi	r4, r4, #16, #16
    9c38:	e300c404 	movw	ip, #1028	; 0x404
    9c3c:	e3003101 	movw	r3, #257	; 0x101
    9c40:	e7dfc81c 	bfi	ip, ip, #16, #16
    9c44:	e7df3813 	bfi	r3, r3, #16, #16
    9c48:	e502b00c 	str	fp, [r2, #-12]
    9c4c:	e2420040 	sub	r0, r2, #64	; 0x40
    9c50:	e5023038 	str	r3, [r2, #-56]	; 0xffffffc8
    9c54:	13a03030 	movne	r3, #48	; 0x30
    9c58:	03a03e11 	moveq	r3, #272	; 0x110
    9c5c:	e5029010 	str	r9, [r2, #-16]
    9c60:	e502a014 	str	sl, [r2, #-20]	; 0xffffffec
    9c64:	e5028018 	str	r8, [r2, #-24]	; 0xffffffe8
    9c68:	e502701c 	str	r7, [r2, #-28]	; 0xffffffe4
    9c6c:	e5026020 	str	r6, [r2, #-32]	; 0xffffffe0
    9c70:	e5025024 	str	r5, [r2, #-36]	; 0xffffffdc
    9c74:	e5024028 	str	r4, [r2, #-40]	; 0xffffffd8
    9c78:	e502c02c 	str	ip, [r2, #-44]	; 0xffffffd4
    9c7c:	e502103c 	str	r1, [r2, #-60]	; 0xffffffc4
    9c80:	e5023040 	str	r3, [r2, #-64]	; 0xffffffc0
    9c84:	e28dd010 	add	sp, sp, #16
    9c88:	e8bd0ff0 	pop	{r4, r5, r6, r7, r8, r9, sl, fp}
    9c8c:	e12fff1e 	bx	lr

00009c90 <OSTaskSwHook>:
    9c90:	ea000887 	b	beb4 <App_TaskSwHook>

00009c94 <OSTCBInitHook>:
    9c94:	ea000887 	b	beb8 <App_TCBInitHook>

00009c98 <OSTimeTickHook>:
    9c98:	ea000887 	b	bebc <App_TimeTickHook>

00009c9c <OS_CPU_InitExceptVect>:
    9c9c:	e3a03000 	mov	r3, #0
    9ca0:	e30f2018 	movw	r2, #61464	; 0xf018
    9ca4:	e92d0070 	push	{r4, r5, r6}
    9ca8:	e34e259f 	movt	r2, #58783	; 0xe59f
    9cac:	e3096838 	movw	r6, #38968	; 0x9838
    9cb0:	e3095848 	movw	r5, #38984	; 0x9848
    9cb4:	e3406000 	movt	r6, #0
    9cb8:	e3094858 	movw	r4, #39000	; 0x9858
    9cbc:	e3405000 	movt	r5, #0
    9cc0:	e3404000 	movt	r4, #0
    9cc4:	e309c86c 	movw	ip, #39020	; 0x986c
    9cc8:	e30909b8 	movw	r0, #39352	; 0x99b8
    9ccc:	e340c000 	movt	ip, #0
    9cd0:	e3400000 	movt	r0, #0
    9cd4:	e3091880 	movw	r1, #39040	; 0x9880
    9cd8:	e5832000 	str	r2, [r3]
    9cdc:	e3401000 	movt	r1, #0
    9ce0:	e5836024 	str	r6, [r3, #36]	; 0x24
    9ce4:	e5832008 	str	r2, [r3, #8]
    9ce8:	e5835028 	str	r5, [r3, #40]	; 0x28
    9cec:	e583200c 	str	r2, [r3, #12]
    9cf0:	e583402c 	str	r4, [r3, #44]	; 0x2c
    9cf4:	e5832010 	str	r2, [r3, #16]
    9cf8:	e583c030 	str	ip, [r3, #48]	; 0x30
    9cfc:	e5832018 	str	r2, [r3, #24]
    9d00:	e5830038 	str	r0, [r3, #56]	; 0x38
    9d04:	e583201c 	str	r2, [r3, #28]
    9d08:	e583103c 	str	r1, [r3, #60]	; 0x3c
    9d0c:	e8bd0070 	pop	{r4, r5, r6}
    9d10:	e12fff1e 	bx	lr

00009d14 <OS_CPU_ExceptStkChk>:
    9d14:	e3013098 	movw	r3, #4248	; 0x1098
    9d18:	e3403001 	movt	r3, #1
    9d1c:	e5930000 	ldr	r0, [r3]
    9d20:	e3500000 	cmp	r0, #0
    9d24:	1a000006 	bne	9d44 <OS_CPU_ExceptStkChk+0x30>
    9d28:	e5b32004 	ldr	r2, [r3, #4]!
    9d2c:	e2800001 	add	r0, r0, #1
    9d30:	e3520000 	cmp	r2, #0
    9d34:	112fff1e 	bxne	lr
    9d38:	e3500080 	cmp	r0, #128	; 0x80
    9d3c:	1afffff9 	bne	9d28 <OS_CPU_ExceptStkChk+0x14>
    9d40:	e12fff1e 	bx	lr
    9d44:	e3a00000 	mov	r0, #0
    9d48:	e12fff1e 	bx	lr

00009d4c <OS_CSP_TickISR_Handler>:
    9d4c:	e92d4008 	push	{r3, lr}
    9d50:	e3a00000 	mov	r0, #0
    9d54:	eb0005a2 	bl	b3e4 <CSP_TmrIntClr>
    9d58:	e8bd4008 	pop	{r3, lr}
    9d5c:	eafff29c 	b	67d4 <OSTimeTick>

00009d60 <guest_OS_CSP_TickInit>:
    9d60:	e3a00000 	mov	r0, #0
    9d64:	e3a0101d 	mov	r1, #29
    9d68:	e92d4008 	push	{r3, lr}
    9d6c:	e3092d4c 	movw	r2, #40268	; 0x9d4c
    9d70:	e1a03000 	mov	r3, r0
    9d74:	e3402000 	movt	r2, #0
    9d78:	eb0004ad 	bl	b034 <CSP_IntVectReg>
    9d7c:	e3500001 	cmp	r0, #1
    9d80:	18bd8008 	popne	{r3, pc}
    9d84:	e3a00ffa 	mov	r0, #1000	; 0x3e8
    9d88:	eb00074c 	bl	bac0 <guest_OS_Timer_Register>
    9d8c:	e8bd4008 	pop	{r3, lr}
    9d90:	ea00074e 	b	bad0 <guest_OS_Timer_Enable>

00009d94 <OS_CPU_IntHandler>:
    9d94:	e92d4008 	push	{r3, lr}
    9d98:	e2403006 	sub	r3, r0, #6
    9d9c:	e3530001 	cmp	r3, #1
    9da0:	8a000003 	bhi	9db4 <OS_CPU_IntHandler+0x20>
    9da4:	eb000738 	bl	ba8c <guest_IRQ_Acknowledge>
    9da8:	e6ff0070 	uxth	r0, r0
    9dac:	e8bd4008 	pop	{r3, lr}
    9db0:	ea0004c7 	b	b0d4 <CSP_IntHandlerSrc>
    9db4:	e6ef0070 	uxtb	r0, r0
    9db8:	e8bd4008 	pop	{r3, lr}
    9dbc:	ea0006f7 	b	b9a0 <OS_CSP_BSP_ExceptHandler>

00009dc0 <ASCII_IsAlpha>:
    9dc0:	e20000df 	and	r0, r0, #223	; 0xdf
    9dc4:	e2400041 	sub	r0, r0, #65	; 0x41
    9dc8:	e3500019 	cmp	r0, #25
    9dcc:	83a00000 	movhi	r0, #0
    9dd0:	93a00001 	movls	r0, #1
    9dd4:	e12fff1e 	bx	lr

00009dd8 <ASCII_IsAlphaNum>:
    9dd8:	e3c03020 	bic	r3, r0, #32
    9ddc:	e2433041 	sub	r3, r3, #65	; 0x41
    9de0:	e3530019 	cmp	r3, #25
    9de4:	9a000004 	bls	9dfc <ASCII_IsAlphaNum+0x24>
    9de8:	e2400030 	sub	r0, r0, #48	; 0x30
    9dec:	e3500009 	cmp	r0, #9
    9df0:	83a00000 	movhi	r0, #0
    9df4:	93a00001 	movls	r0, #1
    9df8:	e12fff1e 	bx	lr
    9dfc:	e3a00001 	mov	r0, #1
    9e00:	e12fff1e 	bx	lr

00009e04 <ASCII_IsLower>:
    9e04:	e2400061 	sub	r0, r0, #97	; 0x61
    9e08:	e3500019 	cmp	r0, #25
    9e0c:	83a00000 	movhi	r0, #0
    9e10:	93a00001 	movls	r0, #1
    9e14:	e12fff1e 	bx	lr

00009e18 <ASCII_IsUpper>:
    9e18:	e2400041 	sub	r0, r0, #65	; 0x41
    9e1c:	e3500019 	cmp	r0, #25
    9e20:	83a00000 	movhi	r0, #0
    9e24:	93a00001 	movls	r0, #1
    9e28:	e12fff1e 	bx	lr

00009e2c <ASCII_IsDig>:
    9e2c:	e2400030 	sub	r0, r0, #48	; 0x30
    9e30:	e3500009 	cmp	r0, #9
    9e34:	83a00000 	movhi	r0, #0
    9e38:	93a00001 	movls	r0, #1
    9e3c:	e12fff1e 	bx	lr

00009e40 <ASCII_IsDigOct>:
    9e40:	e2400030 	sub	r0, r0, #48	; 0x30
    9e44:	e3500007 	cmp	r0, #7
    9e48:	83a00000 	movhi	r0, #0
    9e4c:	93a00001 	movls	r0, #1
    9e50:	e12fff1e 	bx	lr

00009e54 <ASCII_IsDigHex>:
    9e54:	e2402041 	sub	r2, r0, #65	; 0x41
    9e58:	e2403030 	sub	r3, r0, #48	; 0x30
    9e5c:	e3530009 	cmp	r3, #9
    9e60:	83520005 	cmphi	r2, #5
    9e64:	9a000004 	bls	9e7c <ASCII_IsDigHex+0x28>
    9e68:	e2400061 	sub	r0, r0, #97	; 0x61
    9e6c:	e3500005 	cmp	r0, #5
    9e70:	83a00000 	movhi	r0, #0
    9e74:	93a00001 	movls	r0, #1
    9e78:	e12fff1e 	bx	lr
    9e7c:	e3a00001 	mov	r0, #1
    9e80:	e12fff1e 	bx	lr

00009e84 <ASCII_IsBlank>:
    9e84:	e3500020 	cmp	r0, #32
    9e88:	13500009 	cmpne	r0, #9
    9e8c:	13a00000 	movne	r0, #0
    9e90:	03a00001 	moveq	r0, #1
    9e94:	e12fff1e 	bx	lr

00009e98 <ASCII_IsSpace>:
    9e98:	e3500020 	cmp	r0, #32
    9e9c:	1350000d 	cmpne	r0, #13
    9ea0:	0a000007 	beq	9ec4 <ASCII_IsSpace+0x2c>
    9ea4:	e350000a 	cmp	r0, #10
    9ea8:	1350000c 	cmpne	r0, #12
    9eac:	0a000004 	beq	9ec4 <ASCII_IsSpace+0x2c>
    9eb0:	e20000fd 	and	r0, r0, #253	; 0xfd
    9eb4:	e2503009 	subs	r3, r0, #9
    9eb8:	e2730000 	rsbs	r0, r3, #0
    9ebc:	e0b00003 	adcs	r0, r0, r3
    9ec0:	e12fff1e 	bx	lr
    9ec4:	e3a00001 	mov	r0, #1
    9ec8:	e12fff1e 	bx	lr

00009ecc <ASCII_IsPrint>:
    9ecc:	e2400020 	sub	r0, r0, #32
    9ed0:	e350005e 	cmp	r0, #94	; 0x5e
    9ed4:	83a00000 	movhi	r0, #0
    9ed8:	93a00001 	movls	r0, #1
    9edc:	e12fff1e 	bx	lr

00009ee0 <ASCII_IsGraph>:
    9ee0:	e2400021 	sub	r0, r0, #33	; 0x21
    9ee4:	e350005d 	cmp	r0, #93	; 0x5d
    9ee8:	83a00000 	movhi	r0, #0
    9eec:	93a00001 	movls	r0, #1
    9ef0:	e12fff1e 	bx	lr

00009ef4 <ASCII_IsPunct>:
    9ef4:	e2403020 	sub	r3, r0, #32
    9ef8:	e353005e 	cmp	r3, #94	; 0x5e
    9efc:	8a00000a 	bhi	9f2c <ASCII_IsPunct+0x38>
    9f00:	e3500020 	cmp	r0, #32
    9f04:	0a000008 	beq	9f2c <ASCII_IsPunct+0x38>
    9f08:	e3c03020 	bic	r3, r0, #32
    9f0c:	e2433041 	sub	r3, r3, #65	; 0x41
    9f10:	e3530019 	cmp	r3, #25
    9f14:	9a000004 	bls	9f2c <ASCII_IsPunct+0x38>
    9f18:	e2400030 	sub	r0, r0, #48	; 0x30
    9f1c:	e3500009 	cmp	r0, #9
    9f20:	93a00000 	movls	r0, #0
    9f24:	83a00001 	movhi	r0, #1
    9f28:	e12fff1e 	bx	lr
    9f2c:	e3a00000 	mov	r0, #0
    9f30:	e12fff1e 	bx	lr

00009f34 <ASCII_IsCtrl>:
    9f34:	e350007f 	cmp	r0, #127	; 0x7f
    9f38:	1350001f 	cmpne	r0, #31
    9f3c:	83a00000 	movhi	r0, #0
    9f40:	93a00001 	movls	r0, #1
    9f44:	e12fff1e 	bx	lr

00009f48 <ASCII_ToLower>:
    9f48:	e2403041 	sub	r3, r0, #65	; 0x41
    9f4c:	e3530019 	cmp	r3, #25
    9f50:	92800020 	addls	r0, r0, #32
    9f54:	96ef0070 	uxtbls	r0, r0
    9f58:	e12fff1e 	bx	lr

00009f5c <ASCII_ToUpper>:
    9f5c:	e2403061 	sub	r3, r0, #97	; 0x61
    9f60:	e3530019 	cmp	r3, #25
    9f64:	92400020 	subls	r0, r0, #32
    9f68:	96ef0070 	uxtbls	r0, r0
    9f6c:	e12fff1e 	bx	lr

00009f70 <ASCII_Cmp>:
    9f70:	e2403061 	sub	r3, r0, #97	; 0x61
    9f74:	e3530019 	cmp	r3, #25
    9f78:	e2413061 	sub	r3, r1, #97	; 0x61
    9f7c:	92400020 	subls	r0, r0, #32
    9f80:	96ef0070 	uxtbls	r0, r0
    9f84:	e3530019 	cmp	r3, #25
    9f88:	92411020 	subls	r1, r1, #32
    9f8c:	96ef1071 	uxtbls	r1, r1
    9f90:	e0502001 	subs	r2, r0, r1
    9f94:	e2720000 	rsbs	r0, r2, #0
    9f98:	e0b00002 	adcs	r0, r0, r2
    9f9c:	e12fff1e 	bx	lr

00009fa0 <Math_RandSetSeed>:
    9fa0:	e92d4010 	push	{r4, lr}
    9fa4:	e1a04000 	mov	r4, r0
    9fa8:	eb000530 	bl	b470 <CPU_SR_Save>
    9fac:	e3013298 	movw	r3, #4760	; 0x1298
    9fb0:	e3403001 	movt	r3, #1
    9fb4:	e5834000 	str	r4, [r3]
    9fb8:	e8bd4010 	pop	{r4, lr}
    9fbc:	ea000531 	b	b488 <CPU_SR_Restore>

00009fc0 <Math_Init>:
    9fc0:	e3a00001 	mov	r0, #1
    9fc4:	eafffff5 	b	9fa0 <Math_RandSetSeed>

00009fc8 <Math_Rand>:
    9fc8:	e92d4010 	push	{r4, lr}
    9fcc:	eb000527 	bl	b470 <CPU_SR_Save>
    9fd0:	e3013298 	movw	r3, #4760	; 0x1298
    9fd4:	e3403001 	movt	r3, #1
    9fd8:	e3042e6d 	movw	r2, #20077	; 0x4e6d
    9fdc:	e34421c6 	movt	r2, #16838	; 0x41c6
    9fe0:	e5931000 	ldr	r1, [r3]
    9fe4:	e0020192 	mul	r2, r2, r1
    9fe8:	e2822a03 	add	r2, r2, #12288	; 0x3000
    9fec:	e2822039 	add	r2, r2, #57	; 0x39
    9ff0:	e3c24102 	bic	r4, r2, #-2147483648	; 0x80000000
    9ff4:	e5834000 	str	r4, [r3]
    9ff8:	eb000522 	bl	b488 <CPU_SR_Restore>
    9ffc:	e1a00004 	mov	r0, r4
    a000:	e8bd8010 	pop	{r4, pc}

0000a004 <Math_RandSeed>:
    a004:	e3043e6d 	movw	r3, #20077	; 0x4e6d
    a008:	e34431c6 	movt	r3, #16838	; 0x41c6
    a00c:	e0000093 	mul	r0, r3, r0
    a010:	e2800a03 	add	r0, r0, #12288	; 0x3000
    a014:	e2800039 	add	r0, r0, #57	; 0x39
    a018:	e3c00102 	bic	r0, r0, #-2147483648	; 0x80000000
    a01c:	e12fff1e 	bx	lr

0000a020 <Mem_Init>:
    a020:	e12fff1e 	bx	lr

0000a024 <Mem_Set>:
    a024:	e3520000 	cmp	r2, #0
    a028:	e52d4004 	push	{r4}		; (str r4, [sp, #-4]!)
    a02c:	0a000025 	beq	a0c8 <Mem_Set+0xa4>
    a030:	e3500000 	cmp	r0, #0
    a034:	0a000023 	beq	a0c8 <Mem_Set+0xa4>
    a038:	e1814401 	orr	r4, r1, r1, lsl #8
    a03c:	e2103003 	ands	r3, r0, #3
    a040:	e1a0c000 	mov	ip, r0
    a044:	e1814404 	orr	r4, r1, r4, lsl #8
    a048:	e1814404 	orr	r4, r1, r4, lsl #8
    a04c:	0a00000a 	beq	a07c <Mem_Set+0x58>
    a050:	e2522001 	subs	r2, r2, #1
    a054:	e2833001 	add	r3, r3, #1
    a058:	e4cc1001 	strb	r1, [ip], #1
    a05c:	03a00000 	moveq	r0, #0
    a060:	13a00001 	movne	r0, #1
    a064:	e3530003 	cmp	r3, #3
    a068:	83a00000 	movhi	r0, #0
    a06c:	92000001 	andls	r0, r0, #1
    a070:	e3500000 	cmp	r0, #0
    a074:	1afffff5 	bne	a050 <Mem_Set+0x2c>
    a078:	e1a0000c 	mov	r0, ip
    a07c:	e3520003 	cmp	r2, #3
    a080:	9a00000a 	bls	a0b0 <Mem_Set+0x8c>
    a084:	e1a0c000 	mov	ip, r0
    a088:	e1a03002 	mov	r3, r2
    a08c:	e2433004 	sub	r3, r3, #4
    a090:	e48c4004 	str	r4, [ip], #4
    a094:	e3530003 	cmp	r3, #3
    a098:	8afffffb 	bhi	a08c <Mem_Set+0x68>
    a09c:	e2423004 	sub	r3, r2, #4
    a0a0:	e2022003 	and	r2, r2, #3
    a0a4:	e3c33003 	bic	r3, r3, #3
    a0a8:	e2833004 	add	r3, r3, #4
    a0ac:	e0800003 	add	r0, r0, r3
    a0b0:	e3520000 	cmp	r2, #0
    a0b4:	0a000003 	beq	a0c8 <Mem_Set+0xa4>
    a0b8:	e0802002 	add	r2, r0, r2
    a0bc:	e4c01001 	strb	r1, [r0], #1
    a0c0:	e1500002 	cmp	r0, r2
    a0c4:	1afffffc 	bne	a0bc <Mem_Set+0x98>
    a0c8:	e8bd0010 	ldmfd	sp!, {r4}
    a0cc:	e12fff1e 	bx	lr

0000a0d0 <Mem_Clr>:
    a0d0:	e1a02001 	mov	r2, r1
    a0d4:	e3a01000 	mov	r1, #0
    a0d8:	eaffffd1 	b	a024 <Mem_Set>

0000a0dc <Mem_Cmp>:
    a0dc:	e252c000 	subs	ip, r2, #0
    a0e0:	e92d01f0 	push	{r4, r5, r6, r7, r8}
    a0e4:	03a00001 	moveq	r0, #1
    a0e8:	0a000016 	beq	a148 <Mem_Cmp+0x6c>
    a0ec:	e3500000 	cmp	r0, #0
    a0f0:	0a000014 	beq	a148 <Mem_Cmp+0x6c>
    a0f4:	e3510000 	cmp	r1, #0
    a0f8:	0a000014 	beq	a150 <Mem_Cmp+0x74>
    a0fc:	e080300c 	add	r3, r0, ip
    a100:	e081200c 	add	r2, r1, ip
    a104:	e2036003 	and	r6, r3, #3
    a108:	e2021003 	and	r1, r2, #3
    a10c:	e1560001 	cmp	r6, r1
    a110:	0a000010 	beq	a158 <Mem_Cmp+0x7c>
    a114:	e1a0400c 	mov	r4, ip
    a118:	e0634004 	rsb	r4, r3, r4
    a11c:	e573c001 	ldrb	ip, [r3, #-1]!
    a120:	e5720001 	ldrb	r0, [r2, #-1]!
    a124:	e0841003 	add	r1, r4, r3
    a128:	e05cc000 	subs	ip, ip, r0
    a12c:	e27c0000 	rsbs	r0, ip, #0
    a130:	e0b0000c 	adcs	r0, r0, ip
    a134:	e3510000 	cmp	r1, #0
    a138:	03a01000 	moveq	r1, #0
    a13c:	12001001 	andne	r1, r0, #1
    a140:	e3510000 	cmp	r1, #0
    a144:	1afffff4 	bne	a11c <Mem_Cmp+0x40>
    a148:	e8bd01f0 	pop	{r4, r5, r6, r7, r8}
    a14c:	e12fff1e 	bx	lr
    a150:	e1a00001 	mov	r0, r1
    a154:	eafffffb 	b	a148 <Mem_Cmp+0x6c>
    a158:	e3560000 	cmp	r6, #0
    a15c:	0a000018 	beq	a1c4 <Mem_Cmp+0xe8>
    a160:	e2435001 	sub	r5, r3, #1
    a164:	e2421001 	sub	r1, r2, #1
    a168:	e1a0400c 	mov	r4, ip
    a16c:	ea000001 	b	a178 <Mem_Cmp+0x9c>
    a170:	e3580000 	cmp	r8, #0
    a174:	0a000013 	beq	a1c8 <Mem_Cmp+0xec>
    a178:	e5d10000 	ldrb	r0, [r1]
    a17c:	e1a03005 	mov	r3, r5
    a180:	e5d57000 	ldrb	r7, [r5]
    a184:	e1a02001 	mov	r2, r1
    a188:	e2455001 	sub	r5, r5, #1
    a18c:	e2411001 	sub	r1, r1, #1
    a190:	e0577000 	subs	r7, r7, r0
    a194:	e2770000 	rsbs	r0, r7, #0
    a198:	e0b00007 	adcs	r0, r0, r7
    a19c:	e2544001 	subs	r4, r4, #1
    a1a0:	e06c7004 	rsb	r7, ip, r4
    a1a4:	e0878006 	add	r8, r7, r6
    a1a8:	03a07000 	moveq	r7, #0
    a1ac:	12007001 	andne	r7, r0, #1
    a1b0:	e3570000 	cmp	r7, #0
    a1b4:	1affffed 	bne	a170 <Mem_Cmp+0x94>
    a1b8:	e3500000 	cmp	r0, #0
    a1bc:	0affffe1 	beq	a148 <Mem_Cmp+0x6c>
    a1c0:	ea000000 	b	a1c8 <Mem_Cmp+0xec>
    a1c4:	e1a0400c 	mov	r4, ip
    a1c8:	e3540003 	cmp	r4, #3
    a1cc:	9a000017 	bls	a230 <Mem_Cmp+0x154>
    a1d0:	e2430004 	sub	r0, r3, #4
    a1d4:	e2421004 	sub	r1, r2, #4
    a1d8:	e591c000 	ldr	ip, [r1]
    a1dc:	e2444004 	sub	r4, r4, #4
    a1e0:	e5905000 	ldr	r5, [r0]
    a1e4:	e1a03000 	mov	r3, r0
    a1e8:	e1a02001 	mov	r2, r1
    a1ec:	e2400004 	sub	r0, r0, #4
    a1f0:	e055500c 	subs	r5, r5, ip
    a1f4:	e2411004 	sub	r1, r1, #4
    a1f8:	e275c000 	rsbs	ip, r5, #0
    a1fc:	e0bcc005 	adcs	ip, ip, r5
    a200:	e3540003 	cmp	r4, #3
    a204:	93a05000 	movls	r5, #0
    a208:	820c5001 	andhi	r5, ip, #1
    a20c:	e3550000 	cmp	r5, #0
    a210:	1afffff0 	bne	a1d8 <Mem_Cmp+0xfc>
    a214:	e1a0000c 	mov	r0, ip
    a218:	e3540000 	cmp	r4, #0
    a21c:	03a0c000 	moveq	ip, #0
    a220:	120cc001 	andne	ip, ip, #1
    a224:	e35c0000 	cmp	ip, #0
    a228:	1affffba 	bne	a118 <Mem_Cmp+0x3c>
    a22c:	eaffffc5 	b	a148 <Mem_Cmp+0x6c>
    a230:	e3a0c001 	mov	ip, #1
    a234:	eafffff6 	b	a214 <Mem_Cmp+0x138>

0000a238 <Str_ParseNbr_Int32>:
    a238:	e92d4ff0 	push	{r4, r5, r6, r7, r8, r9, sl, fp, lr}
    a23c:	e24dd014 	sub	sp, sp, #20
    a240:	e1a06002 	mov	r6, r2
    a244:	e251a000 	subs	sl, r1, #0
    a248:	e59d2038 	ldr	r2, [sp, #56]	; 0x38
    a24c:	028da00c 	addeq	sl, sp, #12
    a250:	e1a09003 	mov	r9, r3
    a254:	e3a08000 	mov	r8, #0
    a258:	e3520000 	cmp	r2, #0
    a25c:	e58a0000 	str	r0, [sl]
    a260:	028d300b 	addeq	r3, sp, #11
    a264:	058d3038 	streq	r3, [sp, #56]	; 0x38
    a268:	e59d2038 	ldr	r2, [sp, #56]	; 0x38
    a26c:	e3500000 	cmp	r0, #0
    a270:	e1a07000 	mov	r7, r0
    a274:	e5c28000 	strb	r8, [r2]
    a278:	0a000069 	beq	a424 <Str_ParseNbr_Int32+0x1ec>
    a27c:	e2562001 	subs	r2, r6, #1
    a280:	e2723000 	rsbs	r3, r2, #0
    a284:	e0b33002 	adcs	r3, r3, r2
    a288:	e3560024 	cmp	r6, #36	; 0x24
    a28c:	83833001 	orrhi	r3, r3, #1
    a290:	e1530008 	cmp	r3, r8
    a294:	0a000002 	beq	a2a4 <Str_ParseNbr_Int32+0x6c>
    a298:	e1a00008 	mov	r0, r8
    a29c:	e28dd014 	add	sp, sp, #20
    a2a0:	e8bd8ff0 	pop	{r4, r5, r6, r7, r8, r9, sl, fp, pc}
    a2a4:	e5d00000 	ldrb	r0, [r0]
    a2a8:	ebfffefa 	bl	9e98 <ASCII_IsSpace>
    a2ac:	e3500001 	cmp	r0, #1
    a2b0:	1a00005d 	bne	a42c <Str_ParseNbr_Int32+0x1f4>
    a2b4:	e2874001 	add	r4, r7, #1
    a2b8:	e1a05004 	mov	r5, r4
    a2bc:	e2844001 	add	r4, r4, #1
    a2c0:	e5d50000 	ldrb	r0, [r5]
    a2c4:	ebfffef3 	bl	9e98 <ASCII_IsSpace>
    a2c8:	e3500001 	cmp	r0, #1
    a2cc:	0afffff9 	beq	a2b8 <Str_ParseNbr_Int32+0x80>
    a2d0:	e5d54000 	ldrb	r4, [r5]
    a2d4:	e354002b 	cmp	r4, #43	; 0x2b
    a2d8:	0a00004c 	beq	a410 <Str_ParseNbr_Int32+0x1d8>
    a2dc:	e354002d 	cmp	r4, #45	; 0x2d
    a2e0:	13a02000 	movne	r2, #0
    a2e4:	158d2004 	strne	r2, [sp, #4]
    a2e8:	0a00001b 	beq	a35c <Str_ParseNbr_Int32+0x124>
    a2ec:	e3560008 	cmp	r6, #8
    a2f0:	0a000021 	beq	a37c <Str_ParseNbr_Int32+0x144>
    a2f4:	e3560010 	cmp	r6, #16
    a2f8:	0a000024 	beq	a390 <Str_ParseNbr_Int32+0x158>
    a2fc:	e3560000 	cmp	r6, #0
    a300:	1a000024 	bne	a398 <Str_ParseNbr_Int32+0x160>
    a304:	e3540030 	cmp	r4, #48	; 0x30
    a308:	11a09005 	movne	r9, r5
    a30c:	13a0600a 	movne	r6, #10
    a310:	0a000054 	beq	a468 <Str_ParseNbr_Int32+0x230>
    a314:	e3a0b000 	mov	fp, #0
    a318:	e30d2bdc 	movw	r2, #56284	; 0xdbdc
    a31c:	e1a0800b 	mov	r8, fp
    a320:	e3402000 	movt	r2, #0
    a324:	e58d2000 	str	r2, [sp]
    a328:	e1a00004 	mov	r0, r4
    a32c:	ebfffea9 	bl	9dd8 <ASCII_IsAlphaNum>
    a330:	e3500001 	cmp	r0, #1
    a334:	0a000019 	beq	a3a0 <Str_ParseNbr_Int32+0x168>
    a338:	e35b0001 	cmp	fp, #1
    a33c:	e59d3004 	ldr	r3, [sp, #4]
    a340:	e59d2038 	ldr	r2, [sp, #56]	; 0x38
    a344:	03e08000 	mvneq	r8, #0
    a348:	e1550009 	cmp	r5, r9
    a34c:	01a09007 	moveq	r9, r7
    a350:	e58a9000 	str	r9, [sl]
    a354:	e5c23000 	strb	r3, [r2]
    a358:	eaffffce 	b	a298 <Str_ParseNbr_Int32+0x60>
    a35c:	e3590001 	cmp	r9, #1
    a360:	058d9004 	streq	r9, [sp, #4]
    a364:	05d54001 	ldrbeq	r4, [r5, #1]
    a368:	13a03001 	movne	r3, #1
    a36c:	02855001 	addeq	r5, r5, #1
    a370:	158d3004 	strne	r3, [sp, #4]
    a374:	e3560008 	cmp	r6, #8
    a378:	1affffdd 	bne	a2f4 <Str_ParseNbr_Int32+0xbc>
    a37c:	e3540030 	cmp	r4, #48	; 0x30
    a380:	1a000004 	bne	a398 <Str_ParseNbr_Int32+0x160>
    a384:	e2859001 	add	r9, r5, #1
    a388:	e5d54001 	ldrb	r4, [r5, #1]
    a38c:	eaffffe0 	b	a314 <Str_ParseNbr_Int32+0xdc>
    a390:	e3540030 	cmp	r4, #48	; 0x30
    a394:	0a000026 	beq	a434 <Str_ParseNbr_Int32+0x1fc>
    a398:	e1a09005 	mov	r9, r5
    a39c:	eaffffdc 	b	a314 <Str_ParseNbr_Int32+0xdc>
    a3a0:	e1a00004 	mov	r0, r4
    a3a4:	ebfffea0 	bl	9e2c <ASCII_IsDig>
    a3a8:	e3500001 	cmp	r0, #1
    a3ac:	02444030 	subeq	r4, r4, #48	; 0x30
    a3b0:	06ef4074 	uxtbeq	r4, r4
    a3b4:	0a000005 	beq	a3d0 <Str_ParseNbr_Int32+0x198>
    a3b8:	e1a00004 	mov	r0, r4
    a3bc:	ebfffe90 	bl	9e04 <ASCII_IsLower>
    a3c0:	e3500001 	cmp	r0, #1
    a3c4:	02444057 	subeq	r4, r4, #87	; 0x57
    a3c8:	12444037 	subne	r4, r4, #55	; 0x37
    a3cc:	e6ef4074 	uxtb	r4, r4
    a3d0:	e1560004 	cmp	r6, r4
    a3d4:	9affffd7 	bls	a338 <Str_ParseNbr_Int32+0x100>
    a3d8:	e35b0000 	cmp	fp, #0
    a3dc:	1a000009 	bne	a408 <Str_ParseNbr_Int32+0x1d0>
    a3e0:	e59d2000 	ldr	r2, [sp]
    a3e4:	e7923106 	ldr	r3, [r2, r6, lsl #2]
    a3e8:	e1530008 	cmp	r3, r8
    a3ec:	3a000005 	bcc	a408 <Str_ParseNbr_Int32+0x1d0>
    a3f0:	e0284896 	mla	r8, r6, r8, r4
    a3f4:	e1540008 	cmp	r4, r8
    a3f8:	93a0b000 	movls	fp, #0
    a3fc:	83a0b001 	movhi	fp, #1
    a400:	e5f94001 	ldrb	r4, [r9, #1]!
    a404:	eaffffc7 	b	a328 <Str_ParseNbr_Int32+0xf0>
    a408:	e3a0b001 	mov	fp, #1
    a40c:	eafffffb 	b	a400 <Str_ParseNbr_Int32+0x1c8>
    a410:	e5d54001 	ldrb	r4, [r5, #1]
    a414:	e3a03000 	mov	r3, #0
    a418:	e2855001 	add	r5, r5, #1
    a41c:	e58d3004 	str	r3, [sp, #4]
    a420:	eaffffb1 	b	a2ec <Str_ParseNbr_Int32+0xb4>
    a424:	e1a08000 	mov	r8, r0
    a428:	eaffff9a 	b	a298 <Str_ParseNbr_Int32+0x60>
    a42c:	e1a05007 	mov	r5, r7
    a430:	eaffffa6 	b	a2d0 <Str_ParseNbr_Int32+0x98>
    a434:	e5d54001 	ldrb	r4, [r5, #1]
    a438:	e2859001 	add	r9, r5, #1
    a43c:	e3540058 	cmp	r4, #88	; 0x58
    a440:	0a000001 	beq	a44c <Str_ParseNbr_Int32+0x214>
    a444:	e3540078 	cmp	r4, #120	; 0x78
    a448:	1affffb1 	bne	a314 <Str_ParseNbr_Int32+0xdc>
    a44c:	e5d50002 	ldrb	r0, [r5, #2]
    a450:	ebfffe7f 	bl	9e54 <ASCII_IsDigHex>
    a454:	e3500001 	cmp	r0, #1
    a458:	02859002 	addeq	r9, r5, #2
    a45c:	15d54001 	ldrbne	r4, [r5, #1]
    a460:	05d54002 	ldrbeq	r4, [r5, #2]
    a464:	eaffffaa 	b	a314 <Str_ParseNbr_Int32+0xdc>
    a468:	e5d54001 	ldrb	r4, [r5, #1]
    a46c:	e2859001 	add	r9, r5, #1
    a470:	e3540058 	cmp	r4, #88	; 0x58
    a474:	0a000002 	beq	a484 <Str_ParseNbr_Int32+0x24c>
    a478:	e3540078 	cmp	r4, #120	; 0x78
    a47c:	13a06008 	movne	r6, #8
    a480:	1affffa3 	bne	a314 <Str_ParseNbr_Int32+0xdc>
    a484:	e5d50002 	ldrb	r0, [r5, #2]
    a488:	e3a06010 	mov	r6, #16
    a48c:	ebfffe70 	bl	9e54 <ASCII_IsDigHex>
    a490:	e3500001 	cmp	r0, #1
    a494:	02859002 	addeq	r9, r5, #2
    a498:	15d54001 	ldrbne	r4, [r5, #1]
    a49c:	05d54002 	ldrbeq	r4, [r5, #2]
    a4a0:	eaffff9b 	b	a314 <Str_ParseNbr_Int32+0xdc>

0000a4a4 <Str_FmtNbr_Int32>:
    a4a4:	e92d4ff0 	push	{r4, r5, r6, r7, r8, r9, sl, fp, lr}
    a4a8:	e24dd01c 	sub	sp, sp, #28
    a4ac:	e1a05002 	mov	r5, r2
    a4b0:	e1a04000 	mov	r4, r0
    a4b4:	e59dc04c 	ldr	ip, [sp, #76]	; 0x4c
    a4b8:	e1a08001 	mov	r8, r1
    a4bc:	e5dd2044 	ldrb	r2, [sp, #68]	; 0x44
    a4c0:	e35c0000 	cmp	ip, #0
    a4c4:	e58d3004 	str	r3, [sp, #4]
    a4c8:	e5dd7040 	ldrb	r7, [sp, #64]	; 0x40
    a4cc:	e58d200c 	str	r2, [sp, #12]
    a4d0:	0a00009f 	beq	a754 <Str_FmtNbr_Int32+0x2b0>
    a4d4:	e2453002 	sub	r3, r5, #2
    a4d8:	e3530022 	cmp	r3, #34	; 0x22
    a4dc:	83a06001 	movhi	r6, #1
    a4e0:	9a000074 	bls	a6b8 <Str_FmtNbr_Int32+0x214>
    a4e4:	e3570000 	cmp	r7, #0
    a4e8:	1a000076 	bne	a6c8 <Str_FmtNbr_Int32+0x224>
    a4ec:	e3560000 	cmp	r6, #0
    a4f0:	1a000022 	bne	a580 <Str_FmtNbr_Int32+0xdc>
    a4f4:	e1540005 	cmp	r4, r5
    a4f8:	3a000098 	bcc	a760 <Str_FmtNbr_Int32+0x2bc>
    a4fc:	e1a00004 	mov	r0, r4
    a500:	e3a0b001 	mov	fp, #1
    a504:	e1a01005 	mov	r1, r5
    a508:	e28bb001 	add	fp, fp, #1
    a50c:	eb000ba6 	bl	d3ac <__aeabi_uidiv>
    a510:	e6efb07b 	uxtb	fp, fp
    a514:	e1500005 	cmp	r0, r5
    a518:	2afffff9 	bcs	a504 <Str_FmtNbr_Int32+0x60>
    a51c:	e1a0200b 	mov	r2, fp
    a520:	e59dc004 	ldr	ip, [sp, #4]
    a524:	e25c0001 	subs	r0, ip, #1
    a528:	e2703000 	rsbs	r3, r0, #0
    a52c:	e0b33000 	adcs	r3, r3, r0
    a530:	e0822003 	add	r2, r2, r3
    a534:	e1580002 	cmp	r8, r2
    a538:	ba00000f 	blt	a57c <Str_FmtNbr_Int32+0xd8>
    a53c:	e15b0008 	cmp	fp, r8
    a540:	21a0b008 	movcs	fp, r8
    a544:	e3570000 	cmp	r7, #0
    a548:	0a00007c 	beq	a740 <Str_FmtNbr_Int32+0x29c>
    a54c:	e06b2008 	rsb	r2, fp, r8
    a550:	e1a0a008 	mov	sl, r8
    a554:	e6ef2072 	uxtb	r2, r2
    a558:	e1530002 	cmp	r3, r2
    a55c:	03a0c000 	moveq	ip, #0
    a560:	058dc010 	streq	ip, [sp, #16]
    a564:	0a000078 	beq	a74c <Str_FmtNbr_Int32+0x2a8>
    a568:	e2571030 	subs	r1, r7, #48	; 0x30
    a56c:	e271c000 	rsbs	ip, r1, #0
    a570:	e0bcc001 	adcs	ip, ip, r1
    a574:	e58dc010 	str	ip, [sp, #16]
    a578:	ea000073 	b	a74c <Str_FmtNbr_Int32+0x2a8>
    a57c:	e1a0b004 	mov	fp, r4
    a580:	e1a0a008 	mov	sl, r8
    a584:	e3a06001 	mov	r6, #1
    a588:	e5dd3048 	ldrb	r3, [sp, #72]	; 0x48
    a58c:	e59dc04c 	ldr	ip, [sp, #76]	; 0x4c
    a590:	e3530000 	cmp	r3, #0
    a594:	e08c300a 	add	r3, ip, sl
    a598:	13a01000 	movne	r1, #0
    a59c:	17cc100a 	strbne	r1, [ip, sl]
    a5a0:	e35a0000 	cmp	sl, #0
    a5a4:	e2439001 	sub	r9, r3, #1
    a5a8:	0a000032 	beq	a678 <Str_FmtNbr_Int32+0x1d4>
    a5ac:	e24a3001 	sub	r3, sl, #1
    a5b0:	e3a02000 	mov	r2, #0
    a5b4:	e58d3014 	str	r3, [sp, #20]
    a5b8:	e1a03006 	mov	r3, r6
    a5bc:	e58d2008 	str	r2, [sp, #8]
    a5c0:	e1a0600b 	mov	r6, fp
    a5c4:	e1a04002 	mov	r4, r2
    a5c8:	e1a0b00a 	mov	fp, sl
    a5cc:	e3a0803f 	mov	r8, #63	; 0x3f
    a5d0:	e1a0a003 	mov	sl, r3
    a5d4:	ea000013 	b	a628 <Str_FmtNbr_Int32+0x184>
    a5d8:	e1a00006 	mov	r0, r6
    a5dc:	e1a01005 	mov	r1, r5
    a5e0:	eb000bec 	bl	d598 <__aeabi_uidivmod>
    a5e4:	e6ef1071 	uxtb	r1, r1
    a5e8:	e3510009 	cmp	r1, #9
    a5ec:	92811030 	addls	r1, r1, #48	; 0x30
    a5f0:	94491001 	strbls	r1, [r9], #-1
    a5f4:	9a000004 	bls	a60c <Str_FmtNbr_Int32+0x168>
    a5f8:	e59dc00c 	ldr	ip, [sp, #12]
    a5fc:	e35c0001 	cmp	ip, #1
    a600:	12811037 	addne	r1, r1, #55	; 0x37
    a604:	02811057 	addeq	r1, r1, #87	; 0x57
    a608:	e4491001 	strb	r1, [r9], #-1
    a60c:	e1a00006 	mov	r0, r6
    a610:	e1a01005 	mov	r1, r5
    a614:	eb000b64 	bl	d3ac <__aeabi_uidiv>
    a618:	e1a06000 	mov	r6, r0
    a61c:	e2844001 	add	r4, r4, #1
    a620:	e15b0004 	cmp	fp, r4
    a624:	9a000012 	bls	a674 <Str_FmtNbr_Int32+0x1d0>
    a628:	e35a0000 	cmp	sl, #0
    a62c:	14498001 	strbne	r8, [r9], #-1
    a630:	1afffff9 	bne	a61c <Str_FmtNbr_Int32+0x178>
    a634:	e2961000 	adds	r1, r6, #0
    a638:	13a01001 	movne	r1, #1
    a63c:	e3540000 	cmp	r4, #0
    a640:	03811001 	orreq	r1, r1, #1
    a644:	e3510000 	cmp	r1, #0
    a648:	1affffe2 	bne	a5d8 <Str_FmtNbr_Int32+0x134>
    a64c:	e59d2004 	ldr	r2, [sp, #4]
    a650:	e3520001 	cmp	r2, #1
    a654:	0a00000c 	beq	a68c <Str_FmtNbr_Int32+0x1e8>
    a658:	e3570000 	cmp	r7, #0
    a65c:	e2844001 	add	r4, r4, #1
    a660:	14497001 	strbne	r7, [r9], #-1
    a664:	13a06000 	movne	r6, #0
    a668:	01a06007 	moveq	r6, r7
    a66c:	e15b0004 	cmp	fp, r4
    a670:	8affffec 	bhi	a628 <Str_FmtNbr_Int32+0x184>
    a674:	e1a0600a 	mov	r6, sl
    a678:	e3560000 	cmp	r6, #0
    a67c:	1a000034 	bne	a754 <Str_FmtNbr_Int32+0x2b0>
    a680:	e59d004c 	ldr	r0, [sp, #76]	; 0x4c
    a684:	e28dd01c 	add	sp, sp, #28
    a688:	e8bd8ff0 	pop	{r4, r5, r6, r7, r8, r9, sl, fp, pc}
    a68c:	e59d3008 	ldr	r3, [sp, #8]
    a690:	e59dc010 	ldr	ip, [sp, #16]
    a694:	e183100c 	orr	r1, r3, ip
    a698:	e31100ff 	tst	r1, #255	; 0xff
    a69c:	1a000021 	bne	a728 <Str_FmtNbr_Int32+0x284>
    a6a0:	e3a0302d 	mov	r3, #45	; 0x2d
    a6a4:	e3a0c001 	mov	ip, #1
    a6a8:	e4493001 	strb	r3, [r9], #-1
    a6ac:	e3a06000 	mov	r6, #0
    a6b0:	e58dc008 	str	ip, [sp, #8]
    a6b4:	eaffffd8 	b	a61c <Str_FmtNbr_Int32+0x178>
    a6b8:	e2716001 	rsbs	r6, r1, #1
    a6bc:	33a06000 	movcc	r6, #0
    a6c0:	e3570000 	cmp	r7, #0
    a6c4:	0affff88 	beq	a4ec <Str_FmtNbr_Int32+0x48>
    a6c8:	e1a00007 	mov	r0, r7
    a6cc:	ebfffdfe 	bl	9ecc <ASCII_IsPrint>
    a6d0:	e3500001 	cmp	r0, #1
    a6d4:	1affffa9 	bne	a580 <Str_FmtNbr_Int32+0xdc>
    a6d8:	e3570030 	cmp	r7, #48	; 0x30
    a6dc:	0affff82 	beq	a4ec <Str_FmtNbr_Int32+0x48>
    a6e0:	e59d200c 	ldr	r2, [sp, #12]
    a6e4:	e2473030 	sub	r3, r7, #48	; 0x30
    a6e8:	e3520001 	cmp	r2, #1
    a6ec:	e6ef3073 	uxtb	r3, r3
    a6f0:	12472041 	subne	r2, r7, #65	; 0x41
    a6f4:	02472061 	subeq	r2, r7, #97	; 0x61
    a6f8:	e355000a 	cmp	r5, #10
    a6fc:	91530005 	cmpls	r3, r5
    a700:	e6ef2072 	uxtb	r2, r2
    a704:	3affff9d 	bcc	a580 <Str_FmtNbr_Int32+0xdc>
    a708:	e355000a 	cmp	r5, #10
    a70c:	9affff76 	bls	a4ec <Str_FmtNbr_Int32+0x48>
    a710:	e3530009 	cmp	r3, #9
    a714:	9affff99 	bls	a580 <Str_FmtNbr_Int32+0xdc>
    a718:	e245300a 	sub	r3, r5, #10
    a71c:	e1520003 	cmp	r2, r3
    a720:	3affff96 	bcc	a580 <Str_FmtNbr_Int32+0xdc>
    a724:	eaffff70 	b	a4ec <Str_FmtNbr_Int32+0x48>
    a728:	e35c0000 	cmp	ip, #0
    a72c:	0affffc9 	beq	a658 <Str_FmtNbr_Int32+0x1b4>
    a730:	e59d2014 	ldr	r2, [sp, #20]
    a734:	e1520004 	cmp	r2, r4
    a738:	1affffc6 	bne	a658 <Str_FmtNbr_Int32+0x1b4>
    a73c:	eaffffd7 	b	a6a0 <Str_FmtNbr_Int32+0x1fc>
    a740:	e08b3003 	add	r3, fp, r3
    a744:	e58d7010 	str	r7, [sp, #16]
    a748:	e6efa073 	uxtb	sl, r3
    a74c:	e1a0b004 	mov	fp, r4
    a750:	eaffff8c 	b	a588 <Str_FmtNbr_Int32+0xe4>
    a754:	e3a0c000 	mov	ip, #0
    a758:	e58dc04c 	str	ip, [sp, #76]	; 0x4c
    a75c:	eaffffc7 	b	a680 <Str_FmtNbr_Int32+0x1dc>
    a760:	e3a02001 	mov	r2, #1
    a764:	e1a0b002 	mov	fp, r2
    a768:	eaffff6c 	b	a520 <Str_FmtNbr_Int32+0x7c>

0000a76c <Str_Len>:
    a76c:	e2503000 	subs	r3, r0, #0
    a770:	0a00000c 	beq	a7a8 <Str_Len+0x3c>
    a774:	e5d30000 	ldrb	r0, [r3]
    a778:	e3500000 	cmp	r0, #0
    a77c:	012fff1e 	bxeq	lr
    a780:	e3a00000 	mov	r0, #0
    a784:	e3730001 	cmn	r3, #1
    a788:	e2800001 	add	r0, r0, #1
    a78c:	012fff1e 	bxeq	lr
    a790:	e5f32001 	ldrb	r2, [r3, #1]!
    a794:	e3520000 	cmp	r2, #0
    a798:	012fff1e 	bxeq	lr
    a79c:	e3700001 	cmn	r0, #1
    a7a0:	1afffff7 	bne	a784 <Str_Len+0x18>
    a7a4:	e12fff1e 	bx	lr
    a7a8:	e1a00003 	mov	r0, r3
    a7ac:	e12fff1e 	bx	lr

0000a7b0 <Str_Len_N>:
    a7b0:	e2503000 	subs	r3, r0, #0
    a7b4:	0a00000e 	beq	a7f4 <Str_Len_N+0x44>
    a7b8:	e5d30000 	ldrb	r0, [r3]
    a7bc:	e3500000 	cmp	r0, #0
    a7c0:	012fff1e 	bxeq	lr
    a7c4:	e3510000 	cmp	r1, #0
    a7c8:	0a00000b 	beq	a7fc <Str_Len_N+0x4c>
    a7cc:	e3a00000 	mov	r0, #0
    a7d0:	e3730001 	cmn	r3, #1
    a7d4:	e2800001 	add	r0, r0, #1
    a7d8:	012fff1e 	bxeq	lr
    a7dc:	e5f32001 	ldrb	r2, [r3, #1]!
    a7e0:	e3520000 	cmp	r2, #0
    a7e4:	012fff1e 	bxeq	lr
    a7e8:	e1500001 	cmp	r0, r1
    a7ec:	1afffff7 	bne	a7d0 <Str_Len_N+0x20>
    a7f0:	e12fff1e 	bx	lr
    a7f4:	e1a00003 	mov	r0, r3
    a7f8:	e12fff1e 	bx	lr
    a7fc:	e1a00001 	mov	r0, r1
    a800:	e12fff1e 	bx	lr

0000a804 <Str_Copy_N>:
    a804:	e3500000 	cmp	r0, #0
    a808:	e92d0070 	push	{r4, r5, r6}
    a80c:	0a00001e 	beq	a88c <Str_Copy_N+0x88>
    a810:	e3510000 	cmp	r1, #0
    a814:	0a00001c 	beq	a88c <Str_Copy_N+0x88>
    a818:	e5d1c000 	ldrb	ip, [r1]
    a81c:	e35c0000 	cmp	ip, #0
    a820:	0a00001b 	beq	a894 <Str_Copy_N+0x90>
    a824:	e3520000 	cmp	r2, #0
    a828:	0a000015 	beq	a884 <Str_Copy_N+0x80>
    a82c:	e2811001 	add	r1, r1, #1
    a830:	e1a03000 	mov	r3, r0
    a834:	e3a04000 	mov	r4, #0
    a838:	ea000004 	b	a850 <Str_Copy_N+0x4c>
    a83c:	e4d1c001 	ldrb	ip, [r1], #1
    a840:	e35c0000 	cmp	ip, #0
    a844:	0a000008 	beq	a86c <Str_Copy_N+0x68>
    a848:	e1540002 	cmp	r4, r2
    a84c:	0a000006 	beq	a86c <Str_Copy_N+0x68>
    a850:	e4c3c001 	strb	ip, [r3], #1
    a854:	e3530000 	cmp	r3, #0
    a858:	13510000 	cmpne	r1, #0
    a85c:	e1a05001 	mov	r5, r1
    a860:	e2844001 	add	r4, r4, #1
    a864:	e1a06003 	mov	r6, r3
    a868:	1afffff3 	bne	a83c <Str_Copy_N+0x38>
    a86c:	e3530000 	cmp	r3, #0
    a870:	13550000 	cmpne	r5, #0
    a874:	0a000004 	beq	a88c <Str_Copy_N+0x88>
    a878:	e1520004 	cmp	r2, r4
    a87c:	83a03000 	movhi	r3, #0
    a880:	85c63000 	strbhi	r3, [r6]
    a884:	e8bd0070 	pop	{r4, r5, r6}
    a888:	e12fff1e 	bx	lr
    a88c:	e3a00000 	mov	r0, #0
    a890:	eafffffb 	b	a884 <Str_Copy_N+0x80>
    a894:	e1a06000 	mov	r6, r0
    a898:	e1a0400c 	mov	r4, ip
    a89c:	eafffff5 	b	a878 <Str_Copy_N+0x74>

0000a8a0 <Str_Copy>:
    a8a0:	e3e02000 	mvn	r2, #0
    a8a4:	eaffffd6 	b	a804 <Str_Copy_N>

0000a8a8 <Str_Cat_N>:
    a8a8:	e3500000 	cmp	r0, #0
    a8ac:	e92d0030 	push	{r4, r5}
    a8b0:	0a00000b 	beq	a8e4 <Str_Cat_N+0x3c>
    a8b4:	e3510000 	cmp	r1, #0
    a8b8:	0a000009 	beq	a8e4 <Str_Cat_N+0x3c>
    a8bc:	e3520000 	cmp	r2, #0
    a8c0:	11a03000 	movne	r3, r0
    a8c4:	0a000007 	beq	a8e8 <Str_Cat_N+0x40>
    a8c8:	e1a0c003 	mov	ip, r3
    a8cc:	e2833001 	add	r3, r3, #1
    a8d0:	e5dc4000 	ldrb	r4, [ip]
    a8d4:	e3540000 	cmp	r4, #0
    a8d8:	0a000004 	beq	a8f0 <Str_Cat_N+0x48>
    a8dc:	e3530000 	cmp	r3, #0
    a8e0:	1afffff8 	bne	a8c8 <Str_Cat_N+0x20>
    a8e4:	e3a00000 	mov	r0, #0
    a8e8:	e8bd0030 	pop	{r4, r5}
    a8ec:	e12fff1e 	bx	lr
    a8f0:	e35c0000 	cmp	ip, #0
    a8f4:	0afffffa 	beq	a8e4 <Str_Cat_N+0x3c>
    a8f8:	e5d14000 	ldrb	r4, [r1]
    a8fc:	e3540000 	cmp	r4, #0
    a900:	0a000015 	beq	a95c <Str_Cat_N+0xb4>
    a904:	e1a0300c 	mov	r3, ip
    a908:	e2811001 	add	r1, r1, #1
    a90c:	e08c2002 	add	r2, ip, r2
    a910:	ea000001 	b	a91c <Str_Cat_N+0x74>
    a914:	e1530002 	cmp	r3, r2
    a918:	0a000008 	beq	a940 <Str_Cat_N+0x98>
    a91c:	e4c34001 	strb	r4, [r3], #1
    a920:	e3530000 	cmp	r3, #0
    a924:	13510000 	cmpne	r1, #0
    a928:	e1a05001 	mov	r5, r1
    a92c:	e1a0c003 	mov	ip, r3
    a930:	0a000002 	beq	a940 <Str_Cat_N+0x98>
    a934:	e4d14001 	ldrb	r4, [r1], #1
    a938:	e3540000 	cmp	r4, #0
    a93c:	1afffff4 	bne	a914 <Str_Cat_N+0x6c>
    a940:	e35c0000 	cmp	ip, #0
    a944:	13550000 	cmpne	r5, #0
    a948:	13a05000 	movne	r5, #0
    a94c:	03a05001 	moveq	r5, #1
    a950:	0affffe3 	beq	a8e4 <Str_Cat_N+0x3c>
    a954:	e5cc5000 	strb	r5, [ip]
    a958:	eaffffe2 	b	a8e8 <Str_Cat_N+0x40>
    a95c:	e1a05001 	mov	r5, r1
    a960:	eafffff6 	b	a940 <Str_Cat_N+0x98>

0000a964 <Str_Cat>:
    a964:	e3e02000 	mvn	r2, #0
    a968:	eaffffce 	b	a8a8 <Str_Cat_N>

0000a96c <Str_Cmp_N>:
    a96c:	e3520000 	cmp	r2, #0
    a970:	e92d0030 	push	{r4, r5}
    a974:	0a000022 	beq	aa04 <Str_Cmp_N+0x98>
    a978:	e3500000 	cmp	r0, #0
    a97c:	0a000029 	beq	aa28 <Str_Cmp_N+0xbc>
    a980:	e3510000 	cmp	r1, #0
    a984:	05d02000 	ldrbeq	r2, [r0]
    a988:	0a00001d 	beq	aa04 <Str_Cmp_N+0x98>
    a98c:	e5d15000 	ldrb	r5, [r1]
    a990:	e2803001 	add	r3, r0, #1
    a994:	e5d0c000 	ldrb	ip, [r0]
    a998:	e2811001 	add	r1, r1, #1
    a99c:	e15c0005 	cmp	ip, r5
    a9a0:	1a000016 	bne	aa00 <Str_Cmp_N+0x94>
    a9a4:	e35c0000 	cmp	ip, #0
    a9a8:	0a000023 	beq	aa3c <Str_Cmp_N+0xd0>
    a9ac:	e3510000 	cmp	r1, #0
    a9b0:	13530000 	cmpne	r3, #0
    a9b4:	0a000018 	beq	aa1c <Str_Cmp_N+0xb0>
    a9b8:	e3a04000 	mov	r4, #0
    a9bc:	ea000008 	b	a9e4 <Str_Cmp_N+0x78>
    a9c0:	e35c0000 	cmp	ip, #0
    a9c4:	0a00001c 	beq	aa3c <Str_Cmp_N+0xd0>
    a9c8:	e3510000 	cmp	r1, #0
    a9cc:	13530000 	cmpne	r3, #0
    a9d0:	03a00000 	moveq	r0, #0
    a9d4:	13a00001 	movne	r0, #1
    a9d8:	0a00000c 	beq	aa10 <Str_Cmp_N+0xa4>
    a9dc:	e1540002 	cmp	r4, r2
    a9e0:	0a000017 	beq	aa44 <Str_Cmp_N+0xd8>
    a9e4:	e4d3c001 	ldrb	ip, [r3], #1
    a9e8:	e2844001 	add	r4, r4, #1
    a9ec:	e4d15001 	ldrb	r5, [r1], #1
    a9f0:	e15c0005 	cmp	ip, r5
    a9f4:	0afffff1 	beq	a9c0 <Str_Cmp_N+0x54>
    a9f8:	e1520004 	cmp	r2, r4
    a9fc:	0a000010 	beq	aa44 <Str_Cmp_N+0xd8>
    aa00:	e065200c 	rsb	r2, r5, ip
    aa04:	e6bf0072 	sxth	r0, r2
    aa08:	e8bd0030 	pop	{r4, r5}
    aa0c:	e12fff1e 	bx	lr
    aa10:	e1520004 	cmp	r2, r4
    aa14:	01a02000 	moveq	r2, r0
    aa18:	0afffff9 	beq	aa04 <Str_Cmp_N+0x98>
    aa1c:	e3530000 	cmp	r3, #0
    aa20:	15d32000 	ldrbne	r2, [r3]
    aa24:	1afffff6 	bne	aa04 <Str_Cmp_N+0x98>
    aa28:	e3510000 	cmp	r1, #0
    aa2c:	01a02001 	moveq	r2, r1
    aa30:	15d12000 	ldrbne	r2, [r1]
    aa34:	12622000 	rsbne	r2, r2, #0
    aa38:	eafffff1 	b	aa04 <Str_Cmp_N+0x98>
    aa3c:	e1a0200c 	mov	r2, ip
    aa40:	eaffffef 	b	aa04 <Str_Cmp_N+0x98>
    aa44:	e3a02000 	mov	r2, #0
    aa48:	eaffffed 	b	aa04 <Str_Cmp_N+0x98>

0000aa4c <Str_Cmp>:
    aa4c:	e3e02000 	mvn	r2, #0
    aa50:	eaffffc5 	b	a96c <Str_Cmp_N>

0000aa54 <Str_CmpIgnoreCase_N>:
    aa54:	e92d41f0 	push	{r4, r5, r6, r7, r8, lr}
    aa58:	e2528000 	subs	r8, r2, #0
    aa5c:	e1a06000 	mov	r6, r0
    aa60:	e1a05001 	mov	r5, r1
    aa64:	0a00002d 	beq	ab20 <Str_CmpIgnoreCase_N+0xcc>
    aa68:	e3500000 	cmp	r0, #0
    aa6c:	0a000033 	beq	ab40 <Str_CmpIgnoreCase_N+0xec>
    aa70:	e3510000 	cmp	r1, #0
    aa74:	e5d00000 	ldrb	r0, [r0]
    aa78:	0a00002e 	beq	ab38 <Str_CmpIgnoreCase_N+0xe4>
    aa7c:	ebfffd31 	bl	9f48 <ASCII_ToLower>
    aa80:	e2864001 	add	r4, r6, #1
    aa84:	e2855001 	add	r5, r5, #1
    aa88:	e1a07000 	mov	r7, r0
    aa8c:	e5550001 	ldrb	r0, [r5, #-1]
    aa90:	ebfffd2c 	bl	9f48 <ASCII_ToLower>
    aa94:	e1570000 	cmp	r7, r0
    aa98:	1a000019 	bne	ab04 <Str_CmpIgnoreCase_N+0xb0>
    aa9c:	e5d63000 	ldrb	r3, [r6]
    aaa0:	e3530000 	cmp	r3, #0
    aaa4:	0a00001b 	beq	ab18 <Str_CmpIgnoreCase_N+0xc4>
    aaa8:	e3550000 	cmp	r5, #0
    aaac:	13540000 	cmpne	r4, #0
    aab0:	0a000018 	beq	ab18 <Str_CmpIgnoreCase_N+0xc4>
    aab4:	e3a06000 	mov	r6, #0
    aab8:	ea000007 	b	aadc <Str_CmpIgnoreCase_N+0x88>
    aabc:	e5543001 	ldrb	r3, [r4, #-1]
    aac0:	e3530000 	cmp	r3, #0
    aac4:	0a000011 	beq	ab10 <Str_CmpIgnoreCase_N+0xbc>
    aac8:	e3550000 	cmp	r5, #0
    aacc:	13540000 	cmpne	r4, #0
    aad0:	0a00000e 	beq	ab10 <Str_CmpIgnoreCase_N+0xbc>
    aad4:	e1560008 	cmp	r6, r8
    aad8:	0a000010 	beq	ab20 <Str_CmpIgnoreCase_N+0xcc>
    aadc:	e4d40001 	ldrb	r0, [r4], #1
    aae0:	e2866001 	add	r6, r6, #1
    aae4:	ebfffd17 	bl	9f48 <ASCII_ToLower>
    aae8:	e1a07000 	mov	r7, r0
    aaec:	e4d50001 	ldrb	r0, [r5], #1
    aaf0:	ebfffd14 	bl	9f48 <ASCII_ToLower>
    aaf4:	e1570000 	cmp	r7, r0
    aaf8:	0affffef 	beq	aabc <Str_CmpIgnoreCase_N+0x68>
    aafc:	e1580006 	cmp	r8, r6
    ab00:	0a000006 	beq	ab20 <Str_CmpIgnoreCase_N+0xcc>
    ab04:	e0600007 	rsb	r0, r0, r7
    ab08:	e6bf0070 	sxth	r0, r0
    ab0c:	e8bd81f0 	pop	{r4, r5, r6, r7, r8, pc}
    ab10:	e1580006 	cmp	r8, r6
    ab14:	0a000001 	beq	ab20 <Str_CmpIgnoreCase_N+0xcc>
    ab18:	e3570000 	cmp	r7, #0
    ab1c:	1a000002 	bne	ab2c <Str_CmpIgnoreCase_N+0xd8>
    ab20:	e3a00000 	mov	r0, #0
    ab24:	e6bf0070 	sxth	r0, r0
    ab28:	e8bd81f0 	pop	{r4, r5, r6, r7, r8, pc}
    ab2c:	e3540000 	cmp	r4, #0
    ab30:	15d40000 	ldrbne	r0, [r4]
    ab34:	0a000001 	beq	ab40 <Str_CmpIgnoreCase_N+0xec>
    ab38:	ebfffd02 	bl	9f48 <ASCII_ToLower>
    ab3c:	eafffff8 	b	ab24 <Str_CmpIgnoreCase_N+0xd0>
    ab40:	e3550000 	cmp	r5, #0
    ab44:	0afffff5 	beq	ab20 <Str_CmpIgnoreCase_N+0xcc>
    ab48:	e5d50000 	ldrb	r0, [r5]
    ab4c:	ebfffcfd 	bl	9f48 <ASCII_ToLower>
    ab50:	e2600000 	rsb	r0, r0, #0
    ab54:	eafffff2 	b	ab24 <Str_CmpIgnoreCase_N+0xd0>

0000ab58 <Str_CmpIgnoreCase>:
    ab58:	e3e02000 	mvn	r2, #0
    ab5c:	eaffffbc 	b	aa54 <Str_CmpIgnoreCase_N>

0000ab60 <Str_Char_N>:
    ab60:	e3500000 	cmp	r0, #0
    ab64:	e52d4004 	push	{r4}		; (str r4, [sp, #-4]!)
    ab68:	0a00000e 	beq	aba8 <Str_Char_N+0x48>
    ab6c:	e3510000 	cmp	r1, #0
    ab70:	0a00000c 	beq	aba8 <Str_Char_N+0x48>
    ab74:	e1a03000 	mov	r3, r0
    ab78:	e3a0c000 	mov	ip, #0
    ab7c:	e1a00003 	mov	r0, r3
    ab80:	e4d34001 	ldrb	r4, [r3], #1
    ab84:	e3540000 	cmp	r4, #0
    ab88:	0a000009 	beq	abb4 <Str_Char_N+0x54>
    ab8c:	e1540002 	cmp	r4, r2
    ab90:	0a00000c 	beq	abc8 <Str_Char_N+0x68>
    ab94:	e15c0001 	cmp	ip, r1
    ab98:	e28cc001 	add	ip, ip, #1
    ab9c:	0a000001 	beq	aba8 <Str_Char_N+0x48>
    aba0:	e3530000 	cmp	r3, #0
    aba4:	1afffff4 	bne	ab7c <Str_Char_N+0x1c>
    aba8:	e3a00000 	mov	r0, #0
    abac:	e8bd0010 	ldmfd	sp!, {r4}
    abb0:	e12fff1e 	bx	lr
    abb4:	e151000c 	cmp	r1, ip
    abb8:	9afffffa 	bls	aba8 <Str_Char_N+0x48>
    abbc:	e3520000 	cmp	r2, #0
    abc0:	0afffff9 	beq	abac <Str_Char_N+0x4c>
    abc4:	eafffff7 	b	aba8 <Str_Char_N+0x48>
    abc8:	e151000c 	cmp	r1, ip
    abcc:	8afffff6 	bhi	abac <Str_Char_N+0x4c>
    abd0:	eafffff4 	b	aba8 <Str_Char_N+0x48>

0000abd4 <Str_Char>:
    abd4:	e1a02001 	mov	r2, r1
    abd8:	e3e01000 	mvn	r1, #0
    abdc:	eaffffdf 	b	ab60 <Str_Char_N>

0000abe0 <Str_Char_Last_N>:
    abe0:	e92d0030 	push	{r4, r5}
    abe4:	e2505000 	subs	r5, r0, #0
    abe8:	0a000023 	beq	ac7c <Str_Char_Last_N+0x9c>
    abec:	e3510000 	cmp	r1, #0
    abf0:	0a00001f 	beq	ac74 <Str_Char_Last_N+0x94>
    abf4:	e2410001 	sub	r0, r1, #1
    abf8:	e1a0c005 	mov	ip, r5
    abfc:	e3a03000 	mov	r3, #0
    ac00:	e4dc4001 	ldrb	r4, [ip], #1
    ac04:	e3540000 	cmp	r4, #0
    ac08:	0a000004 	beq	ac20 <Str_Char_Last_N+0x40>
    ac0c:	e1500003 	cmp	r0, r3
    ac10:	0a000002 	beq	ac20 <Str_Char_Last_N+0x40>
    ac14:	e35c0000 	cmp	ip, #0
    ac18:	e2833001 	add	r3, r3, #1
    ac1c:	1afffff7 	bne	ac00 <Str_Char_Last_N+0x20>
    ac20:	e0950003 	adds	r0, r5, r3
    ac24:	0a000010 	beq	ac6c <Str_Char_Last_N+0x8c>
    ac28:	e1550000 	cmp	r5, r0
    ac2c:	0a00000b 	beq	ac60 <Str_Char_Last_N+0x80>
    ac30:	e5d03000 	ldrb	r3, [r0]
    ac34:	e1530002 	cmp	r3, r2
    ac38:	0a00000b 	beq	ac6c <Str_Char_Last_N+0x8c>
    ac3c:	e2403001 	sub	r3, r0, #1
    ac40:	ea000002 	b	ac50 <Str_Char_Last_N+0x70>
    ac44:	e5d01000 	ldrb	r1, [r0]
    ac48:	e1510002 	cmp	r1, r2
    ac4c:	0a000006 	beq	ac6c <Str_Char_Last_N+0x8c>
    ac50:	e1530005 	cmp	r3, r5
    ac54:	e1a00003 	mov	r0, r3
    ac58:	e2433001 	sub	r3, r3, #1
    ac5c:	1afffff8 	bne	ac44 <Str_Char_Last_N+0x64>
    ac60:	e5d03000 	ldrb	r3, [r0]
    ac64:	e1530002 	cmp	r3, r2
    ac68:	13a00000 	movne	r0, #0
    ac6c:	e8bd0030 	pop	{r4, r5}
    ac70:	e12fff1e 	bx	lr
    ac74:	e1a00001 	mov	r0, r1
    ac78:	eafffffb 	b	ac6c <Str_Char_Last_N+0x8c>
    ac7c:	e1a00005 	mov	r0, r5
    ac80:	eafffff9 	b	ac6c <Str_Char_Last_N+0x8c>

0000ac84 <Str_Char_Last>:
    ac84:	e1a02001 	mov	r2, r1
    ac88:	e3e01000 	mvn	r1, #0
    ac8c:	eaffffd3 	b	abe0 <Str_Char_Last_N>

0000ac90 <Str_Char_Replace>:
    ac90:	e3500000 	cmp	r0, #0
    ac94:	e52d4004 	push	{r4}		; (str r4, [sp, #-4]!)
    ac98:	0a00000b 	beq	accc <Str_Char_Replace+0x3c>
    ac9c:	e2803001 	add	r3, r0, #1
    aca0:	e553c001 	ldrb	ip, [r3, #-1]
    aca4:	e2834001 	add	r4, r3, #1
    aca8:	e35c0000 	cmp	ip, #0
    acac:	0a000006 	beq	accc <Str_Char_Replace+0x3c>
    acb0:	e1530000 	cmp	r3, r0
    acb4:	0a000004 	beq	accc <Str_Char_Replace+0x3c>
    acb8:	e151000c 	cmp	r1, ip
    acbc:	05432001 	strbeq	r2, [r3, #-1]
    acc0:	e3530000 	cmp	r3, #0
    acc4:	e1a03004 	mov	r3, r4
    acc8:	1afffff4 	bne	aca0 <Str_Char_Replace+0x10>
    accc:	e8bd0010 	ldmfd	sp!, {r4}
    acd0:	e12fff1e 	bx	lr

0000acd4 <Str_Char_Replace_N>:
    acd4:	e3500000 	cmp	r0, #0
    acd8:	e52d4004 	push	{r4}		; (str r4, [sp, #-4]!)
    acdc:	0a00000c 	beq	ad14 <Str_Char_Replace_N+0x40>
    ace0:	e3530000 	cmp	r3, #0
    ace4:	0a00000c 	beq	ad1c <Str_Char_Replace_N+0x48>
    ace8:	e1a0c000 	mov	ip, r0
    acec:	e4dc4001 	ldrb	r4, [ip], #1
    acf0:	e3540000 	cmp	r4, #0
    acf4:	0a000006 	beq	ad14 <Str_Char_Replace_N+0x40>
    acf8:	e3530000 	cmp	r3, #0
    acfc:	e2433001 	sub	r3, r3, #1
    ad00:	0a000003 	beq	ad14 <Str_Char_Replace_N+0x40>
    ad04:	e1540001 	cmp	r4, r1
    ad08:	054c2001 	strbeq	r2, [ip, #-1]
    ad0c:	e35c0000 	cmp	ip, #0
    ad10:	1afffff5 	bne	acec <Str_Char_Replace_N+0x18>
    ad14:	e8bd0010 	ldmfd	sp!, {r4}
    ad18:	e12fff1e 	bx	lr
    ad1c:	e1a00003 	mov	r0, r3
    ad20:	eafffffb 	b	ad14 <Str_Char_Replace_N+0x40>

0000ad24 <Str_Str_N>:
    ad24:	e92d45f8 	push	{r3, r4, r5, r6, r7, r8, sl, lr}
    ad28:	e2506000 	subs	r6, r0, #0
    ad2c:	e1a07001 	mov	r7, r1
    ad30:	0a000030 	beq	adf8 <Str_Str_N+0xd4>
    ad34:	e3510000 	cmp	r1, #0
    ad38:	0a000032 	beq	ae08 <Str_Str_N+0xe4>
    ad3c:	e3520000 	cmp	r2, #0
    ad40:	0a00002e 	beq	ae00 <Str_Str_N+0xdc>
    ad44:	e3720001 	cmn	r2, #1
    ad48:	e1a05006 	mov	r5, r6
    ad4c:	12821001 	addne	r1, r2, #1
    ad50:	e1a0c006 	mov	ip, r6
    ad54:	01a01002 	moveq	r1, r2
    ad58:	e3a03000 	mov	r3, #0
    ad5c:	e4dc4001 	ldrb	r4, [ip], #1
    ad60:	e3540000 	cmp	r4, #0
    ad64:	0a000004 	beq	ad7c <Str_Str_N+0x58>
    ad68:	e1530002 	cmp	r3, r2
    ad6c:	0a000002 	beq	ad7c <Str_Str_N+0x58>
    ad70:	e35c0000 	cmp	ip, #0
    ad74:	e2833001 	add	r3, r3, #1
    ad78:	1afffff7 	bne	ad5c <Str_Str_N+0x38>
    ad7c:	e1a02007 	mov	r2, r7
    ad80:	e3a04000 	mov	r4, #0
    ad84:	e4d2c001 	ldrb	ip, [r2], #1
    ad88:	e35c0000 	cmp	ip, #0
    ad8c:	0a000004 	beq	ada4 <Str_Str_N+0x80>
    ad90:	e1540001 	cmp	r4, r1
    ad94:	0a000002 	beq	ada4 <Str_Str_N+0x80>
    ad98:	e3520000 	cmp	r2, #0
    ad9c:	e2844001 	add	r4, r4, #1
    ada0:	1afffff7 	bne	ad84 <Str_Str_N+0x60>
    ada4:	e3540000 	cmp	r4, #0
    ada8:	0a000012 	beq	adf8 <Str_Str_N+0xd4>
    adac:	e1530004 	cmp	r3, r4
    adb0:	3a00000f 	bcc	adf4 <Str_Str_N+0xd0>
    adb4:	e0966003 	adds	r6, r6, r3
    adb8:	0a00000e 	beq	adf8 <Str_Str_N+0xd4>
    adbc:	e0976004 	adds	r6, r7, r4
    adc0:	0a00000c 	beq	adf8 <Str_Str_N+0xd4>
    adc4:	e064a003 	rsb	sl, r4, r3
    adc8:	e3a08000 	mov	r8, #0
    adcc:	e0886005 	add	r6, r8, r5
    add0:	e1a01007 	mov	r1, r7
    add4:	e1a02004 	mov	r2, r4
    add8:	e2888001 	add	r8, r8, #1
    addc:	e1a00006 	mov	r0, r6
    ade0:	ebfffee1 	bl	a96c <Str_Cmp_N>
    ade4:	e3500000 	cmp	r0, #0
    ade8:	0a000002 	beq	adf8 <Str_Str_N+0xd4>
    adec:	e15a0008 	cmp	sl, r8
    adf0:	2afffff5 	bcs	adcc <Str_Str_N+0xa8>
    adf4:	e3a06000 	mov	r6, #0
    adf8:	e1a00006 	mov	r0, r6
    adfc:	e8bd85f8 	pop	{r3, r4, r5, r6, r7, r8, sl, pc}
    ae00:	e1a06002 	mov	r6, r2
    ae04:	eafffffb 	b	adf8 <Str_Str_N+0xd4>
    ae08:	e1a06001 	mov	r6, r1
    ae0c:	eafffff9 	b	adf8 <Str_Str_N+0xd4>

0000ae10 <Str_Str>:
    ae10:	e3e02000 	mvn	r2, #0
    ae14:	eaffffc2 	b	ad24 <Str_Str_N>

0000ae18 <Str_FmtNbr_Int32U>:
    ae18:	e52de004 	push	{lr}		; (str lr, [sp, #-4]!)
    ae1c:	e24dd014 	sub	sp, sp, #20
    ae20:	e5ddc018 	ldrb	ip, [sp, #24]
    ae24:	e58d3000 	str	r3, [sp]
    ae28:	e3a03000 	mov	r3, #0
    ae2c:	e58dc004 	str	ip, [sp, #4]
    ae30:	e5ddc01c 	ldrb	ip, [sp, #28]
    ae34:	e58dc008 	str	ip, [sp, #8]
    ae38:	e59dc020 	ldr	ip, [sp, #32]
    ae3c:	e58dc00c 	str	ip, [sp, #12]
    ae40:	ebfffd97 	bl	a4a4 <Str_FmtNbr_Int32>
    ae44:	e28dd014 	add	sp, sp, #20
    ae48:	e8bd8000 	ldmfd	sp!, {pc}

0000ae4c <Str_FmtNbr_Int32S>:
    ae4c:	e52de004 	push	{lr}		; (str lr, [sp, #-4]!)
    ae50:	e24dd014 	sub	sp, sp, #20
    ae54:	e3500000 	cmp	r0, #0
    ae58:	e5ddc018 	ldrb	ip, [sp, #24]
    ae5c:	b2600000 	rsblt	r0, r0, #0
    ae60:	b3a0e001 	movlt	lr, #1
    ae64:	a3a0e000 	movge	lr, #0
    ae68:	e58d3000 	str	r3, [sp]
    ae6c:	e1a0300e 	mov	r3, lr
    ae70:	e58dc004 	str	ip, [sp, #4]
    ae74:	e5ddc01c 	ldrb	ip, [sp, #28]
    ae78:	e58dc008 	str	ip, [sp, #8]
    ae7c:	e59dc020 	ldr	ip, [sp, #32]
    ae80:	e58dc00c 	str	ip, [sp, #12]
    ae84:	ebfffd86 	bl	a4a4 <Str_FmtNbr_Int32>
    ae88:	e28dd014 	add	sp, sp, #20
    ae8c:	e8bd8000 	ldmfd	sp!, {pc}

0000ae90 <Str_ParseNbr_Int32U>:
    ae90:	e52de004 	push	{lr}		; (str lr, [sp, #-4]!)
    ae94:	e24dd00c 	sub	sp, sp, #12
    ae98:	e3a03000 	mov	r3, #0
    ae9c:	e58d3000 	str	r3, [sp]
    aea0:	ebfffce4 	bl	a238 <Str_ParseNbr_Int32>
    aea4:	e28dd00c 	add	sp, sp, #12
    aea8:	e8bd8000 	ldmfd	sp!, {pc}

0000aeac <Str_ParseNbr_Int32S>:
    aeac:	e52de004 	push	{lr}		; (str lr, [sp, #-4]!)
    aeb0:	e24dd014 	sub	sp, sp, #20
    aeb4:	e3a03001 	mov	r3, #1
    aeb8:	e28dc00f 	add	ip, sp, #15
    aebc:	e58dc000 	str	ip, [sp]
    aec0:	ebfffcdc 	bl	a238 <Str_ParseNbr_Int32>
    aec4:	e5dd300f 	ldrb	r3, [sp, #15]
    aec8:	e3530000 	cmp	r3, #0
    aecc:	1a000003 	bne	aee0 <Str_ParseNbr_Int32S+0x34>
    aed0:	e3500000 	cmp	r0, #0
    aed4:	b3e00102 	mvnlt	r0, #-2147483648	; 0x80000000
    aed8:	e28dd014 	add	sp, sp, #20
    aedc:	e8bd8000 	ldmfd	sp!, {pc}
    aee0:	e3500000 	cmp	r0, #0
    aee4:	a2600000 	rsbge	r0, r0, #0
    aee8:	b3a00102 	movlt	r0, #-2147483648	; 0x80000000
    aeec:	eafffff9 	b	aed8 <Str_ParseNbr_Int32S+0x2c>

0000aef0 <CSP_GPIO_Init>:
    aef0:	e12fff1e 	bx	lr

0000aef4 <CSP_GPIO_Cfg>:
    aef4:	e3a00001 	mov	r0, #1
    aef8:	e12fff1e 	bx	lr

0000aefc <CSP_GPIO_BitClr>:
    aefc:	e12fff1e 	bx	lr

0000af00 <CSP_GPIO_BitSet>:
    af00:	e12fff1e 	bx	lr

0000af04 <CSP_GPIO_BitToggle>:
    af04:	e12fff1e 	bx	lr

0000af08 <CSP_GPIO_Rd>:
    af08:	e3a00000 	mov	r0, #0
    af0c:	e12fff1e 	bx	lr

0000af10 <CSP_GPIO_Wr>:
    af10:	e12fff1e 	bx	lr

0000af14 <CSP_GPIO_IntClr>:
    af14:	e3a00000 	mov	r0, #0
    af18:	e12fff1e 	bx	lr

0000af1c <CSP_GPIO_IntStatGet>:
    af1c:	e3a00000 	mov	r0, #0
    af20:	e12fff1e 	bx	lr

0000af24 <CSP_IntClr>:
    af24:	ea0002de 	b	baa4 <guest_CSP_IntClr>

0000af28 <CSP_IntDis>:
    af28:	e1a022a1 	lsr	r2, r1, #5
    af2c:	e3a03d46 	mov	r3, #4480	; 0x1180
    af30:	e34f38f0 	movt	r3, #63728	; 0xf8f0
    af34:	e201101f 	and	r1, r1, #31
    af38:	e3a00001 	mov	r0, #1
    af3c:	e1a01110 	lsl	r1, r0, r1
    af40:	e7831102 	str	r1, [r3, r2, lsl #2]
    af44:	e12fff1e 	bx	lr

0000af48 <CSP_IntDisAll>:
    af48:	e3a03a01 	mov	r3, #4096	; 0x1000
    af4c:	e34f38f0 	movt	r3, #63728	; 0xf8f0
    af50:	e5932000 	ldr	r2, [r3]
    af54:	e3c22001 	bic	r2, r2, #1
    af58:	e5832000 	str	r2, [r3]
    af5c:	e12fff1e 	bx	lr

0000af60 <CSP_IntEn>:
    af60:	e1a022a1 	lsr	r2, r1, #5
    af64:	e3a03c11 	mov	r3, #4352	; 0x1100
    af68:	e34f38f0 	movt	r3, #63728	; 0xf8f0
    af6c:	e201101f 	and	r1, r1, #31
    af70:	e3a00001 	mov	r0, #1
    af74:	e1a01110 	lsl	r1, r0, r1
    af78:	e7831102 	str	r1, [r3, r2, lsl #2]
    af7c:	e12fff1e 	bx	lr

0000af80 <CSP_IntInit>:
    af80:	e92d4070 	push	{r4, r5, r6, lr}
    af84:	e30e6550 	movw	r6, #58704	; 0xe550
    af88:	e3406000 	movt	r6, #0
    af8c:	e3a04000 	mov	r4, #0
    af90:	eb000136 	bl	b470 <CPU_SR_Save>
    af94:	e1a05000 	mov	r5, r0
    af98:	e0860184 	add	r0, r6, r4, lsl #3
    af9c:	eb000126 	bl	b43c <CSP_IntVectClr>
    afa0:	e2844001 	add	r4, r4, #1
    afa4:	e1a00005 	mov	r0, r5
    afa8:	eb000136 	bl	b488 <CPU_SR_Restore>
    afac:	e3540c01 	cmp	r4, #256	; 0x100
    afb0:	1afffff6 	bne	af90 <CSP_IntInit+0x10>
    afb4:	e8bd8070 	pop	{r4, r5, r6, pc}

0000afb8 <CSP_IntSrcCfg>:
    afb8:	e3500000 	cmp	r0, #0
    afbc:	e52d4004 	push	{r4}		; (str r4, [sp, #-4]!)
    afc0:	13a00000 	movne	r0, #0
    afc4:	1a000018 	bne	b02c <CSP_IntSrcCfg+0x74>
    afc8:	e35100ff 	cmp	r1, #255	; 0xff
    afcc:	8a000016 	bhi	b02c <CSP_IntSrcCfg+0x74>
    afd0:	e242c010 	sub	ip, r2, #16
    afd4:	e35c00ef 	cmp	ip, #239	; 0xef
    afd8:	8a000013 	bhi	b02c <CSP_IntSrcCfg+0x74>
    afdc:	e2014003 	and	r4, r1, #3
    afe0:	e1a0c121 	lsr	ip, r1, #2
    afe4:	e3a00b05 	mov	r0, #5120	; 0x1400
    afe8:	e34f08f0 	movt	r0, #63728	; 0xf8f0
    afec:	e3530001 	cmp	r3, #1
    aff0:	e1a03184 	lsl	r3, r4, #3
    aff4:	e1a02312 	lsl	r2, r2, r3
    aff8:	e78c2000 	str	r2, [ip, r0]
    affc:	e1a02221 	lsr	r2, r1, #4
    b000:	e201100f 	and	r1, r1, #15
    b004:	e3a03b07 	mov	r3, #7168	; 0x1c00
    b008:	e34f38f0 	movt	r3, #63728	; 0xf8f0
    b00c:	e3a0c001 	mov	ip, #1
    b010:	e1a01c11 	lsl	r1, r1, ip
    b014:	e7924003 	ldr	r4, [r2, r3]
    b018:	e081100c 	add	r1, r1, ip
    b01c:	e1a0000c 	mov	r0, ip
    b020:	91c4c11c 	bicls	ip, r4, ip, lsl r1
    b024:	8184c11c 	orrhi	ip, r4, ip, lsl r1
    b028:	e782c003 	str	ip, [r2, r3]
    b02c:	e8bd0010 	ldmfd	sp!, {r4}
    b030:	e12fff1e 	bx	lr

0000b034 <CSP_IntVectReg>:
    b034:	e3500000 	cmp	r0, #0
    b038:	e92d40f8 	push	{r3, r4, r5, r6, r7, lr}
    b03c:	e1a04001 	mov	r4, r1
    b040:	e1a06002 	mov	r6, r2
    b044:	e1a05003 	mov	r5, r3
    b048:	1a00000d 	bne	b084 <CSP_IntVectReg+0x50>
    b04c:	e35100ff 	cmp	r1, #255	; 0xff
    b050:	88bd80f8 	pophi	{r3, r4, r5, r6, r7, pc}
    b054:	eb000105 	bl	b470 <CPU_SR_Save>
    b058:	e1a01006 	mov	r1, r6
    b05c:	e1a02005 	mov	r2, r5
    b060:	e1a07000 	mov	r7, r0
    b064:	e30e0550 	movw	r0, #58704	; 0xe550
    b068:	e3400000 	movt	r0, #0
    b06c:	e0800184 	add	r0, r0, r4, lsl #3
    b070:	eb0000f5 	bl	b44c <CSP_IntVectSet>
    b074:	e1a00007 	mov	r0, r7
    b078:	eb000102 	bl	b488 <CPU_SR_Restore>
    b07c:	e3a00001 	mov	r0, #1
    b080:	e8bd80f8 	pop	{r3, r4, r5, r6, r7, pc}
    b084:	e3a00000 	mov	r0, #0
    b088:	e8bd80f8 	pop	{r3, r4, r5, r6, r7, pc}

0000b08c <CSP_IntVectUnreg>:
    b08c:	e3500000 	cmp	r0, #0
    b090:	e92d4038 	push	{r3, r4, r5, lr}
    b094:	e1a04001 	mov	r4, r1
    b098:	1a00000b 	bne	b0cc <CSP_IntVectUnreg+0x40>
    b09c:	e35100ff 	cmp	r1, #255	; 0xff
    b0a0:	88bd8038 	pophi	{r3, r4, r5, pc}
    b0a4:	eb0000f1 	bl	b470 <CPU_SR_Save>
    b0a8:	e1a05000 	mov	r5, r0
    b0ac:	e30e0550 	movw	r0, #58704	; 0xe550
    b0b0:	e3400000 	movt	r0, #0
    b0b4:	e0800184 	add	r0, r0, r4, lsl #3
    b0b8:	eb0000df 	bl	b43c <CSP_IntVectClr>
    b0bc:	e1a00005 	mov	r0, r5
    b0c0:	eb0000f0 	bl	b488 <CPU_SR_Restore>
    b0c4:	e3a00001 	mov	r0, #1
    b0c8:	e8bd8038 	pop	{r3, r4, r5, pc}
    b0cc:	e3a00000 	mov	r0, #0
    b0d0:	e8bd8038 	pop	{r3, r4, r5, pc}

0000b0d4 <CSP_IntHandlerSrc>:
    b0d4:	e35000ff 	cmp	r0, #255	; 0xff
    b0d8:	e92d4010 	push	{r4, lr}
    b0dc:	e1a04000 	mov	r4, r0
    b0e0:	e24dd008 	sub	sp, sp, #8
    b0e4:	9a000001 	bls	b0f0 <CSP_IntHandlerSrc+0x1c>
    b0e8:	e28dd008 	add	sp, sp, #8
    b0ec:	e8bd8010 	pop	{r4, pc}
    b0f0:	e30e3550 	movw	r3, #58704	; 0xe550
    b0f4:	e3403000 	movt	r3, #0
    b0f8:	e0832180 	add	r2, r3, r0, lsl #3
    b0fc:	e8920003 	ldm	r2, {r0, r1}
    b100:	e88d0003 	stm	sp, {r0, r1}
    b104:	e1a0000d 	mov	r0, sp
    b108:	eb0000d1 	bl	b454 <CSP_IntVectDeref>
    b10c:	e3a00000 	mov	r0, #0
    b110:	e1a01004 	mov	r1, r4
    b114:	eb000262 	bl	baa4 <guest_CSP_IntClr>
    b118:	eafffff2 	b	b0e8 <CSP_IntHandlerSrc+0x14>

0000b11c <CSP_IntHandler>:
    b11c:	e12fff1e 	bx	lr

0000b120 <CSP_PM_Init>:
    b120:	e12fff1e 	bx	lr

0000b124 <CSP_PM_CPU_ClkFreqGet>:
    b124:	e3040355 	movw	r0, #17237	; 0x4355
    b128:	e34103de 	movt	r0, #5086	; 0x13de
    b12c:	e12fff1e 	bx	lr

0000b130 <CSP_PM_PerClkCfg>:
    b130:	e3a00001 	mov	r0, #1
    b134:	e12fff1e 	bx	lr

0000b138 <CSP_PM_PerClkEn>:
    b138:	e3500016 	cmp	r0, #22
    b13c:	93043fff 	movwls	r3, #20479	; 0x4fff
    b140:	934f3fa0 	movtls	r3, #65440	; 0xffa0
    b144:	95132f7f 	ldrls	r2, [r3, #-3967]	; 0xfffff081
    b148:	91800002 	orrls	r0, r0, r2
    b14c:	95030f7f 	strls	r0, [r3, #-3967]	; 0xfffff081
    b150:	e12fff1e 	bx	lr

0000b154 <CSP_PM_PerClkDis>:
    b154:	e3500016 	cmp	r0, #22
    b158:	93043fff 	movwls	r3, #20479	; 0x4fff
    b15c:	934f3fa0 	movtls	r3, #65440	; 0xffa0
    b160:	95132f7f 	ldrls	r2, [r3, #-3967]	; 0xfffff081
    b164:	91c20000 	bicls	r0, r2, r0
    b168:	95030f7f 	strls	r0, [r3, #-3967]	; 0xfffff081
    b16c:	e12fff1e 	bx	lr

0000b170 <CSP_PM_PerClkFreqGet>:
    b170:	e3500015 	cmp	r0, #21
    b174:	979ff100 	ldrls	pc, [pc, r0, lsl #2]
    b178:	ea000024 	b	b210 <CSP_PM_PerClkFreqGet+0xa0>
    b17c:	0000b248 	andeq	fp, r0, r8, asr #4
    b180:	0000b23c 	andeq	fp, r0, ip, lsr r2
    b184:	0000b224 	andeq	fp, r0, r4, lsr #4
    b188:	0000b1e0 	andeq	fp, r0, r0, ror #3
    b18c:	0000b230 	andeq	fp, r0, r0, lsr r2
    b190:	0000b1f8 	strdeq	fp, [r0], -r8
    b194:	0000b204 	andeq	fp, r0, r4, lsl #4
    b198:	0000b1ec 	andeq	fp, r0, ip, ror #3
    b19c:	0000b1ec 	andeq	fp, r0, ip, ror #3
    b1a0:	0000b1d4 	ldrdeq	fp, [r0], -r4
    b1a4:	0000b1d4 	ldrdeq	fp, [r0], -r4
    b1a8:	0000b1e0 	andeq	fp, r0, r0, ror #3
    b1ac:	0000b218 	andeq	fp, r0, r8, lsl r2
    b1b0:	0000b1f8 	strdeq	fp, [r0], -r8
    b1b4:	0000b1d4 	ldrdeq	fp, [r0], -r4
    b1b8:	0000b254 	andeq	fp, r0, r4, asr r2
    b1bc:	0000b1e0 	andeq	fp, r0, r0, ror #3
    b1c0:	0000b1e0 	andeq	fp, r0, r0, ror #3
    b1c4:	0000b1d4 	ldrdeq	fp, [r0], -r4
    b1c8:	0000b1d4 	ldrdeq	fp, [r0], -r4
    b1cc:	0000b1d4 	ldrdeq	fp, [r0], -r4
    b1d0:	0000b1d4 	ldrdeq	fp, [r0], -r4
    b1d4:	e30f0080 	movw	r0, #61568	; 0xf080
    b1d8:	e34002fa 	movt	r0, #762	; 0x2fa
    b1dc:	e12fff1e 	bx	lr
    b1e0:	e3a00cc2 	mov	r0, #49664	; 0xc200
    b1e4:	e3400beb 	movt	r0, #3051	; 0xbeb
    b1e8:	e12fff1e 	bx	lr
    b1ec:	e3a00c87 	mov	r0, #34560	; 0x8700
    b1f0:	e3400393 	movt	r0, #915	; 0x393
    b1f4:	e12fff1e 	bx	lr
    b1f8:	e3070840 	movw	r0, #30784	; 0x7840
    b1fc:	e340017d 	movt	r0, #381	; 0x17d
    b200:	e12fff1e 	bx	lr
    b204:	e3050940 	movw	r0, #22848	; 0x5940
    b208:	e3400773 	movt	r0, #1907	; 0x773
    b20c:	e12fff1e 	bx	lr
    b210:	e3a00000 	mov	r0, #0
    b214:	e12fff1e 	bx	lr
    b218:	e3060bcb 	movw	r0, #27595	; 0x6bcb
    b21c:	e340069f 	movt	r0, #1695	; 0x69f
    b220:	e12fff1e 	bx	lr
    b224:	e3a00fe6 	mov	r0, #920	; 0x398
    b228:	e340009b 	movt	r0, #155	; 0x9b
    b22c:	e12fff1e 	bx	lr
    b230:	e3a00ce1 	mov	r0, #57600	; 0xe100
    b234:	e34005f5 	movt	r0, #1525	; 0x5f5
    b238:	e12fff1e 	bx	lr
    b23c:	e3000541 	movw	r0, #1345	; 0x541
    b240:	e3410fca 	movt	r0, #8138	; 0x1fca
    b244:	e12fff1e 	bx	lr
    b248:	e3090cc0 	movw	r0, #40128	; 0x9cc0
    b24c:	e34207c1 	movt	r0, #10177	; 0x27c1
    b250:	e12fff1e 	bx	lr
    b254:	e3040ddc 	movw	r0, #19932	; 0x4ddc
    b258:	e340016b 	movt	r0, #363	; 0x16b
    b25c:	e12fff1e 	bx	lr

0000b260 <CSP_PM_SysClkEn>:
    b260:	e3500003 	cmp	r0, #3
    b264:	812fff1e 	bxhi	lr
    b268:	e3500001 	cmp	r0, #1
    b26c:	0a00000e 	beq	b2ac <CSP_PM_SysClkEn+0x4c>
    b270:	2a000005 	bcs	b28c <CSP_PM_SysClkEn+0x2c>
    b274:	e3043fff 	movw	r3, #20479	; 0x4fff
    b278:	e34f3fa0 	movt	r3, #65440	; 0xffa0
    b27c:	e5132fdf 	ldr	r2, [r3, #-4063]	; 0xfffff021
    b280:	e3822001 	orr	r2, r2, #1
    b284:	e5032fdf 	str	r2, [r3, #-4063]	; 0xfffff021
    b288:	e12fff1e 	bx	lr
    b28c:	e3500002 	cmp	r0, #2
    b290:	112fff1e 	bxne	lr
    b294:	e3043fff 	movw	r3, #20479	; 0x4fff
    b298:	e34f3fa0 	movt	r3, #65440	; 0xffa0
    b29c:	e5132f9f 	ldr	r2, [r3, #-3999]	; 0xfffff061
    b2a0:	e3822001 	orr	r2, r2, #1
    b2a4:	e5032f9f 	str	r2, [r3, #-3999]	; 0xfffff061
    b2a8:	e12fff1e 	bx	lr
    b2ac:	e3043fff 	movw	r3, #20479	; 0x4fff
    b2b0:	e34f3fa0 	movt	r3, #65440	; 0xffa0
    b2b4:	e5132f5f 	ldr	r2, [r3, #-3935]	; 0xfffff0a1
    b2b8:	e3822001 	orr	r2, r2, #1
    b2bc:	e5032f5f 	str	r2, [r3, #-3935]	; 0xfffff0a1
    b2c0:	e12fff1e 	bx	lr

0000b2c4 <CSP_PM_SysClkDis>:
    b2c4:	e3500003 	cmp	r0, #3
    b2c8:	812fff1e 	bxhi	lr
    b2cc:	e3500001 	cmp	r0, #1
    b2d0:	0a00000e 	beq	b310 <CSP_PM_SysClkDis+0x4c>
    b2d4:	2a000005 	bcs	b2f0 <CSP_PM_SysClkDis+0x2c>
    b2d8:	e3043fff 	movw	r3, #20479	; 0x4fff
    b2dc:	e34f3fa0 	movt	r3, #65440	; 0xffa0
    b2e0:	e5132fdf 	ldr	r2, [r3, #-4063]	; 0xfffff021
    b2e4:	e3c22001 	bic	r2, r2, #1
    b2e8:	e5032fdf 	str	r2, [r3, #-4063]	; 0xfffff021
    b2ec:	e12fff1e 	bx	lr
    b2f0:	e3500002 	cmp	r0, #2
    b2f4:	112fff1e 	bxne	lr
    b2f8:	e3043fff 	movw	r3, #20479	; 0x4fff
    b2fc:	e34f3fa0 	movt	r3, #65440	; 0xffa0
    b300:	e5132f9f 	ldr	r2, [r3, #-3999]	; 0xfffff061
    b304:	e3c22001 	bic	r2, r2, #1
    b308:	e5032f9f 	str	r2, [r3, #-3999]	; 0xfffff061
    b30c:	e12fff1e 	bx	lr
    b310:	e3043fff 	movw	r3, #20479	; 0x4fff
    b314:	e34f3fa0 	movt	r3, #65440	; 0xffa0
    b318:	e5132f5f 	ldr	r2, [r3, #-3935]	; 0xfffff0a1
    b31c:	e3c22001 	bic	r2, r2, #1
    b320:	e5032f5f 	str	r2, [r3, #-3935]	; 0xfffff0a1
    b324:	e12fff1e 	bx	lr

0000b328 <CSP_PM_SysClkFreqGet>:
    b328:	e3040355 	movw	r0, #17237	; 0x4355
    b32c:	e34103de 	movt	r0, #5086	; 0x13de
    b330:	e12fff1e 	bx	lr

0000b334 <CSP_PM_SysClkDivCfg>:
    b334:	e24dd008 	sub	sp, sp, #8
    b338:	e3a00001 	mov	r0, #1
    b33c:	e28dd008 	add	sp, sp, #8
    b340:	e12fff1e 	bx	lr

0000b344 <CSP_TmrCfg>:
    b344:	e3500001 	cmp	r0, #1
    b348:	e92d40f0 	push	{r4, r5, r6, r7, lr}
    b34c:	e1a04000 	mov	r4, r0
    b350:	e24dd00c 	sub	sp, sp, #12
    b354:	9a000002 	bls	b364 <CSP_TmrCfg+0x20>
    b358:	e3a00000 	mov	r0, #0
    b35c:	e28dd00c 	add	sp, sp, #12
    b360:	e8bd80f0 	pop	{r4, r5, r6, r7, pc}
    b364:	e2205001 	eor	r5, r0, #1
    b368:	e3510000 	cmp	r1, #0
    b36c:	13a05000 	movne	r5, #0
    b370:	02055001 	andeq	r5, r5, #1
    b374:	e3550000 	cmp	r5, #0
    b378:	1afffff6 	bne	b358 <CSP_TmrCfg+0x14>
    b37c:	e3a00002 	mov	r0, #2
    b380:	e58d1004 	str	r1, [sp, #4]
    b384:	ebffffe7 	bl	b328 <CSP_PM_SysClkFreqGet>
    b388:	e3540000 	cmp	r4, #0
    b38c:	e1a06000 	mov	r6, r0
    b390:	11a00005 	movne	r0, r5
    b394:	1afffff0 	bne	b35c <CSP_TmrCfg+0x18>
    b398:	eb000034 	bl	b470 <CPU_SR_Save>
    b39c:	e34f58f0 	movt	r5, #63728	; 0xf8f0
    b3a0:	e59d1004 	ldr	r1, [sp, #4]
    b3a4:	e5854600 	str	r4, [r5, #1536]	; 0x600
    b3a8:	e3a04001 	mov	r4, #1
    b3ac:	e585460c 	str	r4, [r5, #1548]	; 0x60c
    b3b0:	e1a07000 	mov	r7, r0
    b3b4:	e1a00006 	mov	r0, r6
    b3b8:	eb0007fb 	bl	d3ac <__aeabi_uidiv>
    b3bc:	e2403001 	sub	r3, r0, #1
    b3c0:	e1a00007 	mov	r0, r7
    b3c4:	e5853600 	str	r3, [r5, #1536]	; 0x600
    b3c8:	e3a03006 	mov	r3, #6
    b3cc:	e5853608 	str	r3, [r5, #1544]	; 0x608
    b3d0:	eb00002c 	bl	b488 <CPU_SR_Restore>
    b3d4:	e1a00004 	mov	r0, r4
    b3d8:	eaffffdf 	b	b35c <CSP_TmrCfg+0x18>

0000b3dc <CSP_TmrOutCmpCfg>:
    b3dc:	e3a00001 	mov	r0, #1
    b3e0:	e12fff1e 	bx	lr

0000b3e4 <CSP_TmrIntClr>:
    b3e4:	e3500001 	cmp	r0, #1
    b3e8:	812fff1e 	bxhi	lr
    b3ec:	e3500000 	cmp	r0, #0
    b3f0:	03a03000 	moveq	r3, #0
    b3f4:	034f38f0 	movteq	r3, #63728	; 0xf8f0
    b3f8:	03a02001 	moveq	r2, #1
    b3fc:	0583260c 	streq	r2, [r3, #1548]	; 0x60c
    b400:	e12fff1e 	bx	lr

0000b404 <CSP_TmrRst>:
    b404:	e12fff1e 	bx	lr

0000b408 <CSP_TmrRd>:
    b408:	e3a00000 	mov	r0, #0
    b40c:	e12fff1e 	bx	lr

0000b410 <CSP_TmrStart>:
    b410:	e3500001 	cmp	r0, #1
    b414:	812fff1e 	bxhi	lr
    b418:	e3500000 	cmp	r0, #0
    b41c:	03a03000 	moveq	r3, #0
    b420:	034f38f0 	movteq	r3, #63728	; 0xf8f0
    b424:	05932608 	ldreq	r2, [r3, #1544]	; 0x608
    b428:	03822001 	orreq	r2, r2, #1
    b42c:	05832608 	streq	r2, [r3, #1544]	; 0x608
    b430:	e12fff1e 	bx	lr

0000b434 <CSP_TmrStop>:
    b434:	e12fff1e 	bx	lr

0000b438 <CSP_TmrWr>:
    b438:	e12fff1e 	bx	lr

0000b43c <CSP_IntVectClr>:
    b43c:	e3a03000 	mov	r3, #0
    b440:	e5803000 	str	r3, [r0]
    b444:	e5803004 	str	r3, [r0, #4]
    b448:	e12fff1e 	bx	lr

0000b44c <CSP_IntVectSet>:
    b44c:	e8800006 	stm	r0, {r1, r2}
    b450:	e12fff1e 	bx	lr

0000b454 <CSP_IntVectDeref>:
    b454:	e92d4008 	push	{r3, lr}
    b458:	e5903000 	ldr	r3, [r0]
    b45c:	e5900004 	ldr	r0, [r0, #4]
    b460:	e3530000 	cmp	r3, #0
    b464:	08bd8008 	popeq	{r3, pc}
    b468:	e12fff33 	blx	r3
    b46c:	e8bd8008 	pop	{r3, pc}

0000b470 <CPU_SR_Save>:
    b470:	e10f0000 	mrs	r0, CPSR
    b474:	ef000019 	svc	0x00000019
    b478:	e38010c0 	orr	r1, r0, #192	; 0xc0
    b47c:	e121f001 	msr	CPSR_c, r1
    b480:	ef000019 	svc	0x00000019
    b484:	e12fff1e 	bx	lr

0000b488 <CPU_SR_Restore>:
    b488:	e121f000 	msr	CPSR_c, r0
    b48c:	ef000019 	svc	0x00000019
    b490:	e12fff1e 	bx	lr

0000b494 <CPU_IntDis>:
    b494:	e10f0000 	mrs	r0, CPSR
    b498:	ef000019 	svc	0x00000019
    b49c:	e38000c0 	orr	r0, r0, #192	; 0xc0
    b4a0:	e121f000 	msr	CPSR_c, r0
    b4a4:	ef000019 	svc	0x00000019
    b4a8:	e12fff1e 	bx	lr

0000b4ac <CPU_IntEn>:
    b4ac:	e10f0000 	mrs	r0, CPSR
    b4b0:	ef000019 	svc	0x00000019
    b4b4:	e3c000c0 	bic	r0, r0, #192	; 0xc0
    b4b8:	e121f000 	msr	CPSR_c, r0
    b4bc:	ef000019 	svc	0x00000019
    b4c0:	e12fff1e 	bx	lr

0000b4c4 <CPU_IRQ_Dis>:
    b4c4:	e10f0000 	mrs	r0, CPSR
    b4c8:	ef000019 	svc	0x00000019
    b4cc:	e3800080 	orr	r0, r0, #128	; 0x80
    b4d0:	e121f000 	msr	CPSR_c, r0
    b4d4:	ef000019 	svc	0x00000019
    b4d8:	e12fff1e 	bx	lr

0000b4dc <CPU_IRQ_En>:
    b4dc:	e10f0000 	mrs	r0, CPSR
    b4e0:	ef000019 	svc	0x00000019
    b4e4:	e3c00080 	bic	r0, r0, #128	; 0x80
    b4e8:	e121f000 	msr	CPSR_c, r0
    b4ec:	ef000019 	svc	0x00000019
    b4f0:	e12fff1e 	bx	lr

0000b4f4 <CPU_FIQ_Dis>:
    b4f4:	e10f0000 	mrs	r0, CPSR
    b4f8:	ef000019 	svc	0x00000019
    b4fc:	e3800040 	orr	r0, r0, #64	; 0x40
    b500:	e121f000 	msr	CPSR_c, r0
    b504:	ef000019 	svc	0x00000019
    b508:	e12fff1e 	bx	lr

0000b50c <CPU_FIQ_En>:
    b50c:	e10f0000 	mrs	r0, CPSR
    b510:	ef000019 	svc	0x00000019
    b514:	e3c00040 	bic	r0, r0, #64	; 0x40
    b518:	e121f000 	msr	CPSR_c, r0
    b51c:	ef000019 	svc	0x00000019
    b520:	e12fff1e 	bx	lr

0000b524 <CPU_CntLeadZeros>:
    b524:	e16f0f10 	clz	r0, r0
    b528:	e12fff1e 	bx	lr

0000b52c <CPU_PMU_Dis>:
    b52c:	ee190f1c 	mrc	15, 0, r0, cr9, cr12, {0}
    b530:	e3c00004 	bic	r0, r0, #4
    b534:	ee090f1c 	mcr	15, 0, r0, cr9, cr12, {0}
    b538:	e12fff1e 	bx	lr

0000b53c <CPU_PMU_En>:
    b53c:	ee190f1c 	mrc	15, 0, r0, cr9, cr12, {0}
    b540:	e3800001 	orr	r0, r0, #1
    b544:	ee090f1c 	mcr	15, 0, r0, cr9, cr12, {0}
    b548:	e12fff1e 	bx	lr

0000b54c <CPU_PMU_Rst>:
    b54c:	ee190f1c 	mrc	15, 0, r0, cr9, cr12, {0}
    b550:	e3800006 	orr	r0, r0, #6
    b554:	ee090f1c 	mcr	15, 0, r0, cr9, cr12, {0}
    b558:	e12fff1e 	bx	lr

0000b55c <CPU_PMU_CtrDis>:
    b55c:	e3500002 	cmp	r0, #2
    b560:	812fff1e 	bxhi	lr
    b564:	e3a01001 	mov	r1, #1
    b568:	e1a00011 	lsl	r0, r1, r0
    b56c:	ee090f5c 	mcr	15, 0, r0, cr9, cr12, {2}
    b570:	e12fff1e 	bx	lr

0000b574 <CPU_PMU_CtrEn>:
    b574:	e3500002 	cmp	r0, #2
    b578:	812fff1e 	bxhi	lr
    b57c:	e3a01001 	mov	r1, #1
    b580:	e1a00011 	lsl	r0, r1, r0
    b584:	ee090f3c 	mcr	15, 0, r0, cr9, cr12, {1}
    b588:	e12fff1e 	bx	lr

0000b58c <CPU_PMU_CtrEventSet>:
    b58c:	e3500002 	cmp	r0, #2
    b590:	812fff1e 	bxhi	lr
    b594:	ee192fbc 	mrc	15, 0, r2, cr9, cr12, {5}
    b598:	e3c2201f 	bic	r2, r2, #31
    b59c:	e1822000 	orr	r2, r2, r0
    b5a0:	ee092fbc 	mcr	15, 0, r2, cr9, cr12, {5}
    b5a4:	ee192f3d 	mrc	15, 0, r2, cr9, cr13, {1}
    b5a8:	e3c220ff 	bic	r2, r2, #255	; 0xff
    b5ac:	e1822001 	orr	r2, r2, r1
    b5b0:	ee092f3d 	mcr	15, 0, r2, cr9, cr13, {1}
    b5b4:	e12fff1e 	bx	lr

0000b5b8 <CPU_PMU_CtrGet>:
    b5b8:	e3500002 	cmp	r0, #2
    b5bc:	812fff1e 	bxhi	lr
    b5c0:	ee191fbc 	mrc	15, 0, r1, cr9, cr12, {5}
    b5c4:	e3c1101f 	bic	r1, r1, #31
    b5c8:	e1811000 	orr	r1, r1, r0
    b5cc:	ee091fbc 	mcr	15, 0, r1, cr9, cr12, {5}
    b5d0:	ee190f5d 	mrc	15, 0, r0, cr9, cr13, {2}
    b5d4:	e12fff1e 	bx	lr

0000b5d8 <CPU_PMU_CtrRst>:
    b5d8:	e3500002 	cmp	r0, #2
    b5dc:	812fff1e 	bxhi	lr
    b5e0:	ee191fbc 	mrc	15, 0, r1, cr9, cr12, {5}
    b5e4:	e3c1101f 	bic	r1, r1, #31
    b5e8:	e1811000 	orr	r1, r1, r0
    b5ec:	ee091fbc 	mcr	15, 0, r1, cr9, cr12, {5}
    b5f0:	e3a00000 	mov	r0, #0
    b5f4:	ee090f5d 	mcr	15, 0, r0, cr9, cr13, {2}
    b5f8:	e12fff1e 	bx	lr

0000b5fc <CPU_PMU_CtrCycleDis>:
    b5fc:	e3a00102 	mov	r0, #-2147483648	; 0x80000000
    b600:	ee090f5c 	mcr	15, 0, r0, cr9, cr12, {2}
    b604:	e12fff1e 	bx	lr

0000b608 <CPU_PMU_CtrCycleEn>:
    b608:	e3a00102 	mov	r0, #-2147483648	; 0x80000000
    b60c:	ee090f3c 	mcr	15, 0, r0, cr9, cr12, {1}
    b610:	e12fff1e 	bx	lr

0000b614 <CPU_PMU_CtrCycleGet>:
    b614:	ee190f1d 	mrc	15, 0, r0, cr9, cr13, {0}
    b618:	e12fff1e 	bx	lr

0000b61c <CPU_PMU_CtrCycleRst>:
    b61c:	ee190f1c 	mrc	15, 0, r0, cr9, cr12, {0}
    b620:	e3800004 	orr	r0, r0, #4
    b624:	ee090f1c 	mcr	15, 0, r0, cr9, cr12, {0}
    b628:	e12fff1e 	bx	lr

0000b62c <CPU_MMU_En>:
    b62c:	ee110f10 	mrc	15, 0, r0, cr1, cr0, {0}
    b630:	e3800001 	orr	r0, r0, #1
    b634:	f57ff04f 	dsb	sy
    b638:	ee010f10 	mcr	15, 0, r0, cr1, cr0, {0}
    b63c:	f57ff06f 	isb	sy
    b640:	e12fff1e 	bx	lr

0000b644 <CPU_MMU_Dis>:
    b644:	ee110f10 	mrc	15, 0, r0, cr1, cr0, {0}
    b648:	e3c00001 	bic	r0, r0, #1
    b64c:	f57ff04f 	dsb	sy
    b650:	ee010f10 	mcr	15, 0, r0, cr1, cr0, {0}
    b654:	e12fff1e 	bx	lr

0000b658 <CPU_MMU_RegionEn>:
    b658:	e92d0030 	push	{r4, r5}
    b65c:	ee104f90 	mrc	15, 0, r4, cr0, cr0, {4}
    b660:	e1a04424 	lsr	r4, r4, #8
    b664:	e204400f 	and	r4, r4, #15
    b668:	e1500004 	cmp	r0, r4
    b66c:	5a000013 	bpl	b6c0 <CPU_MMU_RegionEnExitFail>
    b670:	e353001f 	cmp	r3, #31
    b674:	ba000011 	blt	b6c0 <CPU_MMU_RegionEnExitFail>
    b678:	ee060f12 	mcr	15, 0, r0, cr6, cr2, {0}
    b67c:	ee164f51 	mrc	15, 0, r4, cr6, cr1, {2}
    b680:	e2044001 	and	r4, r4, #1
    b684:	e3540000 	cmp	r4, #0
    b688:	1a00000c 	bne	b6c0 <CPU_MMU_RegionEnExitFail>
    b68c:	ee061f11 	mcr	15, 0, r1, cr6, cr1, {0}
    b690:	e59d4008 	ldr	r4, [sp, #8]
    b694:	ee064f91 	mcr	15, 0, r4, cr6, cr1, {4}
    b698:	e1a04402 	lsl	r4, r2, #8
    b69c:	e16f5f13 	clz	r5, r3
    b6a0:	e265501f 	rsb	r5, r5, #31
    b6a4:	e1a05085 	lsl	r5, r5, #1
    b6a8:	e1844005 	orr	r4, r4, r5
    b6ac:	e3844001 	orr	r4, r4, #1
    b6b0:	ee064f51 	mcr	15, 0, r4, cr6, cr1, {2}
    b6b4:	e3a00001 	mov	r0, #1
    b6b8:	e8bd0030 	pop	{r4, r5}
    b6bc:	e12fff1e 	bx	lr

0000b6c0 <CPU_MMU_RegionEnExitFail>:
    b6c0:	e3a00000 	mov	r0, #0
    b6c4:	e8bd0030 	pop	{r4, r5}
    b6c8:	e12fff1e 	bx	lr

0000b6cc <CPU_MMU_RegionDis>:
    b6cc:	ee101f90 	mrc	15, 0, r1, cr0, cr0, {4}
    b6d0:	e1a01421 	lsr	r1, r1, #8
    b6d4:	e201100f 	and	r1, r1, #15
    b6d8:	e1500001 	cmp	r0, r1
    b6dc:	5a000001 	bpl	b6e8 <CPU_MMU_RegionDisExit>
    b6e0:	e3a01000 	mov	r1, #0
    b6e4:	ee061f51 	mcr	15, 0, r1, cr6, cr1, {2}

0000b6e8 <CPU_MMU_RegionDisExit>:
    b6e8:	e12fff1e 	bx	lr

0000b6ec <CPU_CtxID_Set>:
    b6ec:	ee0d0f30 	mcr	15, 0, r0, cr13, cr0, {1}
    b6f0:	e12fff1e 	bx	lr

0000b6f4 <CPU_CtxID_Get>:
    b6f4:	ee1d0f30 	mrc	15, 0, r0, cr13, cr0, {1}
    b6f8:	e12fff1e 	bx	lr

0000b6fc <CPU_Init>:
    b6fc:	e12fff1e 	bx	lr

0000b700 <CPU_SW_Exception>:
    b700:	eafffffe 	b	b700 <CPU_SW_Exception>

0000b704 <CPU_CntLeadZeros08>:
    b704:	e92d4008 	push	{r3, lr}
    b708:	ebffff85 	bl	b524 <CPU_CntLeadZeros>
    b70c:	e2400018 	sub	r0, r0, #24
    b710:	e8bd8008 	pop	{r3, pc}

0000b714 <CPU_CntLeadZeros16>:
    b714:	e92d4008 	push	{r3, lr}
    b718:	ebffff81 	bl	b524 <CPU_CntLeadZeros>
    b71c:	e2400010 	sub	r0, r0, #16
    b720:	e8bd8008 	pop	{r3, pc}

0000b724 <CPU_CntLeadZeros32>:
    b724:	eaffff7e 	b	b524 <CPU_CntLeadZeros>

0000b728 <CPU_CntLeadZeros64>:
    b728:	e3e02000 	mvn	r2, #0
    b72c:	e3a03000 	mov	r3, #0
    b730:	e1530001 	cmp	r3, r1
    b734:	01520000 	cmpeq	r2, r0
    b738:	2a000011 	bcs	b784 <CPU_CntLeadZeros64+0x5c>
    b73c:	e3e02000 	mvn	r2, #0
    b740:	e30f3fff 	movw	r3, #65535	; 0xffff
    b744:	e1530001 	cmp	r3, r1
    b748:	01520000 	cmpeq	r2, r0
    b74c:	e3e02000 	mvn	r2, #0
    b750:	2a000025 	bcs	b7ec <CPU_CntLeadZeros64+0xc4>
    b754:	e3e034ff 	mvn	r3, #-16777216	; 0xff000000
    b758:	e1530001 	cmp	r3, r1
    b75c:	01520000 	cmpeq	r2, r0
    b760:	31a02c21 	lsrcc	r2, r1, #24
    b764:	e30d3c70 	movw	r3, #56432	; 0xdc70
    b768:	21a02821 	lsrcs	r2, r1, #16
    b76c:	33403000 	movtcc	r3, #0
    b770:	23403000 	movtcs	r3, #0
    b774:	37d30002 	ldrbcc	r0, [r3, r2]
    b778:	27d30002 	ldrbcs	r0, [r3, r2]
    b77c:	22800008 	addcs	r0, r0, #8
    b780:	e12fff1e 	bx	lr
    b784:	e30f2fff 	movw	r2, #65535	; 0xffff
    b788:	e3a03000 	mov	r3, #0
    b78c:	e1530001 	cmp	r3, r1
    b790:	01520000 	cmpeq	r2, r0
    b794:	2a00000b 	bcs	b7c8 <CPU_CntLeadZeros64+0xa0>
    b798:	e3e024ff 	mvn	r2, #-16777216	; 0xff000000
    b79c:	e3a03000 	mov	r3, #0
    b7a0:	e1530001 	cmp	r3, r1
    b7a4:	01520000 	cmpeq	r2, r0
    b7a8:	2a00001c 	bcs	b820 <CPU_CntLeadZeros64+0xf8>
    b7ac:	e1a03c20 	lsr	r3, r0, #24
    b7b0:	e30d2c70 	movw	r2, #56432	; 0xdc70
    b7b4:	e1833401 	orr	r3, r3, r1, lsl #8
    b7b8:	e3402000 	movt	r2, #0
    b7bc:	e7d20003 	ldrb	r0, [r2, r3]
    b7c0:	e2800020 	add	r0, r0, #32
    b7c4:	e12fff1e 	bx	lr
    b7c8:	e3510000 	cmp	r1, #0
    b7cc:	035000ff 	cmpeq	r0, #255	; 0xff
    b7d0:	8a000019 	bhi	b83c <CPU_CntLeadZeros64+0x114>
    b7d4:	e30d3c70 	movw	r3, #56432	; 0xdc70
    b7d8:	e3403000 	movt	r3, #0
    b7dc:	e0830000 	add	r0, r3, r0
    b7e0:	e5d00000 	ldrb	r0, [r0]
    b7e4:	e2800038 	add	r0, r0, #56	; 0x38
    b7e8:	e12fff1e 	bx	lr
    b7ec:	e3a030ff 	mov	r3, #255	; 0xff
    b7f0:	e1530001 	cmp	r3, r1
    b7f4:	01520000 	cmpeq	r2, r0
    b7f8:	31a02421 	lsrcc	r2, r1, #8
    b7fc:	e30d3c70 	movw	r3, #56432	; 0xdc70
    b800:	33403000 	movtcc	r3, #0
    b804:	23403000 	movtcs	r3, #0
    b808:	21a02001 	movcs	r2, r1
    b80c:	37d30002 	ldrbcc	r0, [r3, r2]
    b810:	32800010 	addcc	r0, r0, #16
    b814:	27d30002 	ldrbcs	r0, [r3, r2]
    b818:	22800018 	addcs	r0, r0, #24
    b81c:	e12fff1e 	bx	lr
    b820:	e1a03820 	lsr	r3, r0, #16
    b824:	e30d2c70 	movw	r2, #56432	; 0xdc70
    b828:	e1833801 	orr	r3, r3, r1, lsl #16
    b82c:	e3402000 	movt	r2, #0
    b830:	e7d20003 	ldrb	r0, [r2, r3]
    b834:	e2800028 	add	r0, r0, #40	; 0x28
    b838:	e12fff1e 	bx	lr
    b83c:	e1a03420 	lsr	r3, r0, #8
    b840:	e30d2c70 	movw	r2, #56432	; 0xdc70
    b844:	e1833c01 	orr	r3, r3, r1, lsl #24
    b848:	e3402000 	movt	r2, #0
    b84c:	e7d20003 	ldrb	r0, [r2, r3]
    b850:	e2800030 	add	r0, r0, #48	; 0x30
    b854:	e12fff1e 	bx	lr

0000b858 <CPU_CntTrailZeros>:
    b858:	e3500000 	cmp	r0, #0
    b85c:	e92d4008 	push	{r3, lr}
    b860:	1a000001 	bne	b86c <CPU_CntTrailZeros+0x14>
    b864:	e3a00020 	mov	r0, #32
    b868:	e8bd8008 	pop	{r3, pc}
    b86c:	e2603000 	rsb	r3, r0, #0
    b870:	e0030000 	and	r0, r3, r0
    b874:	ebffff2a 	bl	b524 <CPU_CntLeadZeros>
    b878:	e260001f 	rsb	r0, r0, #31
    b87c:	e8bd8008 	pop	{r3, pc}

0000b880 <CPU_CntTrailZeros08>:
    b880:	e3500000 	cmp	r0, #0
    b884:	e92d4008 	push	{r3, lr}
    b888:	1a000001 	bne	b894 <CPU_CntTrailZeros08+0x14>
    b88c:	e3a00008 	mov	r0, #8
    b890:	e8bd8008 	pop	{r3, pc}
    b894:	e2603000 	rsb	r3, r0, #0
    b898:	e0000003 	and	r0, r0, r3
    b89c:	ebffff98 	bl	b704 <CPU_CntLeadZeros08>
    b8a0:	e2600007 	rsb	r0, r0, #7
    b8a4:	e8bd8008 	pop	{r3, pc}

0000b8a8 <CPU_CntTrailZeros16>:
    b8a8:	e3500000 	cmp	r0, #0
    b8ac:	e92d4008 	push	{r3, lr}
    b8b0:	1a000001 	bne	b8bc <CPU_CntTrailZeros16+0x14>
    b8b4:	e3a00010 	mov	r0, #16
    b8b8:	e8bd8008 	pop	{r3, pc}
    b8bc:	e2603000 	rsb	r3, r0, #0
    b8c0:	e0000003 	and	r0, r0, r3
    b8c4:	ebffff92 	bl	b714 <CPU_CntLeadZeros16>
    b8c8:	e260000f 	rsb	r0, r0, #15
    b8cc:	e8bd8008 	pop	{r3, pc}

0000b8d0 <CPU_CntTrailZeros32>:
    b8d0:	e3500000 	cmp	r0, #0
    b8d4:	e92d4008 	push	{r3, lr}
    b8d8:	1a000001 	bne	b8e4 <CPU_CntTrailZeros32+0x14>
    b8dc:	e3a00020 	mov	r0, #32
    b8e0:	e8bd8008 	pop	{r3, pc}
    b8e4:	e2603000 	rsb	r3, r0, #0
    b8e8:	e0030000 	and	r0, r3, r0
    b8ec:	ebffff0c 	bl	b524 <CPU_CntLeadZeros>
    b8f0:	e260001f 	rsb	r0, r0, #31
    b8f4:	e8bd8008 	pop	{r3, pc}

0000b8f8 <CPU_CntTrailZeros64>:
    b8f8:	e92d4008 	push	{r3, lr}
    b8fc:	e1903001 	orrs	r3, r0, r1
    b900:	1a000001 	bne	b90c <CPU_CntTrailZeros64+0x14>
    b904:	e3a00040 	mov	r0, #64	; 0x40
    b908:	e8bd8008 	pop	{r3, pc}
    b90c:	e2702000 	rsbs	r2, r0, #0
    b910:	e2e13000 	rsc	r3, r1, #0
    b914:	e0000002 	and	r0, r0, r2
    b918:	e0011003 	and	r1, r1, r3
    b91c:	ebffff81 	bl	b728 <CPU_CntLeadZeros64>
    b920:	e260003f 	rsb	r0, r0, #63	; 0x3f
    b924:	e8bd8008 	pop	{r3, pc}

0000b928 <enable_caches>:
    b928:	e12fff1e 	bx	lr

0000b92c <disable_caches>:
    b92c:	e92d4008 	push	{r3, lr}
    b930:	eb0002af 	bl	c3f4 <Xil_DCacheDisable>
    b934:	e8bd4008 	pop	{r3, lr}
    b938:	ea0002a4 	b	c3d0 <Xil_ICacheDisable>

0000b93c <init_uart>:
    b93c:	e52de004 	push	{lr}		; (str lr, [sp, #-4]!)
    b940:	e3a00000 	mov	r0, #0
    b944:	e24dd044 	sub	sp, sp, #68	; 0x44
    b948:	eb000664 	bl	d2e0 <XUartPs_LookupConfig>
    b94c:	e1a01000 	mov	r1, r0
    b950:	e28d0004 	add	r0, sp, #4
    b954:	e5912004 	ldr	r2, [r1, #4]
    b958:	eb000617 	bl	d1bc <XUartPs_CfgInitialize>
    b95c:	e28d0004 	add	r0, sp, #4
    b960:	e3a01cc2 	mov	r1, #49664	; 0xc200
    b964:	e3401001 	movt	r1, #1
    b968:	eb0005a3 	bl	cffc <XUartPs_SetBaudRate>
    b96c:	e28dd044 	add	sp, sp, #68	; 0x44
    b970:	e8bd8000 	ldmfd	sp!, {pc}

0000b974 <init_platform>:
    b974:	eafffff0 	b	b93c <init_uart>

0000b978 <cleanup_platform>:
    b978:	eaffffeb 	b	b92c <disable_caches>

0000b97c <BSP_Init>:
    b97c:	e92d4008 	push	{r3, lr}
    b980:	eb00003d 	bl	ba7c <guest_CPU_IntDis>
    b984:	eb00003e 	bl	ba84 <guest_Xil_ICacheEnable>
    b988:	eb00003e 	bl	ba88 <guest_Xil_DCacheEnable>
    b98c:	e8bd4008 	pop	{r3, lr}
    b990:	eafffd7a 	b	af80 <CSP_IntInit>

0000b994 <BSP_CPU_ClkFreq>:
    b994:	e3040b40 	movw	r0, #19264	; 0x4b40
    b998:	e340004c 	movt	r0, #76	; 0x4c
    b99c:	e12fff1e 	bx	lr

0000b9a0 <OS_CSP_BSP_ExceptHandler>:
    b9a0:	e3500004 	cmp	r0, #4
    b9a4:	812fff1e 	bxhi	lr
    b9a8:	eafffffe 	b	b9a8 <OS_CSP_BSP_ExceptHandler+0x8>

0000b9ac <BSP_OS_SemCreate>:
    b9ac:	e92d4030 	push	{r4, r5, lr}
    b9b0:	e1a04000 	mov	r4, r0
    b9b4:	e24dd00c 	sub	sp, sp, #12
    b9b8:	e1a00001 	mov	r0, r1
    b9bc:	e1a05002 	mov	r5, r2
    b9c0:	ebfff29a 	bl	8430 <OSSemCreate>
    b9c4:	e2503000 	subs	r3, r0, #0
    b9c8:	01a00003 	moveq	r0, r3
    b9cc:	0a000004 	beq	b9e4 <BSP_OS_SemCreate+0x38>
    b9d0:	e5843000 	str	r3, [r4]
    b9d4:	e1a01005 	mov	r1, r5
    b9d8:	e28d2007 	add	r2, sp, #7
    b9dc:	ebffea3c 	bl	62d4 <OSEventNameSet>
    b9e0:	e3a00001 	mov	r0, #1
    b9e4:	e28dd00c 	add	sp, sp, #12
    b9e8:	e8bd8030 	pop	{r4, r5, pc}

0000b9ec <BSP_OS_SemWait>:
    b9ec:	e3a02ffa 	mov	r2, #1000	; 0x3e8
    b9f0:	e3043dd3 	movw	r3, #19923	; 0x4dd3
    b9f4:	e0010192 	mul	r1, r2, r1
    b9f8:	e3413062 	movt	r3, #4194	; 0x1062
    b9fc:	e52de004 	push	{lr}		; (str lr, [sp, #-4]!)
    ba00:	e24dd00c 	sub	sp, sp, #12
    ba04:	e5900000 	ldr	r0, [r0]
    ba08:	e28d2007 	add	r2, sp, #7
    ba0c:	e081c193 	umull	ip, r1, r3, r1
    ba10:	e1a01321 	lsr	r1, r1, #6
    ba14:	ebfff2f9 	bl	8600 <OSSemPend>
    ba18:	e5dd0007 	ldrb	r0, [sp, #7]
    ba1c:	e2700001 	rsbs	r0, r0, #1
    ba20:	33a00000 	movcc	r0, #0
    ba24:	e28dd00c 	add	sp, sp, #12
    ba28:	e8bd8000 	ldmfd	sp!, {pc}

0000ba2c <BSP_OS_SemPost>:
    ba2c:	e92d4008 	push	{r3, lr}
    ba30:	e5900000 	ldr	r0, [r0]
    ba34:	ebfff374 	bl	880c <OSSemPost>
    ba38:	e2700001 	rsbs	r0, r0, #1
    ba3c:	33a00000 	movcc	r0, #0
    ba40:	e8bd8008 	pop	{r3, pc}

0000ba44 <BSP_OS_TimeDlyMs>:
    ba44:	e3042dd3 	movw	r2, #19923	; 0x4dd3
    ba48:	e3023710 	movw	r3, #10000	; 0x2710
    ba4c:	e3412062 	movt	r2, #4194	; 0x1062
    ba50:	e1500003 	cmp	r0, r3
    ba54:	31a03000 	movcc	r3, r0
    ba58:	e3a0cffa 	mov	ip, #1000	; 0x3e8
    ba5c:	e3a00000 	mov	r0, #0
    ba60:	e0821392 	umull	r1, r2, r2, r3
    ba64:	e1a01000 	mov	r1, r0
    ba68:	e1a02322 	lsr	r2, r2, #6
    ba6c:	e063329c 	mls	r3, ip, r2, r3
    ba70:	e6ef2072 	uxtb	r2, r2
    ba74:	e6ff3073 	uxth	r3, r3
    ba78:	eafff6c5 	b	9594 <OSTimeDlyHMSM>

0000ba7c <guest_CPU_IntDis>:
    ba7c:	ea000074 	b	bc54 <sys_irq_disable>

0000ba80 <guest_CPU_IntEn>:
    ba80:	ea00005a 	b	bbf0 <sys_irq_enable>

0000ba84 <guest_Xil_ICacheEnable>:
    ba84:	ea00006d 	b	bc40 <sys_icache_enable>

0000ba88 <guest_Xil_DCacheEnable>:
    ba88:	ea000067 	b	bc2c <sys_dcache_enable>

0000ba8c <guest_IRQ_Acknowledge>:
    ba8c:	e3a01000 	mov	r1, #0
    ba90:	e3a00005 	mov	r0, #5
    ba94:	e92d4008 	push	{r3, lr}
    ba98:	e1a02001 	mov	r2, r1
    ba9c:	eb000071 	bl	bc68 <sys_virq_ctrl>
    baa0:	e8bd8008 	pop	{r3, pc}

0000baa4 <guest_CSP_IntClr>:
    baa4:	e3a00006 	mov	r0, #6
    baa8:	e3a02000 	mov	r2, #0
    baac:	ea00006d 	b	bc68 <sys_virq_ctrl>

0000bab0 <guest_IRQ_Register>:
    bab0:	e1a01000 	mov	r1, r0
    bab4:	e3a00000 	mov	r0, #0
    bab8:	e1a02000 	mov	r2, r0
    babc:	ea000069 	b	bc68 <sys_virq_ctrl>

0000bac0 <guest_OS_Timer_Register>:
    bac0:	e1a01000 	mov	r1, r0
    bac4:	e3a00000 	mov	r0, #0
    bac8:	e1a02000 	mov	r2, r0
    bacc:	ea00006e 	b	bc8c <sys_vtimer_ctrl>

0000bad0 <guest_OS_Timer_Enable>:
    bad0:	e3a01000 	mov	r1, #0
    bad4:	e3a00002 	mov	r0, #2
    bad8:	e1a02001 	mov	r2, r1
    badc:	ea00006a 	b	bc8c <sys_vtimer_ctrl>

0000bae0 <guest_OS_Mbox_Post>:
    bae0:	ea000072 	b	bcb0 <sys_mbox_post>

0000bae4 <guest_OS_Mbox_Read>:
    bae4:	ea000079 	b	bcd0 <sys_mbox_read>

0000bae8 <_guest_os_start>:
    bae8:	e51fd000 	ldr	sp, [pc, #-0]	; baf0 <_guest_os_start+0x8>
    baec:	ea000005 	b	bb08 <_guest_os_start_pre>
    baf0:	000152b0 			; <UNDEFINED> instruction: 0x000152b0
    baf4:	0000e534 	andeq	lr, r0, r4, lsr r5
    baf8:	0000e534 	andeq	lr, r0, r4, lsr r5
    bafc:	0000e534 	andeq	lr, r0, r4, lsr r5
    bb00:	000112a8 	andeq	r1, r1, r8, lsr #5
    bb04:	000152b0 			; <UNDEFINED> instruction: 0x000152b0

0000bb08 <_guest_os_start_pre>:
    bb08:	e3a00000 	mov	r0, #0
    bb0c:	e51f1020 	ldr	r1, [pc, #-32]	; baf4 <_guest_os_start+0xc>
    bb10:	e51f2020 	ldr	r2, [pc, #-32]	; baf8 <_guest_os_start+0x10>
    bb14:	e1510002 	cmp	r1, r2
    bb18:	aa000001 	bge	bb24 <_guest_os_start_pre+0x1c>
    bb1c:	e4810004 	str	r0, [r1], #4
    bb20:	eafffffb 	b	bb14 <_guest_os_start_pre+0xc>
    bb24:	e51f1030 	ldr	r1, [pc, #-48]	; bafc <_guest_os_start+0x14>
    bb28:	e51f2030 	ldr	r2, [pc, #-48]	; bb00 <_guest_os_start+0x18>
    bb2c:	e1510002 	cmp	r1, r2
    bb30:	aa000001 	bge	bb3c <_guest_os_start_pre+0x34>
    bb34:	e4810004 	str	r0, [r1], #4
    bb38:	eafffffb 	b	bb2c <_guest_os_start_pre+0x24>
    bb3c:	e51fd040 	ldr	sp, [pc, #-64]	; bb04 <_guest_os_start+0x1c>
    bb40:	eb0006b9 	bl	d62c <__libc_init_array>
    bb44:	e3a00000 	mov	r0, #0
    bb48:	e3a01000 	mov	r1, #0
    bb4c:	eb00078d 	bl	d988 <main>
    bb50:	eb0006a6 	bl	d5f0 <__libc_fini_array>
    bb54:	eb000698 	bl	d5bc <exit>
    bb58:	eafffffe 	b	bb58 <_guest_os_start_pre+0x50>

0000bb5c <XTime_SetTime>:
    bb5c:	e92d4070 	push	{r4, r5, r6, lr}
    bb60:	e3a04f82 	mov	r4, #520	; 0x208
    bb64:	e34f48f0 	movt	r4, #63728	; 0xf8f0
    bb68:	e1a06000 	mov	r6, r0
    bb6c:	e1a05001 	mov	r5, r1
    bb70:	e3a01000 	mov	r1, #0
    bb74:	e1a00004 	mov	r0, r4
    bb78:	eb0002ab 	bl	c62c <Xil_Out32>
    bb7c:	e1a01006 	mov	r1, r6
    bb80:	e3a00c02 	mov	r0, #512	; 0x200
    bb84:	e34f08f0 	movt	r0, #63728	; 0xf8f0
    bb88:	eb0002a7 	bl	c62c <Xil_Out32>
    bb8c:	e1a01005 	mov	r1, r5
    bb90:	e3a00f81 	mov	r0, #516	; 0x204
    bb94:	e34f08f0 	movt	r0, #63728	; 0xf8f0
    bb98:	eb0002a3 	bl	c62c <Xil_Out32>
    bb9c:	e1a00004 	mov	r0, r4
    bba0:	e3a01001 	mov	r1, #1
    bba4:	e8bd4070 	pop	{r4, r5, r6, lr}
    bba8:	ea00029f 	b	c62c <Xil_Out32>

0000bbac <timeprint_low>:
    bbac:	e92d4008 	push	{r3, lr}
    bbb0:	e3a00c02 	mov	r0, #512	; 0x200
    bbb4:	e34f08f0 	movt	r0, #63728	; 0xf8f0
    bbb8:	eb000292 	bl	c608 <Xil_In32>
    bbbc:	e1a01000 	mov	r1, r0
    bbc0:	e30d0e8c 	movw	r0, #56972	; 0xde8c
    bbc4:	e3400000 	movt	r0, #0
    bbc8:	e8bd4008 	pop	{r3, lr}
    bbcc:	ea000317 	b	c830 <xil_printf>

0000bbd0 <syscall>:
    bbd0:	e92d4000 	stmfd	sp!, {lr}
    bbd4:	ef000000 	svc	0x00000000
    bbd8:	e8bd8000 	ldmfd	sp!, {pc}

0000bbdc <sys_yield>:
    bbdc:	e3a01000 	mov	r1, #0
    bbe0:	e3a00001 	mov	r0, #1
    bbe4:	e1a02001 	mov	r2, r1
    bbe8:	e1a03001 	mov	r3, r1
    bbec:	eafffff7 	b	bbd0 <syscall>

0000bbf0 <sys_irq_enable>:
    bbf0:	e3a01000 	mov	r1, #0
    bbf4:	e3a00002 	mov	r0, #2
    bbf8:	e1a02001 	mov	r2, r1
    bbfc:	e1a03001 	mov	r3, r1
    bc00:	eafffff2 	b	bbd0 <syscall>

0000bc04 <sys_dcache_disable>:
    bc04:	e3a01000 	mov	r1, #0
    bc08:	e3a00003 	mov	r0, #3
    bc0c:	e1a02001 	mov	r2, r1
    bc10:	e1a03001 	mov	r3, r1
    bc14:	eaffffed 	b	bbd0 <syscall>

0000bc18 <sys_icache_disable>:
    bc18:	e3a01000 	mov	r1, #0
    bc1c:	e3a00004 	mov	r0, #4
    bc20:	e1a02001 	mov	r2, r1
    bc24:	e1a03001 	mov	r3, r1
    bc28:	eaffffe8 	b	bbd0 <syscall>

0000bc2c <sys_dcache_enable>:
    bc2c:	e3a01000 	mov	r1, #0
    bc30:	e3a00005 	mov	r0, #5
    bc34:	e1a02001 	mov	r2, r1
    bc38:	e1a03001 	mov	r3, r1
    bc3c:	eaffffe3 	b	bbd0 <syscall>

0000bc40 <sys_icache_enable>:
    bc40:	e3a01000 	mov	r1, #0
    bc44:	e3a00006 	mov	r0, #6
    bc48:	e1a02001 	mov	r2, r1
    bc4c:	e1a03001 	mov	r3, r1
    bc50:	eaffffde 	b	bbd0 <syscall>

0000bc54 <sys_irq_disable>:
    bc54:	e3a01000 	mov	r1, #0
    bc58:	e3a00007 	mov	r0, #7
    bc5c:	e1a02001 	mov	r2, r1
    bc60:	e1a03001 	mov	r3, r1
    bc64:	eaffffd9 	b	bbd0 <syscall>

0000bc68 <sys_virq_ctrl>:
    bc68:	e1a0c001 	mov	ip, r1
    bc6c:	e1a03002 	mov	r3, r2
    bc70:	e52d4004 	push	{r4}		; (str r4, [sp, #-4]!)
    bc74:	e1a04000 	mov	r4, r0
    bc78:	e1a01004 	mov	r1, r4
    bc7c:	e3a00008 	mov	r0, #8
    bc80:	e1a0200c 	mov	r2, ip
    bc84:	e8bd0010 	ldmfd	sp!, {r4}
    bc88:	eaffffd0 	b	bbd0 <syscall>

0000bc8c <sys_vtimer_ctrl>:
    bc8c:	e1a0c001 	mov	ip, r1
    bc90:	e1a03002 	mov	r3, r2
    bc94:	e52d4004 	push	{r4}		; (str r4, [sp, #-4]!)
    bc98:	e1a04000 	mov	r4, r0
    bc9c:	e1a01004 	mov	r1, r4
    bca0:	e3a0000b 	mov	r0, #11
    bca4:	e1a0200c 	mov	r2, ip
    bca8:	e8bd0010 	ldmfd	sp!, {r4}
    bcac:	eaffffc7 	b	bbd0 <syscall>

0000bcb0 <sys_mbox_post>:
    bcb0:	e92d4008 	push	{r3, lr}
    bcb4:	e1a03000 	mov	r3, r0
    bcb8:	e1a02001 	mov	r2, r1
    bcbc:	e3a0000d 	mov	r0, #13
    bcc0:	e1a01003 	mov	r1, r3
    bcc4:	e3a03000 	mov	r3, #0
    bcc8:	ebffffc0 	bl	bbd0 <syscall>
    bccc:	e8bd8008 	pop	{r3, pc}

0000bcd0 <sys_mbox_read>:
    bcd0:	e92d4008 	push	{r3, lr}
    bcd4:	e1a03000 	mov	r3, r0
    bcd8:	e1a02001 	mov	r2, r1
    bcdc:	e3a0000e 	mov	r0, #14
    bce0:	e1a01003 	mov	r1, r3
    bce4:	e3a03000 	mov	r3, #0
    bce8:	ebffffb8 	bl	bbd0 <syscall>
    bcec:	e8bd8008 	pop	{r3, pc}

0000bcf0 <sys_void>:
    bcf0:	e92d4008 	push	{r3, lr}
    bcf4:	e3a00000 	mov	r0, #0
    bcf8:	e3a01000 	mov	r1, #0
    bcfc:	ebffff96 	bl	bb5c <XTime_SetTime>
    bd00:	e3a01000 	mov	r1, #0
    bd04:	e3a00063 	mov	r0, #99	; 0x63
    bd08:	e1a02001 	mov	r2, r1
    bd0c:	e1a03001 	mov	r3, r1
    bd10:	ebffffae 	bl	bbd0 <syscall>
    bd14:	ebffffa4 	bl	bbac <timeprint_low>
    bd18:	e30d0e90 	movw	r0, #56976	; 0xde90
    bd1c:	e3400000 	movt	r0, #0
    bd20:	e8bd4008 	pop	{r3, lr}
    bd24:	ea000065 	b	bec0 <print>

0000bd28 <AppPrint>:
    bd28:	e92d4030 	push	{r4, r5, lr}
    bd2c:	e30142a0 	movw	r4, #4768	; 0x12a0
    bd30:	e3404001 	movt	r4, #1
    bd34:	e24dd00c 	sub	sp, sp, #12
    bd38:	e1a05000 	mov	r5, r0
    bd3c:	e3a01000 	mov	r1, #0
    bd40:	e28d2007 	add	r2, sp, #7
    bd44:	e5940000 	ldr	r0, [r4]
    bd48:	ebfff073 	bl	7f1c <OSMutexPend>
    bd4c:	e1a00005 	mov	r0, r5
    bd50:	eb00005a 	bl	bec0 <print>
    bd54:	e5940000 	ldr	r0, [r4]
    bd58:	ebfff12e 	bl	8218 <OSMutexPost>
    bd5c:	e28dd00c 	add	sp, sp, #12
    bd60:	e8bd8030 	pop	{r4, r5, pc}

0000bd64 <AppTaskStart>:
    bd64:	e92d4080 	push	{r7, lr}
    bd68:	e30d0eac 	movw	r0, #57004	; 0xdeac
    bd6c:	e24dd020 	sub	sp, sp, #32
    bd70:	e3400000 	movt	r0, #0
    bd74:	eb000051 	bl	bec0 <print>
    bd78:	e30e4d50 	movw	r4, #60752	; 0xed50
    bd7c:	ebfff7f7 	bl	9d60 <guest_OS_CSP_TickInit>
    bd80:	e3404000 	movt	r4, #0
    bd84:	ebfff8a5 	bl	a020 <Mem_Init>
    bd88:	e3a06000 	mov	r6, #0
    bd8c:	ebfff88b 	bl	9fc0 <Math_Init>
    bd90:	e28d101f 	add	r1, sp, #31
    bd94:	e3a00014 	mov	r0, #20
    bd98:	e3a05003 	mov	r5, #3
    bd9c:	ebffefad 	bl	7c58 <OSMutexCreate>
    bda0:	e301c2a0 	movw	ip, #4768	; 0x12a0
    bda4:	e340c001 	movt	ip, #1
    bda8:	e3a0e002 	mov	lr, #2
    bdac:	e2842e7f 	add	r2, r4, #2032	; 0x7f0
    bdb0:	e3a07c02 	mov	r7, #512	; 0x200
    bdb4:	e1a01006 	mov	r1, r6
    bdb8:	e282200c 	add	r2, r2, #12
    bdbc:	e1a0300e 	mov	r3, lr
    bdc0:	e98d0090 	stmib	sp, {r4, r7}
    bdc4:	e58de000 	str	lr, [sp]
    bdc8:	e58d600c 	str	r6, [sp, #12]
    bdcc:	e58d5010 	str	r5, [sp, #16]
    bdd0:	e58c0000 	str	r0, [ip]
    bdd4:	e30b0e6c 	movw	r0, #48748	; 0xbe6c
    bdd8:	e3400000 	movt	r0, #0
    bddc:	ebfff38f 	bl	8c20 <OSTaskCreateExt>
    bde0:	e2842eff 	add	r2, r4, #4080	; 0xff0
    bde4:	e30b0e38 	movw	r0, #48696	; 0xbe38
    bde8:	e2844b02 	add	r4, r4, #2048	; 0x800
    bdec:	e58d5000 	str	r5, [sp]
    bdf0:	e3400000 	movt	r0, #0
    bdf4:	e58d4004 	str	r4, [sp, #4]
    bdf8:	e1a01006 	mov	r1, r6
    bdfc:	e58d7008 	str	r7, [sp, #8]
    be00:	e282200c 	add	r2, r2, #12
    be04:	e58d600c 	str	r6, [sp, #12]
    be08:	e1a03005 	mov	r3, r5
    be0c:	e58d5010 	str	r5, [sp, #16]
    be10:	ebfff382 	bl	8c20 <OSTaskCreateExt>
    be14:	e3a00000 	mov	r0, #0
    be18:	e3a03064 	mov	r3, #100	; 0x64
    be1c:	e1a01000 	mov	r1, r0
    be20:	e1a02000 	mov	r2, r0
    be24:	ebfff5da 	bl	9594 <OSTimeDlyHMSM>
    be28:	e30d0ec4 	movw	r0, #57028	; 0xdec4
    be2c:	e3400000 	movt	r0, #0
    be30:	ebffffbc 	bl	bd28 <AppPrint>
    be34:	eafffff6 	b	be14 <AppTaskStart+0xb0>

0000be38 <AppTask2>:
    be38:	e30d0ec8 	movw	r0, #57032	; 0xdec8
    be3c:	e3400000 	movt	r0, #0
    be40:	e92d4008 	push	{r3, lr}
    be44:	ebffffb7 	bl	bd28 <AppPrint>
    be48:	e3a00000 	mov	r0, #0
    be4c:	e3a02002 	mov	r2, #2
    be50:	e1a01000 	mov	r1, r0
    be54:	e3a03faf 	mov	r3, #700	; 0x2bc
    be58:	ebfff5cd 	bl	9594 <OSTimeDlyHMSM>
    be5c:	e30d0edc 	movw	r0, #57052	; 0xdedc
    be60:	e3400000 	movt	r0, #0
    be64:	ebffffaf 	bl	bd28 <AppPrint>
    be68:	eafffff6 	b	be48 <AppTask2+0x10>

0000be6c <AppTask1>:
    be6c:	e30d0ee0 	movw	r0, #57056	; 0xdee0
    be70:	e3400000 	movt	r0, #0
    be74:	e92d4008 	push	{r3, lr}
    be78:	ebffffaa 	bl	bd28 <AppPrint>
    be7c:	e3a00000 	mov	r0, #0
    be80:	e3a02001 	mov	r2, #1
    be84:	e1a01000 	mov	r1, r0
    be88:	e3a03f4b 	mov	r3, #300	; 0x12c
    be8c:	ebfff5c0 	bl	9594 <OSTimeDlyHMSM>
    be90:	e30d0ef4 	movw	r0, #57076	; 0xdef4
    be94:	e3400000 	movt	r0, #0
    be98:	ebffffa2 	bl	bd28 <AppPrint>
    be9c:	eafffff6 	b	be7c <AppTask1+0x10>

0000bea0 <App_TaskCreateHook>:
    bea0:	e12fff1e 	bx	lr

0000bea4 <App_TaskDelHook>:
    bea4:	e12fff1e 	bx	lr

0000bea8 <App_TaskIdleHook>:
    bea8:	e12fff1e 	bx	lr

0000beac <App_TaskReturnHook>:
    beac:	e12fff1e 	bx	lr

0000beb0 <App_TaskStatHook>:
    beb0:	e12fff1e 	bx	lr

0000beb4 <App_TaskSwHook>:
    beb4:	e12fff1e 	bx	lr

0000beb8 <App_TCBInitHook>:
    beb8:	e12fff1e 	bx	lr

0000bebc <App_TimeTickHook>:
    bebc:	e12fff1e 	bx	lr

0000bec0 <print>:
    bec0:	e92d4010 	push	{r4, lr}
    bec4:	e1a04000 	mov	r4, r0
    bec8:	e5d00000 	ldrb	r0, [r0]
    becc:	e3500000 	cmp	r0, #0
    bed0:	08bd8010 	popeq	{r4, pc}
    bed4:	eb000508 	bl	d2fc <outbyte>
    bed8:	e5f40001 	ldrb	r0, [r4, #1]!
    bedc:	e3500000 	cmp	r0, #0
    bee0:	1afffffb 	bne	bed4 <print+0x14>
    bee4:	e8bd8010 	pop	{r4, pc}

0000bee8 <Xil_DCacheInvalidateRange>:
    bee8:	e3510000 	cmp	r1, #0
    beec:	e92d4008 	push	{r3, lr}
    bef0:	0a00000c 	beq	bf28 <Xil_DCacheInvalidateRange+0x40>
    bef4:	e0813000 	add	r3, r1, r0
    bef8:	e3a02000 	mov	r2, #0
    befc:	e3c0001f 	bic	r0, r0, #31
    bf00:	ee402f10 	mcr	15, 2, r2, cr0, cr0, {0}
    bf04:	e1530000 	cmp	r3, r0
    bf08:	9a000006 	bls	bf28 <Xil_DCacheInvalidateRange+0x40>
    bf0c:	e3a02a02 	mov	r2, #8192	; 0x2000
    bf10:	e34f28f0 	movt	r2, #63728	; 0xf8f0
    bf14:	ee070f36 	mcr	15, 0, r0, cr7, cr6, {1}
    bf18:	e5820770 	str	r0, [r2, #1904]	; 0x770
    bf1c:	e2800020 	add	r0, r0, #32
    bf20:	e1530000 	cmp	r3, r0
    bf24:	8afffffa 	bhi	bf14 <Xil_DCacheInvalidateRange+0x2c>
    bf28:	f57ff04f 	dsb	sy
    bf2c:	e3020730 	movw	r0, #10032	; 0x2730
    bf30:	e34f08f0 	movt	r0, #63728	; 0xf8f0
    bf34:	eb0001b3 	bl	c608 <Xil_In32>
    bf38:	e3500000 	cmp	r0, #0
    bf3c:	1afffffa 	bne	bf2c <Xil_DCacheInvalidateRange+0x44>
    bf40:	e8bd8008 	pop	{r3, pc}

0000bf44 <Xil_DCacheFlushRange>:
    bf44:	e3510000 	cmp	r1, #0
    bf48:	e92d4008 	push	{r3, lr}
    bf4c:	0a00000c 	beq	bf84 <Xil_DCacheFlushRange+0x40>
    bf50:	e0813000 	add	r3, r1, r0
    bf54:	e3a02000 	mov	r2, #0
    bf58:	e3c0001f 	bic	r0, r0, #31
    bf5c:	ee402f10 	mcr	15, 2, r2, cr0, cr0, {0}
    bf60:	e1530000 	cmp	r3, r0
    bf64:	9a000006 	bls	bf84 <Xil_DCacheFlushRange+0x40>
    bf68:	e3a02a02 	mov	r2, #8192	; 0x2000
    bf6c:	e34f28f0 	movt	r2, #63728	; 0xf8f0
    bf70:	ee070f3e 	mcr	15, 0, r0, cr7, cr14, {1}
    bf74:	e58207f0 	str	r0, [r2, #2032]	; 0x7f0
    bf78:	e2800020 	add	r0, r0, #32
    bf7c:	e1530000 	cmp	r3, r0
    bf80:	8afffffa 	bhi	bf70 <Xil_DCacheFlushRange+0x2c>
    bf84:	f57ff04f 	dsb	sy
    bf88:	e3020730 	movw	r0, #10032	; 0x2730
    bf8c:	e34f08f0 	movt	r0, #63728	; 0xf8f0
    bf90:	eb00019c 	bl	c608 <Xil_In32>
    bf94:	e3500000 	cmp	r0, #0
    bf98:	1afffffa 	bne	bf88 <Xil_DCacheFlushRange+0x44>
    bf9c:	e8bd8008 	pop	{r3, pc}

0000bfa0 <Xil_ICacheInvalidateRange>:
    bfa0:	e3510000 	cmp	r1, #0
    bfa4:	e92d4008 	push	{r3, lr}
    bfa8:	0a00000c 	beq	bfe0 <Xil_ICacheInvalidateRange+0x40>
    bfac:	e0813000 	add	r3, r1, r0
    bfb0:	e3a02001 	mov	r2, #1
    bfb4:	e3c0001f 	bic	r0, r0, #31
    bfb8:	ee402f10 	mcr	15, 2, r2, cr0, cr0, {0}
    bfbc:	e1530000 	cmp	r3, r0
    bfc0:	9a000006 	bls	bfe0 <Xil_ICacheInvalidateRange+0x40>
    bfc4:	e3a02a02 	mov	r2, #8192	; 0x2000
    bfc8:	e34f28f0 	movt	r2, #63728	; 0xf8f0
    bfcc:	ee070f35 	mcr	15, 0, r0, cr7, cr5, {1}
    bfd0:	e5820770 	str	r0, [r2, #1904]	; 0x770
    bfd4:	e2800020 	add	r0, r0, #32
    bfd8:	e1530000 	cmp	r3, r0
    bfdc:	8afffffa 	bhi	bfcc <Xil_ICacheInvalidateRange+0x2c>
    bfe0:	f57ff04f 	dsb	sy
    bfe4:	e3020730 	movw	r0, #10032	; 0x2730
    bfe8:	e34f08f0 	movt	r0, #63728	; 0xf8f0
    bfec:	eb000185 	bl	c608 <Xil_In32>
    bff0:	e3500000 	cmp	r0, #0
    bff4:	1afffffa 	bne	bfe4 <Xil_ICacheInvalidateRange+0x44>
    bff8:	e8bd8008 	pop	{r3, pc}

0000bffc <Xil_L1DCacheInvalidate>:
    bffc:	e92d41f0 	push	{r4, r5, r6, r7, r8, lr}
    c000:	e3a03000 	mov	r3, #0
    c004:	ee403f10 	mcr	15, 2, r3, cr0, cr0, {0}
    c008:	f57ff06f 	isb	sy
    c00c:	ee304f10 	mrc	15, 1, r4, cr0, cr0, {0}
    c010:	e7e806d4 	ubfx	r0, r4, #13, #9
    c014:	e7e681d4 	ubfx	r8, r4, #3, #7
    c018:	e2800001 	add	r0, r0, #1
    c01c:	e2888001 	add	r8, r8, #1
    c020:	e3a05001 	mov	r5, #1
    c024:	e3a06000 	mov	r6, #0
    c028:	e1a01008 	mov	r1, r8
    c02c:	e1a00380 	lsl	r0, r0, #7
    c030:	eb0004dd 	bl	d3ac <__aeabi_uidiv>
    c034:	e2043007 	and	r3, r4, #7
    c038:	e2833004 	add	r3, r3, #4
    c03c:	e1a07006 	mov	r7, r6
    c040:	e1a05315 	lsl	r5, r5, r3
    c044:	e1a00330 	lsr	r0, r0, r3
    c048:	e2401001 	sub	r1, r0, #1
    c04c:	e0215195 	mla	r1, r5, r1, r5
    c050:	e3500000 	cmp	r0, #0
    c054:	e1a04f06 	lsl	r4, r6, #30
    c058:	11a02007 	movne	r2, r7
    c05c:	13a03000 	movne	r3, #0
    c060:	0a000006 	beq	c080 <Xil_L1DCacheInvalidate+0x84>
    c064:	e182c004 	orr	ip, r2, r4
    c068:	ee07cf56 	mcr	15, 0, ip, cr7, cr6, {2}
    c06c:	e2833001 	add	r3, r3, #1
    c070:	e0822005 	add	r2, r2, r5
    c074:	e1530000 	cmp	r3, r0
    c078:	1afffff9 	bne	c064 <Xil_L1DCacheInvalidate+0x68>
    c07c:	e0877001 	add	r7, r7, r1
    c080:	e2866001 	add	r6, r6, #1
    c084:	e1580006 	cmp	r8, r6
    c088:	8afffff0 	bhi	c050 <Xil_L1DCacheInvalidate+0x54>
    c08c:	f57ff04f 	dsb	sy
    c090:	e8bd81f0 	pop	{r4, r5, r6, r7, r8, pc}

0000c094 <Xil_L1DCacheEnable>:
    c094:	e92d4010 	push	{r4, lr}
    c098:	ee114f10 	mrc	15, 0, r4, cr1, cr0, {0}
    c09c:	e3140004 	tst	r4, #4
    c0a0:	18bd8010 	popne	{r4, pc}
    c0a4:	ebffffd4 	bl	bffc <Xil_L1DCacheInvalidate>
    c0a8:	e3844004 	orr	r4, r4, #4
    c0ac:	ee014f10 	mcr	15, 0, r4, cr1, cr0, {0}
    c0b0:	e8bd8010 	pop	{r4, pc}

0000c0b4 <Xil_L1DCacheInvalidateLine>:
    c0b4:	e3a03000 	mov	r3, #0
    c0b8:	ee403f10 	mcr	15, 2, r3, cr0, cr0, {0}
    c0bc:	e3c0001f 	bic	r0, r0, #31
    c0c0:	ee070f36 	mcr	15, 0, r0, cr7, cr6, {1}
    c0c4:	f57ff04f 	dsb	sy
    c0c8:	e12fff1e 	bx	lr

0000c0cc <Xil_L1DCacheInvalidateRange>:
    c0cc:	e3510000 	cmp	r1, #0
    c0d0:	0a000009 	beq	c0fc <Xil_L1DCacheInvalidateRange+0x30>
    c0d4:	e0813000 	add	r3, r1, r0
    c0d8:	e3a02000 	mov	r2, #0
    c0dc:	e3c0001f 	bic	r0, r0, #31
    c0e0:	ee402f10 	mcr	15, 2, r2, cr0, cr0, {0}
    c0e4:	e1530000 	cmp	r3, r0
    c0e8:	9a000003 	bls	c0fc <Xil_L1DCacheInvalidateRange+0x30>
    c0ec:	ee070f36 	mcr	15, 0, r0, cr7, cr6, {1}
    c0f0:	e2800020 	add	r0, r0, #32
    c0f4:	e1530000 	cmp	r3, r0
    c0f8:	8afffffb 	bhi	c0ec <Xil_L1DCacheInvalidateRange+0x20>
    c0fc:	f57ff04f 	dsb	sy
    c100:	e12fff1e 	bx	lr

0000c104 <Xil_L1DCacheFlush>:
    c104:	e92d41f0 	push	{r4, r5, r6, r7, r8, lr}
    c108:	e3a03000 	mov	r3, #0
    c10c:	ee403f10 	mcr	15, 2, r3, cr0, cr0, {0}
    c110:	f57ff06f 	isb	sy
    c114:	ee304f10 	mrc	15, 1, r4, cr0, cr0, {0}
    c118:	e7e806d4 	ubfx	r0, r4, #13, #9
    c11c:	e7e681d4 	ubfx	r8, r4, #3, #7
    c120:	e2800001 	add	r0, r0, #1
    c124:	e2888001 	add	r8, r8, #1
    c128:	e3a05001 	mov	r5, #1
    c12c:	e3a06000 	mov	r6, #0
    c130:	e1a01008 	mov	r1, r8
    c134:	e1a00380 	lsl	r0, r0, #7
    c138:	eb00049b 	bl	d3ac <__aeabi_uidiv>
    c13c:	e2043007 	and	r3, r4, #7
    c140:	e2833004 	add	r3, r3, #4
    c144:	e1a07006 	mov	r7, r6
    c148:	e1a05315 	lsl	r5, r5, r3
    c14c:	e1a00330 	lsr	r0, r0, r3
    c150:	e2401001 	sub	r1, r0, #1
    c154:	e0215195 	mla	r1, r5, r1, r5
    c158:	e3500000 	cmp	r0, #0
    c15c:	e1a04f06 	lsl	r4, r6, #30
    c160:	11a02007 	movne	r2, r7
    c164:	13a03000 	movne	r3, #0
    c168:	0a000006 	beq	c188 <Xil_L1DCacheFlush+0x84>
    c16c:	e182c004 	orr	ip, r2, r4
    c170:	ee07cf5e 	mcr	15, 0, ip, cr7, cr14, {2}
    c174:	e2833001 	add	r3, r3, #1
    c178:	e0822005 	add	r2, r2, r5
    c17c:	e1530000 	cmp	r3, r0
    c180:	1afffff9 	bne	c16c <Xil_L1DCacheFlush+0x68>
    c184:	e0877001 	add	r7, r7, r1
    c188:	e2866001 	add	r6, r6, #1
    c18c:	e1580006 	cmp	r8, r6
    c190:	8afffff0 	bhi	c158 <Xil_L1DCacheFlush+0x54>
    c194:	f57ff04f 	dsb	sy
    c198:	e8bd81f0 	pop	{r4, r5, r6, r7, r8, pc}

0000c19c <Xil_L1DCacheDisable>:
    c19c:	e92d4008 	push	{r3, lr}
    c1a0:	ebffffd7 	bl	c104 <Xil_L1DCacheFlush>
    c1a4:	ee113f10 	mrc	15, 0, r3, cr1, cr0, {0}
    c1a8:	e3c33004 	bic	r3, r3, #4
    c1ac:	ee013f10 	mcr	15, 0, r3, cr1, cr0, {0}
    c1b0:	e8bd8008 	pop	{r3, pc}

0000c1b4 <Xil_L1DCacheFlushLine>:
    c1b4:	e3a03000 	mov	r3, #0
    c1b8:	ee403f10 	mcr	15, 2, r3, cr0, cr0, {0}
    c1bc:	e3c0001f 	bic	r0, r0, #31
    c1c0:	ee070f3e 	mcr	15, 0, r0, cr7, cr14, {1}
    c1c4:	f57ff04f 	dsb	sy
    c1c8:	e12fff1e 	bx	lr

0000c1cc <Xil_L1DCacheFlushRange>:
    c1cc:	e3510000 	cmp	r1, #0
    c1d0:	0a000009 	beq	c1fc <Xil_L1DCacheFlushRange+0x30>
    c1d4:	e0813000 	add	r3, r1, r0
    c1d8:	e3a02000 	mov	r2, #0
    c1dc:	e3c0001f 	bic	r0, r0, #31
    c1e0:	ee402f10 	mcr	15, 2, r2, cr0, cr0, {0}
    c1e4:	e1530000 	cmp	r3, r0
    c1e8:	9a000003 	bls	c1fc <Xil_L1DCacheFlushRange+0x30>
    c1ec:	ee070f3e 	mcr	15, 0, r0, cr7, cr14, {1}
    c1f0:	e2800020 	add	r0, r0, #32
    c1f4:	e1530000 	cmp	r3, r0
    c1f8:	8afffffb 	bhi	c1ec <Xil_L1DCacheFlushRange+0x20>
    c1fc:	f57ff04f 	dsb	sy
    c200:	e12fff1e 	bx	lr

0000c204 <Xil_L1DCacheStoreLine>:
    c204:	e3a03000 	mov	r3, #0
    c208:	ee403f10 	mcr	15, 2, r3, cr0, cr0, {0}
    c20c:	e3c0001f 	bic	r0, r0, #31
    c210:	ee070f3a 	mcr	15, 0, r0, cr7, cr10, {1}
    c214:	f57ff04f 	dsb	sy
    c218:	e12fff1e 	bx	lr

0000c21c <Xil_L1ICacheEnable>:
    c21c:	ee113f10 	mrc	15, 0, r3, cr1, cr0, {0}
    c220:	e2132a01 	ands	r2, r3, #4096	; 0x1000
    c224:	112fff1e 	bxne	lr
    c228:	ee072f15 	mcr	15, 0, r2, cr7, cr5, {0}
    c22c:	e3833a01 	orr	r3, r3, #4096	; 0x1000
    c230:	ee013f10 	mcr	15, 0, r3, cr1, cr0, {0}
    c234:	e12fff1e 	bx	lr

0000c238 <Xil_L1ICacheDisable>:
    c238:	f57ff04f 	dsb	sy
    c23c:	e3a03000 	mov	r3, #0
    c240:	ee073f15 	mcr	15, 0, r3, cr7, cr5, {0}
    c244:	ee113f10 	mrc	15, 0, r3, cr1, cr0, {0}
    c248:	e3c33a01 	bic	r3, r3, #4096	; 0x1000
    c24c:	ee013f10 	mcr	15, 0, r3, cr1, cr0, {0}
    c250:	e12fff1e 	bx	lr

0000c254 <Xil_L1ICacheInvalidate>:
    c254:	e3a03001 	mov	r3, #1
    c258:	ee403f10 	mcr	15, 2, r3, cr0, cr0, {0}
    c25c:	e3a03000 	mov	r3, #0
    c260:	ee073f15 	mcr	15, 0, r3, cr7, cr5, {0}
    c264:	f57ff04f 	dsb	sy
    c268:	e12fff1e 	bx	lr

0000c26c <Xil_L1ICacheInvalidateLine>:
    c26c:	e3a03001 	mov	r3, #1
    c270:	ee403f10 	mcr	15, 2, r3, cr0, cr0, {0}
    c274:	e3c0001f 	bic	r0, r0, #31
    c278:	ee070f35 	mcr	15, 0, r0, cr7, cr5, {1}
    c27c:	f57ff04f 	dsb	sy
    c280:	e12fff1e 	bx	lr

0000c284 <Xil_L1ICacheInvalidateRange>:
    c284:	e3510000 	cmp	r1, #0
    c288:	0a000009 	beq	c2b4 <Xil_L1ICacheInvalidateRange+0x30>
    c28c:	e0813000 	add	r3, r1, r0
    c290:	e3a02001 	mov	r2, #1
    c294:	e3c0001f 	bic	r0, r0, #31
    c298:	ee402f10 	mcr	15, 2, r2, cr0, cr0, {0}
    c29c:	e1530000 	cmp	r3, r0
    c2a0:	9a000003 	bls	c2b4 <Xil_L1ICacheInvalidateRange+0x30>
    c2a4:	ee070f35 	mcr	15, 0, r0, cr7, cr5, {1}
    c2a8:	e2800020 	add	r0, r0, #32
    c2ac:	e1530000 	cmp	r3, r0
    c2b0:	8afffffb 	bhi	c2a4 <Xil_L1ICacheInvalidateRange+0x20>
    c2b4:	f57ff04f 	dsb	sy
    c2b8:	e12fff1e 	bx	lr

0000c2bc <Xil_L2CacheEnable>:
    c2bc:	e92d4008 	push	{r3, lr}
    c2c0:	e3a00c21 	mov	r0, #8448	; 0x2100
    c2c4:	e34f08f0 	movt	r0, #63728	; 0xf8f0
    c2c8:	eb0000ce 	bl	c608 <Xil_In32>
