
ucos-ii_demo_TM.elf:     file format elf32-littlearm


Disassembly of section .text:

00008058 <deregister_tm_clones-0xa8>:
	...

00008100 <deregister_tm_clones>:
    8100:	e92d4008 	push	{r3, lr}
    8104:	e3080624 	movw	r0, #34340	; 0x8624
    8108:	e59f3024 	ldr	r3, [pc, #36]	; 8134 <deregister_tm_clones+0x34>
    810c:	e3400001 	movt	r0, #1
    8110:	e0603003 	rsb	r3, r0, r3
    8114:	e3530006 	cmp	r3, #6
    8118:	98bd8008 	popls	{r3, pc}
    811c:	e3003000 	movw	r3, #0
    8120:	e3403000 	movt	r3, #0
    8124:	e3530000 	cmp	r3, #0
    8128:	08bd8008 	popeq	{r3, pc}
    812c:	e12fff33 	blx	r3
    8130:	e8bd8008 	pop	{r3, pc}
    8134:	00018627 	andeq	r8, r1, r7, lsr #12

00008138 <register_tm_clones>:
    8138:	e92d4008 	push	{r3, lr}
    813c:	e3080624 	movw	r0, #34340	; 0x8624
    8140:	e3083624 	movw	r3, #34340	; 0x8624
    8144:	e3400001 	movt	r0, #1
    8148:	e3403001 	movt	r3, #1
    814c:	e0603003 	rsb	r3, r0, r3
    8150:	e1a03143 	asr	r3, r3, #2
    8154:	e0833fa3 	add	r3, r3, r3, lsr #31
    8158:	e1b010c3 	asrs	r1, r3, #1
    815c:	08bd8008 	popeq	{r3, pc}
    8160:	e3002000 	movw	r2, #0
    8164:	e3402000 	movt	r2, #0
    8168:	e3520000 	cmp	r2, #0
    816c:	08bd8008 	popeq	{r3, pc}
    8170:	e12fff32 	blx	r2
    8174:	e8bd8008 	pop	{r3, pc}

00008178 <__do_global_dtors_aux>:
    8178:	e92d4010 	push	{r4, lr}
    817c:	e3084634 	movw	r4, #34356	; 0x8634
    8180:	e3404001 	movt	r4, #1
    8184:	e5d43000 	ldrb	r3, [r4]
    8188:	e3530000 	cmp	r3, #0
    818c:	18bd8010 	popne	{r4, pc}
    8190:	ebffffda 	bl	8100 <deregister_tm_clones>
    8194:	e3003000 	movw	r3, #0
    8198:	e3403000 	movt	r3, #0
    819c:	e3530000 	cmp	r3, #0
    81a0:	0a000002 	beq	81b0 <__do_global_dtors_aux+0x38>
    81a4:	e3080624 	movw	r0, #34340	; 0x8624
    81a8:	e3400001 	movt	r0, #1
    81ac:	e320f000 	nop	{0}
    81b0:	e3a03001 	mov	r3, #1
    81b4:	e5c43000 	strb	r3, [r4]
    81b8:	e8bd8010 	pop	{r4, pc}

000081bc <frame_dummy>:
    81bc:	e92d4008 	push	{r3, lr}
    81c0:	e3003000 	movw	r3, #0
    81c4:	e3403000 	movt	r3, #0
    81c8:	e3530000 	cmp	r3, #0
    81cc:	0a000004 	beq	81e4 <frame_dummy+0x28>
    81d0:	e3080624 	movw	r0, #34340	; 0x8624
    81d4:	e3081638 	movw	r1, #34360	; 0x8638
    81d8:	e3400001 	movt	r0, #1
    81dc:	e3401001 	movt	r1, #1
    81e0:	e320f000 	nop	{0}
    81e4:	e3080620 	movw	r0, #34336	; 0x8620
    81e8:	e3400001 	movt	r0, #1
    81ec:	e5903000 	ldr	r3, [r0]
    81f0:	e3530000 	cmp	r3, #0
    81f4:	0a000004 	beq	820c <frame_dummy+0x50>
    81f8:	e3003000 	movw	r3, #0
    81fc:	e3403000 	movt	r3, #0
    8200:	e3530000 	cmp	r3, #0
    8204:	0a000000 	beq	820c <frame_dummy+0x50>
    8208:	e12fff33 	blx	r3
    820c:	e8bd4008 	pop	{r3, lr}
    8210:	eaffffc8 	b	8138 <register_tm_clones>

00008214 <OSEventNameGet>:
    8214:	e92d4800 	push	{fp, lr}
    8218:	e28db004 	add	fp, sp, #4
    821c:	e24dd018 	sub	sp, sp, #24
    8220:	e50b0010 	str	r0, [fp, #-16]
    8224:	e50b1014 	str	r1, [fp, #-20]	; 0xffffffec
    8228:	e50b2018 	str	r2, [fp, #-24]	; 0xffffffe8
    822c:	e3a03000 	mov	r3, #0
    8230:	e50b3008 	str	r3, [fp, #-8]
    8234:	e30a3fa0 	movw	r3, #44960	; 0xafa0
    8238:	e3403019 	movt	r3, #25
    823c:	e5d33000 	ldrb	r3, [r3]
    8240:	e3530000 	cmp	r3, #0
    8244:	0a000004 	beq	825c <OSEventNameGet+0x48>
    8248:	e51b3018 	ldr	r3, [fp, #-24]	; 0xffffffe8
    824c:	e3a02011 	mov	r2, #17
    8250:	e5c32000 	strb	r2, [r3]
    8254:	e3a03000 	mov	r3, #0
    8258:	ea00001c 	b	82d0 <OSEventNameGet+0xbc>
    825c:	e51b3010 	ldr	r3, [fp, #-16]
    8260:	e5d33000 	ldrb	r3, [r3]
    8264:	e2433001 	sub	r3, r3, #1
    8268:	e3530003 	cmp	r3, #3
    826c:	8a000013 	bhi	82c0 <OSEventNameGet+0xac>
    8270:	e1a00000 	nop			; (mov r0, r0)
    8274:	eb001c0d 	bl	f2b0 <OS_CPU_SR_Save>
    8278:	e50b0008 	str	r0, [fp, #-8]
    827c:	e51b3010 	ldr	r3, [fp, #-16]
    8280:	e5932014 	ldr	r2, [r3, #20]
    8284:	e51b3014 	ldr	r3, [fp, #-20]	; 0xffffffec
    8288:	e5832000 	str	r2, [r3]
    828c:	e51b3014 	ldr	r3, [fp, #-20]	; 0xffffffec
    8290:	e5933000 	ldr	r3, [r3]
    8294:	e1a00003 	mov	r0, r3
    8298:	eb00067a 	bl	9c88 <OS_StrLen>
    829c:	e1a03000 	mov	r3, r0
    82a0:	e54b3009 	strb	r3, [fp, #-9]
    82a4:	e51b0008 	ldr	r0, [fp, #-8]
    82a8:	eb001c13 	bl	f2fc <OS_CPU_SR_Restore>
    82ac:	e51b3018 	ldr	r3, [fp, #-24]	; 0xffffffe8
    82b0:	e3a02000 	mov	r2, #0
    82b4:	e5c32000 	strb	r2, [r3]
    82b8:	e55b3009 	ldrb	r3, [fp, #-9]
    82bc:	ea000003 	b	82d0 <OSEventNameGet+0xbc>
    82c0:	e51b3018 	ldr	r3, [fp, #-24]	; 0xffffffe8
    82c4:	e3a02001 	mov	r2, #1
    82c8:	e5c32000 	strb	r2, [r3]
    82cc:	e3a03000 	mov	r3, #0
    82d0:	e1a00003 	mov	r0, r3
    82d4:	e24bd004 	sub	sp, fp, #4
    82d8:	e8bd8800 	pop	{fp, pc}

000082dc <OSEventNameSet>:
    82dc:	e92d4800 	push	{fp, lr}
    82e0:	e28db004 	add	fp, sp, #4
    82e4:	e24dd018 	sub	sp, sp, #24
    82e8:	e50b0010 	str	r0, [fp, #-16]
    82ec:	e50b1014 	str	r1, [fp, #-20]	; 0xffffffec
    82f0:	e50b2018 	str	r2, [fp, #-24]	; 0xffffffe8
    82f4:	e3a03000 	mov	r3, #0
    82f8:	e50b3008 	str	r3, [fp, #-8]
    82fc:	e30a3fa0 	movw	r3, #44960	; 0xafa0
    8300:	e3403019 	movt	r3, #25
    8304:	e5d33000 	ldrb	r3, [r3]
    8308:	e3530000 	cmp	r3, #0
    830c:	0a000003 	beq	8320 <OSEventNameSet+0x44>
    8310:	e51b3018 	ldr	r3, [fp, #-24]	; 0xffffffe8
    8314:	e3a02012 	mov	r2, #18
    8318:	e5c32000 	strb	r2, [r3]
    831c:	ea000014 	b	8374 <OSEventNameSet+0x98>
    8320:	e51b3010 	ldr	r3, [fp, #-16]
    8324:	e5d33000 	ldrb	r3, [r3]
    8328:	e2433001 	sub	r3, r3, #1
    832c:	e3530003 	cmp	r3, #3
    8330:	8a00000b 	bhi	8364 <OSEventNameSet+0x88>
    8334:	e1a00000 	nop			; (mov r0, r0)
    8338:	eb001bdc 	bl	f2b0 <OS_CPU_SR_Save>
    833c:	e50b0008 	str	r0, [fp, #-8]
    8340:	e51b3010 	ldr	r3, [fp, #-16]
    8344:	e51b2014 	ldr	r2, [fp, #-20]	; 0xffffffec
    8348:	e5832014 	str	r2, [r3, #20]
    834c:	e51b0008 	ldr	r0, [fp, #-8]
    8350:	eb001be9 	bl	f2fc <OS_CPU_SR_Restore>
    8354:	e51b3018 	ldr	r3, [fp, #-24]	; 0xffffffe8
    8358:	e3a02000 	mov	r2, #0
    835c:	e5c32000 	strb	r2, [r3]
    8360:	ea000003 	b	8374 <OSEventNameSet+0x98>
    8364:	e51b3018 	ldr	r3, [fp, #-24]	; 0xffffffe8
    8368:	e3a02001 	mov	r2, #1
    836c:	e5c32000 	strb	r2, [r3]
    8370:	e1a00000 	nop			; (mov r0, r0)
    8374:	e24bd004 	sub	sp, fp, #4
    8378:	e8bd8800 	pop	{fp, pc}

0000837c <OSEventPendMulti>:
    837c:	e92d4800 	push	{fp, lr}
    8380:	e28db004 	add	fp, sp, #4
    8384:	e24dd028 	sub	sp, sp, #40	; 0x28
    8388:	e50b0020 	str	r0, [fp, #-32]	; 0xffffffe0
    838c:	e50b1024 	str	r1, [fp, #-36]	; 0xffffffdc
    8390:	e50b2028 	str	r2, [fp, #-40]	; 0xffffffd8
    8394:	e50b302c 	str	r3, [fp, #-44]	; 0xffffffd4
    8398:	e3a03000 	mov	r3, #0
    839c:	e50b3018 	str	r3, [fp, #-24]	; 0xffffffe8
    83a0:	e51b3024 	ldr	r3, [fp, #-36]	; 0xffffffdc
    83a4:	e3a02000 	mov	r2, #0
    83a8:	e5832000 	str	r2, [r3]
    83ac:	e51b3020 	ldr	r3, [fp, #-32]	; 0xffffffe0
    83b0:	e50b3008 	str	r3, [fp, #-8]
    83b4:	e51b3008 	ldr	r3, [fp, #-8]
    83b8:	e5933000 	ldr	r3, [r3]
    83bc:	e50b300c 	str	r3, [fp, #-12]
    83c0:	ea000017 	b	8424 <OSEventPendMulti+0xa8>
    83c4:	e51b300c 	ldr	r3, [fp, #-12]
    83c8:	e5d33000 	ldrb	r3, [r3]
    83cc:	e3530002 	cmp	r3, #2
    83d0:	0a000008 	beq	83f8 <OSEventPendMulti+0x7c>
    83d4:	e3530003 	cmp	r3, #3
    83d8:	0a000008 	beq	8400 <OSEventPendMulti+0x84>
    83dc:	e3530001 	cmp	r3, #1
    83e0:	0a000008 	beq	8408 <OSEventPendMulti+0x8c>
    83e4:	e59b3004 	ldr	r3, [fp, #4]
    83e8:	e3a02001 	mov	r2, #1
    83ec:	e5c32000 	strb	r2, [r3]
    83f0:	e3a03000 	mov	r3, #0
    83f4:	ea000176 	b	89d4 <OSEventPendMulti+0x658>
    83f8:	e1a00000 	nop			; (mov r0, r0)
    83fc:	ea000002 	b	840c <OSEventPendMulti+0x90>
    8400:	e1a00000 	nop			; (mov r0, r0)
    8404:	ea000000 	b	840c <OSEventPendMulti+0x90>
    8408:	e1a00000 	nop			; (mov r0, r0)
    840c:	e51b3008 	ldr	r3, [fp, #-8]
    8410:	e2833004 	add	r3, r3, #4
    8414:	e50b3008 	str	r3, [fp, #-8]
    8418:	e51b3008 	ldr	r3, [fp, #-8]
    841c:	e5933000 	ldr	r3, [r3]
    8420:	e50b300c 	str	r3, [fp, #-12]
    8424:	e51b300c 	ldr	r3, [fp, #-12]
    8428:	e3530000 	cmp	r3, #0
    842c:	1affffe4 	bne	83c4 <OSEventPendMulti+0x48>
    8430:	e30a3fa0 	movw	r3, #44960	; 0xafa0
    8434:	e3403019 	movt	r3, #25
    8438:	e5d33000 	ldrb	r3, [r3]
    843c:	e3530000 	cmp	r3, #0
    8440:	0a000004 	beq	8458 <OSEventPendMulti+0xdc>
    8444:	e59b3004 	ldr	r3, [fp, #4]
    8448:	e3a02002 	mov	r2, #2
    844c:	e5c32000 	strb	r2, [r3]
    8450:	e3a03000 	mov	r3, #0
    8454:	ea00015e 	b	89d4 <OSEventPendMulti+0x658>
    8458:	e30a3e8c 	movw	r3, #44684	; 0xae8c
    845c:	e3403019 	movt	r3, #25
    8460:	e5d33000 	ldrb	r3, [r3]
    8464:	e3530000 	cmp	r3, #0
    8468:	0a000004 	beq	8480 <OSEventPendMulti+0x104>
    846c:	e59b3004 	ldr	r3, [fp, #4]
    8470:	e3a0200d 	mov	r2, #13
    8474:	e5c32000 	strb	r2, [r3]
    8478:	e3a03000 	mov	r3, #0
    847c:	ea000154 	b	89d4 <OSEventPendMulti+0x658>
    8480:	e3a03000 	mov	r3, #0
    8484:	e54b300d 	strb	r3, [fp, #-13]
    8488:	e3a03000 	mov	r3, #0
    848c:	e14b31b0 	strh	r3, [fp, #-16]
    8490:	e3a03000 	mov	r3, #0
    8494:	e54b3011 	strb	r3, [fp, #-17]	; 0xffffffef
    8498:	e51b3020 	ldr	r3, [fp, #-32]	; 0xffffffe0
    849c:	e50b3008 	str	r3, [fp, #-8]
    84a0:	e51b3008 	ldr	r3, [fp, #-8]
    84a4:	e5933000 	ldr	r3, [r3]
    84a8:	e50b300c 	str	r3, [fp, #-12]
    84ac:	eb001b7f 	bl	f2b0 <OS_CPU_SR_Save>
    84b0:	e50b0018 	str	r0, [fp, #-24]	; 0xffffffe8
    84b4:	ea000088 	b	86dc <OSEventPendMulti+0x360>
    84b8:	e51b300c 	ldr	r3, [fp, #-12]
    84bc:	e5d33000 	ldrb	r3, [r3]
    84c0:	e3530002 	cmp	r3, #2
    84c4:	0a000042 	beq	85d4 <OSEventPendMulti+0x258>
    84c8:	e3530003 	cmp	r3, #3
    84cc:	0a000002 	beq	84dc <OSEventPendMulti+0x160>
    84d0:	e3530001 	cmp	r3, #1
    84d4:	0a000020 	beq	855c <OSEventPendMulti+0x1e0>
    84d8:	ea00006f 	b	869c <OSEventPendMulti+0x320>
    84dc:	e51b300c 	ldr	r3, [fp, #-12]
    84e0:	e1d330b8 	ldrh	r3, [r3, #8]
    84e4:	e3530000 	cmp	r3, #0
    84e8:	0a000017 	beq	854c <OSEventPendMulti+0x1d0>
    84ec:	e51b300c 	ldr	r3, [fp, #-12]
    84f0:	e1d330b8 	ldrh	r3, [r3, #8]
    84f4:	e2433001 	sub	r3, r3, #1
    84f8:	e6ff2073 	uxth	r2, r3
    84fc:	e51b300c 	ldr	r3, [fp, #-12]
    8500:	e1c320b8 	strh	r2, [r3, #8]
    8504:	e51b3024 	ldr	r3, [fp, #-36]	; 0xffffffdc
    8508:	e51b200c 	ldr	r2, [fp, #-12]
    850c:	e5832000 	str	r2, [r3]
    8510:	e51b3024 	ldr	r3, [fp, #-36]	; 0xffffffdc
    8514:	e2833004 	add	r3, r3, #4
    8518:	e50b3024 	str	r3, [fp, #-36]	; 0xffffffdc
    851c:	e3a03001 	mov	r3, #1
    8520:	e54b300d 	strb	r3, [fp, #-13]
    8524:	e51b3028 	ldr	r3, [fp, #-40]	; 0xffffffd8
    8528:	e3a02000 	mov	r2, #0
    852c:	e5832000 	str	r2, [r3]
    8530:	e51b3028 	ldr	r3, [fp, #-40]	; 0xffffffd8
    8534:	e2833004 	add	r3, r3, #4
    8538:	e50b3028 	str	r3, [fp, #-40]	; 0xffffffd8
    853c:	e15b31b0 	ldrh	r3, [fp, #-16]
    8540:	e2833001 	add	r3, r3, #1
    8544:	e14b31b0 	strh	r3, [fp, #-16]
    8548:	ea00005d 	b	86c4 <OSEventPendMulti+0x348>
    854c:	e55b3011 	ldrb	r3, [fp, #-17]	; 0xffffffef
    8550:	e3833001 	orr	r3, r3, #1
    8554:	e54b3011 	strb	r3, [fp, #-17]	; 0xffffffef
    8558:	ea000059 	b	86c4 <OSEventPendMulti+0x348>
    855c:	e51b300c 	ldr	r3, [fp, #-12]
    8560:	e5933004 	ldr	r3, [r3, #4]
    8564:	e3530000 	cmp	r3, #0
    8568:	0a000015 	beq	85c4 <OSEventPendMulti+0x248>
    856c:	e51b300c 	ldr	r3, [fp, #-12]
    8570:	e5932004 	ldr	r2, [r3, #4]
    8574:	e51b3028 	ldr	r3, [fp, #-40]	; 0xffffffd8
    8578:	e5832000 	str	r2, [r3]
    857c:	e51b3028 	ldr	r3, [fp, #-40]	; 0xffffffd8
    8580:	e2833004 	add	r3, r3, #4
    8584:	e50b3028 	str	r3, [fp, #-40]	; 0xffffffd8
    8588:	e51b300c 	ldr	r3, [fp, #-12]
    858c:	e3a02000 	mov	r2, #0
    8590:	e5832004 	str	r2, [r3, #4]
    8594:	e51b3024 	ldr	r3, [fp, #-36]	; 0xffffffdc
    8598:	e51b200c 	ldr	r2, [fp, #-12]
    859c:	e5832000 	str	r2, [r3]
    85a0:	e51b3024 	ldr	r3, [fp, #-36]	; 0xffffffdc
    85a4:	e2833004 	add	r3, r3, #4
    85a8:	e50b3024 	str	r3, [fp, #-36]	; 0xffffffdc
    85ac:	e3a03001 	mov	r3, #1
    85b0:	e54b300d 	strb	r3, [fp, #-13]
    85b4:	e15b31b0 	ldrh	r3, [fp, #-16]
    85b8:	e2833001 	add	r3, r3, #1
    85bc:	e14b31b0 	strh	r3, [fp, #-16]
    85c0:	ea00003f 	b	86c4 <OSEventPendMulti+0x348>
    85c4:	e55b3011 	ldrb	r3, [fp, #-17]	; 0xffffffef
    85c8:	e3833002 	orr	r3, r3, #2
    85cc:	e54b3011 	strb	r3, [fp, #-17]	; 0xffffffef
    85d0:	ea00003b 	b	86c4 <OSEventPendMulti+0x348>
    85d4:	e51b300c 	ldr	r3, [fp, #-12]
    85d8:	e5933004 	ldr	r3, [r3, #4]
    85dc:	e50b301c 	str	r3, [fp, #-28]	; 0xffffffe4
    85e0:	e51b301c 	ldr	r3, [fp, #-28]	; 0xffffffe4
    85e4:	e1d331b6 	ldrh	r3, [r3, #22]
    85e8:	e3530000 	cmp	r3, #0
    85ec:	0a000026 	beq	868c <OSEventPendMulti+0x310>
    85f0:	e51b301c 	ldr	r3, [fp, #-28]	; 0xffffffe4
    85f4:	e5933010 	ldr	r3, [r3, #16]
    85f8:	e5931000 	ldr	r1, [r3]
    85fc:	e51b2028 	ldr	r2, [fp, #-40]	; 0xffffffd8
    8600:	e5821000 	str	r1, [r2]
    8604:	e51b2028 	ldr	r2, [fp, #-40]	; 0xffffffd8
    8608:	e2822004 	add	r2, r2, #4
    860c:	e50b2028 	str	r2, [fp, #-40]	; 0xffffffd8
    8610:	e2832004 	add	r2, r3, #4
    8614:	e51b301c 	ldr	r3, [fp, #-28]	; 0xffffffe4
    8618:	e5832010 	str	r2, [r3, #16]
    861c:	e51b301c 	ldr	r3, [fp, #-28]	; 0xffffffe4
    8620:	e5932010 	ldr	r2, [r3, #16]
    8624:	e51b301c 	ldr	r3, [fp, #-28]	; 0xffffffe4
    8628:	e5933008 	ldr	r3, [r3, #8]
    862c:	e1520003 	cmp	r2, r3
    8630:	1a000003 	bne	8644 <OSEventPendMulti+0x2c8>
    8634:	e51b301c 	ldr	r3, [fp, #-28]	; 0xffffffe4
    8638:	e5932004 	ldr	r2, [r3, #4]
    863c:	e51b301c 	ldr	r3, [fp, #-28]	; 0xffffffe4
    8640:	e5832010 	str	r2, [r3, #16]
    8644:	e51b301c 	ldr	r3, [fp, #-28]	; 0xffffffe4
    8648:	e1d331b6 	ldrh	r3, [r3, #22]
    864c:	e2433001 	sub	r3, r3, #1
    8650:	e6ff2073 	uxth	r2, r3
    8654:	e51b301c 	ldr	r3, [fp, #-28]	; 0xffffffe4
    8658:	e1c321b6 	strh	r2, [r3, #22]
    865c:	e51b3024 	ldr	r3, [fp, #-36]	; 0xffffffdc
    8660:	e51b200c 	ldr	r2, [fp, #-12]
    8664:	e5832000 	str	r2, [r3]
    8668:	e51b3024 	ldr	r3, [fp, #-36]	; 0xffffffdc
    866c:	e2833004 	add	r3, r3, #4
    8670:	e50b3024 	str	r3, [fp, #-36]	; 0xffffffdc
    8674:	e3a03001 	mov	r3, #1
    8678:	e54b300d 	strb	r3, [fp, #-13]
    867c:	e15b31b0 	ldrh	r3, [fp, #-16]
    8680:	e2833001 	add	r3, r3, #1
    8684:	e14b31b0 	strh	r3, [fp, #-16]
    8688:	ea00000d 	b	86c4 <OSEventPendMulti+0x348>
    868c:	e55b3011 	ldrb	r3, [fp, #-17]	; 0xffffffef
    8690:	e3833004 	orr	r3, r3, #4
    8694:	e54b3011 	strb	r3, [fp, #-17]	; 0xffffffef
    8698:	ea000009 	b	86c4 <OSEventPendMulti+0x348>
    869c:	e51b0018 	ldr	r0, [fp, #-24]	; 0xffffffe8
    86a0:	eb001b15 	bl	f2fc <OS_CPU_SR_Restore>
    86a4:	e51b3024 	ldr	r3, [fp, #-36]	; 0xffffffdc
    86a8:	e3a02000 	mov	r2, #0
    86ac:	e5832000 	str	r2, [r3]
    86b0:	e59b3004 	ldr	r3, [fp, #4]
    86b4:	e3a02001 	mov	r2, #1
    86b8:	e5c32000 	strb	r2, [r3]
    86bc:	e15b31b0 	ldrh	r3, [fp, #-16]
    86c0:	ea0000c3 	b	89d4 <OSEventPendMulti+0x658>
    86c4:	e51b3008 	ldr	r3, [fp, #-8]
    86c8:	e2833004 	add	r3, r3, #4
    86cc:	e50b3008 	str	r3, [fp, #-8]
    86d0:	e51b3008 	ldr	r3, [fp, #-8]
    86d4:	e5933000 	ldr	r3, [r3]
    86d8:	e50b300c 	str	r3, [fp, #-12]
    86dc:	e51b300c 	ldr	r3, [fp, #-12]
    86e0:	e3530000 	cmp	r3, #0
    86e4:	1affff73 	bne	84b8 <OSEventPendMulti+0x13c>
    86e8:	e55b300d 	ldrb	r3, [fp, #-13]
    86ec:	e3530001 	cmp	r3, #1
    86f0:	1a000009 	bne	871c <OSEventPendMulti+0x3a0>
    86f4:	e51b3024 	ldr	r3, [fp, #-36]	; 0xffffffdc
    86f8:	e3a02000 	mov	r2, #0
    86fc:	e5832000 	str	r2, [r3]
    8700:	e51b0018 	ldr	r0, [fp, #-24]	; 0xffffffe8
    8704:	eb001afc 	bl	f2fc <OS_CPU_SR_Restore>
    8708:	e59b3004 	ldr	r3, [fp, #4]
    870c:	e3a02000 	mov	r2, #0
    8710:	e5c32000 	strb	r2, [r3]
    8714:	e15b31b0 	ldrh	r3, [fp, #-16]
    8718:	ea0000ad 	b	89d4 <OSEventPendMulti+0x658>
    871c:	e30a3fa4 	movw	r3, #44964	; 0xafa4
    8720:	e3403019 	movt	r3, #25
    8724:	e5932000 	ldr	r2, [r3]
    8728:	e30a3fa4 	movw	r3, #44964	; 0xafa4
    872c:	e3403019 	movt	r3, #25
    8730:	e5933000 	ldr	r3, [r3]
    8734:	e5d3102c 	ldrb	r1, [r3, #44]	; 0x2c
    8738:	e55b3011 	ldrb	r3, [fp, #-17]	; 0xffffffef
    873c:	e1813003 	orr	r3, r1, r3
    8740:	e6ef3073 	uxtb	r3, r3
    8744:	e1e03c83 	mvn	r3, r3, lsl #25
    8748:	e1e03ca3 	mvn	r3, r3, lsr #25
    874c:	e6ef3073 	uxtb	r3, r3
    8750:	e5c2302c 	strb	r3, [r2, #44]	; 0x2c
    8754:	e30a3fa4 	movw	r3, #44964	; 0xafa4
    8758:	e3403019 	movt	r3, #25
    875c:	e5933000 	ldr	r3, [r3]
    8760:	e3a02000 	mov	r2, #0
    8764:	e5c3202d 	strb	r2, [r3, #45]	; 0x2d
    8768:	e30a3fa4 	movw	r3, #44964	; 0xafa4
    876c:	e3403019 	movt	r3, #25
    8770:	e5933000 	ldr	r3, [r3]
    8774:	e51b202c 	ldr	r2, [fp, #-44]	; 0xffffffd4
    8778:	e5832028 	str	r2, [r3, #40]	; 0x28
    877c:	e51b0020 	ldr	r0, [fp, #-32]	; 0xffffffe0
    8780:	eb0002c5 	bl	929c <OS_EventTaskWaitMulti>
    8784:	e51b0018 	ldr	r0, [fp, #-24]	; 0xffffffe8
    8788:	eb001adb 	bl	f2fc <OS_CPU_SR_Restore>
    878c:	eb0004e9 	bl	9b38 <OS_Sched>
    8790:	eb001ac6 	bl	f2b0 <OS_CPU_SR_Save>
    8794:	e50b0018 	str	r0, [fp, #-24]	; 0xffffffe8
    8798:	e30a3fa4 	movw	r3, #44964	; 0xafa4
    879c:	e3403019 	movt	r3, #25
    87a0:	e5933000 	ldr	r3, [r3]
    87a4:	e5d3302d 	ldrb	r3, [r3, #45]	; 0x2d
    87a8:	e3530000 	cmp	r3, #0
    87ac:	0a000001 	beq	87b8 <OSEventPendMulti+0x43c>
    87b0:	e3530002 	cmp	r3, #2
    87b4:	1a00001f 	bne	8838 <OSEventPendMulti+0x4bc>
    87b8:	e30a3fa4 	movw	r3, #44964	; 0xafa4
    87bc:	e3403019 	movt	r3, #25
    87c0:	e5933000 	ldr	r3, [r3]
    87c4:	e593301c 	ldr	r3, [r3, #28]
    87c8:	e50b300c 	str	r3, [fp, #-12]
    87cc:	e51b300c 	ldr	r3, [fp, #-12]
    87d0:	e3530000 	cmp	r3, #0
    87d4:	0a00000b 	beq	8808 <OSEventPendMulti+0x48c>
    87d8:	e51b3024 	ldr	r3, [fp, #-36]	; 0xffffffdc
    87dc:	e51b200c 	ldr	r2, [fp, #-12]
    87e0:	e5832000 	str	r2, [r3]
    87e4:	e51b3024 	ldr	r3, [fp, #-36]	; 0xffffffdc
    87e8:	e2833004 	add	r3, r3, #4
    87ec:	e50b3024 	str	r3, [fp, #-36]	; 0xffffffdc
    87f0:	e51b3024 	ldr	r3, [fp, #-36]	; 0xffffffdc
    87f4:	e3a02000 	mov	r2, #0
    87f8:	e5832000 	str	r2, [r3]
    87fc:	e3a03001 	mov	r3, #1
    8800:	e14b31b0 	strh	r3, [fp, #-16]
    8804:	ea000012 	b	8854 <OSEventPendMulti+0x4d8>
    8808:	e30a3fa4 	movw	r3, #44964	; 0xafa4
    880c:	e3403019 	movt	r3, #25
    8810:	e5933000 	ldr	r3, [r3]
    8814:	e3a02001 	mov	r2, #1
    8818:	e5c3202d 	strb	r2, [r3, #45]	; 0x2d
    881c:	e30a3fa4 	movw	r3, #44964	; 0xafa4
    8820:	e3403019 	movt	r3, #25
    8824:	e5933000 	ldr	r3, [r3]
    8828:	e1a00003 	mov	r0, r3
    882c:	e51b1020 	ldr	r1, [fp, #-32]	; 0xffffffe0
    8830:	eb000335 	bl	950c <OS_EventTaskRemoveMulti>
    8834:	ea000006 	b	8854 <OSEventPendMulti+0x4d8>
    8838:	e30a3fa4 	movw	r3, #44964	; 0xafa4
    883c:	e3403019 	movt	r3, #25
    8840:	e5933000 	ldr	r3, [r3]
    8844:	e1a00003 	mov	r0, r3
    8848:	e51b1020 	ldr	r1, [fp, #-32]	; 0xffffffe0
    884c:	eb00032e 	bl	950c <OS_EventTaskRemoveMulti>
    8850:	e1a00000 	nop			; (mov r0, r0)
    8854:	e30a3fa4 	movw	r3, #44964	; 0xafa4
    8858:	e3403019 	movt	r3, #25
    885c:	e5933000 	ldr	r3, [r3]
    8860:	e5d3302d 	ldrb	r3, [r3, #45]	; 0x2d
    8864:	e3530000 	cmp	r3, #0
    8868:	0a000002 	beq	8878 <OSEventPendMulti+0x4fc>
    886c:	e3530002 	cmp	r3, #2
    8870:	0a000027 	beq	8914 <OSEventPendMulti+0x598>
    8874:	ea000030 	b	893c <OSEventPendMulti+0x5c0>
    8878:	e51b300c 	ldr	r3, [fp, #-12]
    887c:	e5d33000 	ldrb	r3, [r3]
    8880:	e3530001 	cmp	r3, #1
    8884:	ba000014 	blt	88dc <OSEventPendMulti+0x560>
    8888:	e3530002 	cmp	r3, #2
    888c:	da000008 	ble	88b4 <OSEventPendMulti+0x538>
    8890:	e3530003 	cmp	r3, #3
    8894:	1a000010 	bne	88dc <OSEventPendMulti+0x560>
    8898:	e51b3028 	ldr	r3, [fp, #-40]	; 0xffffffd8
    889c:	e3a02000 	mov	r2, #0
    88a0:	e5832000 	str	r2, [r3]
    88a4:	e51b3028 	ldr	r3, [fp, #-40]	; 0xffffffd8
    88a8:	e2833004 	add	r3, r3, #4
    88ac:	e50b3028 	str	r3, [fp, #-40]	; 0xffffffd8
    88b0:	ea000013 	b	8904 <OSEventPendMulti+0x588>
    88b4:	e30a3fa4 	movw	r3, #44964	; 0xafa4
    88b8:	e3403019 	movt	r3, #25
    88bc:	e5933000 	ldr	r3, [r3]
    88c0:	e5932024 	ldr	r2, [r3, #36]	; 0x24
    88c4:	e51b3028 	ldr	r3, [fp, #-40]	; 0xffffffd8
    88c8:	e5832000 	str	r2, [r3]
    88cc:	e51b3028 	ldr	r3, [fp, #-40]	; 0xffffffd8
    88d0:	e2833004 	add	r3, r3, #4
    88d4:	e50b3028 	str	r3, [fp, #-40]	; 0xffffffd8
    88d8:	ea000009 	b	8904 <OSEventPendMulti+0x588>
    88dc:	e51b0018 	ldr	r0, [fp, #-24]	; 0xffffffe8
    88e0:	eb001a85 	bl	f2fc <OS_CPU_SR_Restore>
    88e4:	e51b3024 	ldr	r3, [fp, #-36]	; 0xffffffdc
    88e8:	e3a02000 	mov	r2, #0
    88ec:	e5832000 	str	r2, [r3]
    88f0:	e59b3004 	ldr	r3, [fp, #4]
    88f4:	e3a02001 	mov	r2, #1
    88f8:	e5c32000 	strb	r2, [r3]
    88fc:	e15b31b0 	ldrh	r3, [fp, #-16]
    8900:	ea000033 	b	89d4 <OSEventPendMulti+0x658>
    8904:	e59b3004 	ldr	r3, [fp, #4]
    8908:	e3a02000 	mov	r2, #0
    890c:	e5c32000 	strb	r2, [r3]
    8910:	ea000013 	b	8964 <OSEventPendMulti+0x5e8>
    8914:	e51b3028 	ldr	r3, [fp, #-40]	; 0xffffffd8
    8918:	e3a02000 	mov	r2, #0
    891c:	e5832000 	str	r2, [r3]
    8920:	e51b3028 	ldr	r3, [fp, #-40]	; 0xffffffd8
    8924:	e2833004 	add	r3, r3, #4
    8928:	e50b3028 	str	r3, [fp, #-40]	; 0xffffffd8
    892c:	e59b3004 	ldr	r3, [fp, #4]
    8930:	e3a0200e 	mov	r2, #14
    8934:	e5c32000 	strb	r2, [r3]
    8938:	ea000009 	b	8964 <OSEventPendMulti+0x5e8>
    893c:	e51b3028 	ldr	r3, [fp, #-40]	; 0xffffffd8
    8940:	e3a02000 	mov	r2, #0
    8944:	e5832000 	str	r2, [r3]
    8948:	e51b3028 	ldr	r3, [fp, #-40]	; 0xffffffd8
    894c:	e2833004 	add	r3, r3, #4
    8950:	e50b3028 	str	r3, [fp, #-40]	; 0xffffffd8
    8954:	e59b3004 	ldr	r3, [fp, #4]
    8958:	e3a0200a 	mov	r2, #10
    895c:	e5c32000 	strb	r2, [r3]
    8960:	e1a00000 	nop			; (mov r0, r0)
    8964:	e30a3fa4 	movw	r3, #44964	; 0xafa4
    8968:	e3403019 	movt	r3, #25
    896c:	e5933000 	ldr	r3, [r3]
    8970:	e3a02000 	mov	r2, #0
    8974:	e5c3202c 	strb	r2, [r3, #44]	; 0x2c
    8978:	e30a3fa4 	movw	r3, #44964	; 0xafa4
    897c:	e3403019 	movt	r3, #25
    8980:	e5933000 	ldr	r3, [r3]
    8984:	e3a02000 	mov	r2, #0
    8988:	e5c3202d 	strb	r2, [r3, #45]	; 0x2d
    898c:	e30a3fa4 	movw	r3, #44964	; 0xafa4
    8990:	e3403019 	movt	r3, #25
    8994:	e5933000 	ldr	r3, [r3]
    8998:	e3a02000 	mov	r2, #0
    899c:	e583201c 	str	r2, [r3, #28]
    89a0:	e30a3fa4 	movw	r3, #44964	; 0xafa4
    89a4:	e3403019 	movt	r3, #25
    89a8:	e5933000 	ldr	r3, [r3]
    89ac:	e3a02000 	mov	r2, #0
    89b0:	e5832020 	str	r2, [r3, #32]
    89b4:	e30a3fa4 	movw	r3, #44964	; 0xafa4
    89b8:	e3403019 	movt	r3, #25
    89bc:	e5933000 	ldr	r3, [r3]
    89c0:	e3a02000 	mov	r2, #0
    89c4:	e5832024 	str	r2, [r3, #36]	; 0x24
    89c8:	e51b0018 	ldr	r0, [fp, #-24]	; 0xffffffe8
    89cc:	eb001a4a 	bl	f2fc <OS_CPU_SR_Restore>
    89d0:	e15b31b0 	ldrh	r3, [fp, #-16]
    89d4:	e1a00003 	mov	r0, r3
    89d8:	e24bd004 	sub	sp, fp, #4
    89dc:	e8bd8800 	pop	{fp, pc}

000089e0 <OSInit>:
    89e0:	e92d4800 	push	{fp, lr}
    89e4:	e28db004 	add	fp, sp, #4
    89e8:	eb001b5e 	bl	f768 <OSInitHookBegin>
    89ec:	eb00036b 	bl	97a0 <OS_InitMisc>
    89f0:	eb00038f 	bl	9834 <OS_InitRdyList>
    89f4:	eb0003d3 	bl	9948 <OS_InitTCBList>
    89f8:	eb00031f 	bl	967c <OS_InitEventList>
    89fc:	eb00093b 	bl	aef0 <OS_MemInit>
    8a00:	eb001153 	bl	cf54 <OS_QInit>
    8a04:	eb0003b2 	bl	98d4 <OS_InitTaskIdle>
    8a08:	eb001b7b 	bl	f7fc <OSInitHookEnd>
    8a0c:	e8bd8800 	pop	{fp, pc}

00008a10 <OSIntEnter>:
    8a10:	e52db004 	push	{fp}		; (str fp, [sp, #-4]!)
    8a14:	e28db000 	add	fp, sp, #0
    8a18:	e30a3e8e 	movw	r3, #44686	; 0xae8e
    8a1c:	e3403019 	movt	r3, #25
    8a20:	e5d33000 	ldrb	r3, [r3]
    8a24:	e3530001 	cmp	r3, #1
    8a28:	1a00000c 	bne	8a60 <OSIntEnter+0x50>
    8a2c:	e30a3fa0 	movw	r3, #44960	; 0xafa0
    8a30:	e3403019 	movt	r3, #25
    8a34:	e5d33000 	ldrb	r3, [r3]
    8a38:	e35300ff 	cmp	r3, #255	; 0xff
    8a3c:	0a000007 	beq	8a60 <OSIntEnter+0x50>
    8a40:	e30a3fa0 	movw	r3, #44960	; 0xafa0
    8a44:	e3403019 	movt	r3, #25
    8a48:	e5d33000 	ldrb	r3, [r3]
    8a4c:	e2833001 	add	r3, r3, #1
    8a50:	e6ef2073 	uxtb	r2, r3
    8a54:	e30a3fa0 	movw	r3, #44960	; 0xafa0
    8a58:	e3403019 	movt	r3, #25
    8a5c:	e5c32000 	strb	r2, [r3]
    8a60:	e28bd000 	add	sp, fp, #0
    8a64:	e8bd0800 	ldmfd	sp!, {fp}
    8a68:	e12fff1e 	bx	lr

00008a6c <OSIntExit>:
    8a6c:	e92d4800 	push	{fp, lr}
    8a70:	e28db004 	add	fp, sp, #4
    8a74:	e24dd008 	sub	sp, sp, #8
    8a78:	e3a03000 	mov	r3, #0
    8a7c:	e50b3008 	str	r3, [fp, #-8]
    8a80:	e30a3e8e 	movw	r3, #44686	; 0xae8e
    8a84:	e3403019 	movt	r3, #25
    8a88:	e5d33000 	ldrb	r3, [r3]
    8a8c:	e3530001 	cmp	r3, #1
    8a90:	1a00003b 	bne	8b84 <OSIntExit+0x118>
    8a94:	eb001a05 	bl	f2b0 <OS_CPU_SR_Save>
    8a98:	e50b0008 	str	r0, [fp, #-8]
    8a9c:	e30a3fa0 	movw	r3, #44960	; 0xafa0
    8aa0:	e3403019 	movt	r3, #25
    8aa4:	e5d33000 	ldrb	r3, [r3]
    8aa8:	e3530000 	cmp	r3, #0
    8aac:	0a000007 	beq	8ad0 <OSIntExit+0x64>
    8ab0:	e30a3fa0 	movw	r3, #44960	; 0xafa0
    8ab4:	e3403019 	movt	r3, #25
    8ab8:	e5d33000 	ldrb	r3, [r3]
    8abc:	e2433001 	sub	r3, r3, #1
    8ac0:	e6ef2073 	uxtb	r2, r3
    8ac4:	e30a3fa0 	movw	r3, #44960	; 0xafa0
    8ac8:	e3403019 	movt	r3, #25
    8acc:	e5c32000 	strb	r2, [r3]
    8ad0:	e30a3fa0 	movw	r3, #44960	; 0xafa0
    8ad4:	e3403019 	movt	r3, #25
    8ad8:	e5d33000 	ldrb	r3, [r3]
    8adc:	e3530000 	cmp	r3, #0
    8ae0:	1a000025 	bne	8b7c <OSIntExit+0x110>
    8ae4:	e30a3e8c 	movw	r3, #44684	; 0xae8c
    8ae8:	e3403019 	movt	r3, #25
    8aec:	e5d33000 	ldrb	r3, [r3]
    8af0:	e3530000 	cmp	r3, #0
    8af4:	1a000020 	bne	8b7c <OSIntExit+0x110>
    8af8:	eb000444 	bl	9c10 <OS_SchedNew>
    8afc:	e30a3e94 	movw	r3, #44692	; 0xae94
    8b00:	e3403019 	movt	r3, #25
    8b04:	e5d33000 	ldrb	r3, [r3]
    8b08:	e1a02003 	mov	r2, r3
    8b0c:	e30b392c 	movw	r3, #47404	; 0xb92c
    8b10:	e3403019 	movt	r3, #25
    8b14:	e7932102 	ldr	r2, [r3, r2, lsl #2]
    8b18:	e30a3f88 	movw	r3, #44936	; 0xaf88
    8b1c:	e3403019 	movt	r3, #25
    8b20:	e5832000 	str	r2, [r3]
    8b24:	e30a3e94 	movw	r3, #44692	; 0xae94
    8b28:	e3403019 	movt	r3, #25
    8b2c:	e5d32000 	ldrb	r2, [r3]
    8b30:	e30a3e95 	movw	r3, #44693	; 0xae95
    8b34:	e3403019 	movt	r3, #25
    8b38:	e5d33000 	ldrb	r3, [r3]
    8b3c:	e1520003 	cmp	r2, r3
    8b40:	0a00000d 	beq	8b7c <OSIntExit+0x110>
    8b44:	e30a3f88 	movw	r3, #44936	; 0xaf88
    8b48:	e3403019 	movt	r3, #25
    8b4c:	e5933000 	ldr	r3, [r3]
    8b50:	e5932034 	ldr	r2, [r3, #52]	; 0x34
    8b54:	e2822001 	add	r2, r2, #1
    8b58:	e5832034 	str	r2, [r3, #52]	; 0x34
    8b5c:	e30a3f18 	movw	r3, #44824	; 0xaf18
    8b60:	e3403019 	movt	r3, #25
    8b64:	e5933000 	ldr	r3, [r3]
    8b68:	e2832001 	add	r2, r3, #1
    8b6c:	e30a3f18 	movw	r3, #44824	; 0xaf18
    8b70:	e3403019 	movt	r3, #25
    8b74:	e5832000 	str	r2, [r3]
    8b78:	eb001a32 	bl	f448 <OSIntCtxSw>
    8b7c:	e51b0008 	ldr	r0, [fp, #-8]
    8b80:	eb0019dd 	bl	f2fc <OS_CPU_SR_Restore>
    8b84:	e24bd004 	sub	sp, fp, #4
    8b88:	e8bd8800 	pop	{fp, pc}

00008b8c <OSSchedLock>:
    8b8c:	e92d4800 	push	{fp, lr}
    8b90:	e28db004 	add	fp, sp, #4
    8b94:	e24dd008 	sub	sp, sp, #8
    8b98:	e3a03000 	mov	r3, #0
    8b9c:	e50b3008 	str	r3, [fp, #-8]
    8ba0:	e30a3e8e 	movw	r3, #44686	; 0xae8e
    8ba4:	e3403019 	movt	r3, #25
    8ba8:	e5d33000 	ldrb	r3, [r3]
    8bac:	e3530001 	cmp	r3, #1
    8bb0:	1a000015 	bne	8c0c <OSSchedLock+0x80>
    8bb4:	eb0019bd 	bl	f2b0 <OS_CPU_SR_Save>
    8bb8:	e50b0008 	str	r0, [fp, #-8]
    8bbc:	e30a3fa0 	movw	r3, #44960	; 0xafa0
    8bc0:	e3403019 	movt	r3, #25
    8bc4:	e5d33000 	ldrb	r3, [r3]
    8bc8:	e3530000 	cmp	r3, #0
    8bcc:	1a00000c 	bne	8c04 <OSSchedLock+0x78>
    8bd0:	e30a3e8c 	movw	r3, #44684	; 0xae8c
    8bd4:	e3403019 	movt	r3, #25
    8bd8:	e5d33000 	ldrb	r3, [r3]
    8bdc:	e35300ff 	cmp	r3, #255	; 0xff
    8be0:	0a000007 	beq	8c04 <OSSchedLock+0x78>
    8be4:	e30a3e8c 	movw	r3, #44684	; 0xae8c
    8be8:	e3403019 	movt	r3, #25
    8bec:	e5d33000 	ldrb	r3, [r3]
    8bf0:	e2833001 	add	r3, r3, #1
    8bf4:	e6ef2073 	uxtb	r2, r3
    8bf8:	e30a3e8c 	movw	r3, #44684	; 0xae8c
    8bfc:	e3403019 	movt	r3, #25
    8c00:	e5c32000 	strb	r2, [r3]
    8c04:	e51b0008 	ldr	r0, [fp, #-8]
    8c08:	eb0019bb 	bl	f2fc <OS_CPU_SR_Restore>
    8c0c:	e24bd004 	sub	sp, fp, #4
    8c10:	e8bd8800 	pop	{fp, pc}

00008c14 <OSSchedUnlock>:
    8c14:	e92d4800 	push	{fp, lr}
    8c18:	e28db004 	add	fp, sp, #4
    8c1c:	e24dd008 	sub	sp, sp, #8
    8c20:	e3a03000 	mov	r3, #0
    8c24:	e50b3008 	str	r3, [fp, #-8]
    8c28:	e30a3e8e 	movw	r3, #44686	; 0xae8e
    8c2c:	e3403019 	movt	r3, #25
    8c30:	e5d33000 	ldrb	r3, [r3]
    8c34:	e3530001 	cmp	r3, #1
    8c38:	1a000024 	bne	8cd0 <OSSchedUnlock+0xbc>
    8c3c:	eb00199b 	bl	f2b0 <OS_CPU_SR_Save>
    8c40:	e50b0008 	str	r0, [fp, #-8]
    8c44:	e30a3fa0 	movw	r3, #44960	; 0xafa0
    8c48:	e3403019 	movt	r3, #25
    8c4c:	e5d33000 	ldrb	r3, [r3]
    8c50:	e3530000 	cmp	r3, #0
    8c54:	1a00001b 	bne	8cc8 <OSSchedUnlock+0xb4>
    8c58:	e30a3e8c 	movw	r3, #44684	; 0xae8c
    8c5c:	e3403019 	movt	r3, #25
    8c60:	e5d33000 	ldrb	r3, [r3]
    8c64:	e3530000 	cmp	r3, #0
    8c68:	0a000013 	beq	8cbc <OSSchedUnlock+0xa8>
    8c6c:	e30a3e8c 	movw	r3, #44684	; 0xae8c
    8c70:	e3403019 	movt	r3, #25
    8c74:	e5d33000 	ldrb	r3, [r3]
    8c78:	e2433001 	sub	r3, r3, #1
    8c7c:	e6ef2073 	uxtb	r2, r3
    8c80:	e30a3e8c 	movw	r3, #44684	; 0xae8c
    8c84:	e3403019 	movt	r3, #25
    8c88:	e5c32000 	strb	r2, [r3]
    8c8c:	e30a3e8c 	movw	r3, #44684	; 0xae8c
    8c90:	e3403019 	movt	r3, #25
    8c94:	e5d33000 	ldrb	r3, [r3]
    8c98:	e3530000 	cmp	r3, #0
    8c9c:	1a000003 	bne	8cb0 <OSSchedUnlock+0x9c>
    8ca0:	e51b0008 	ldr	r0, [fp, #-8]
    8ca4:	eb001994 	bl	f2fc <OS_CPU_SR_Restore>
    8ca8:	eb0003a2 	bl	9b38 <OS_Sched>
    8cac:	ea000007 	b	8cd0 <OSSchedUnlock+0xbc>
    8cb0:	e51b0008 	ldr	r0, [fp, #-8]
    8cb4:	eb001990 	bl	f2fc <OS_CPU_SR_Restore>
    8cb8:	ea000004 	b	8cd0 <OSSchedUnlock+0xbc>
    8cbc:	e51b0008 	ldr	r0, [fp, #-8]
    8cc0:	eb00198d 	bl	f2fc <OS_CPU_SR_Restore>
    8cc4:	ea000001 	b	8cd0 <OSSchedUnlock+0xbc>
    8cc8:	e51b0008 	ldr	r0, [fp, #-8]
    8ccc:	eb00198a 	bl	f2fc <OS_CPU_SR_Restore>
    8cd0:	e24bd004 	sub	sp, fp, #4
    8cd4:	e8bd8800 	pop	{fp, pc}

00008cd8 <OSStart>:
    8cd8:	e92d4800 	push	{fp, lr}
    8cdc:	e28db004 	add	fp, sp, #4
    8ce0:	e30a3e8e 	movw	r3, #44686	; 0xae8e
    8ce4:	e3403019 	movt	r3, #25
    8ce8:	e5d33000 	ldrb	r3, [r3]
    8cec:	e3530000 	cmp	r3, #0
    8cf0:	1a000017 	bne	8d54 <OSStart+0x7c>
    8cf4:	eb0003c5 	bl	9c10 <OS_SchedNew>
    8cf8:	e30a3e94 	movw	r3, #44692	; 0xae94
    8cfc:	e3403019 	movt	r3, #25
    8d00:	e5d32000 	ldrb	r2, [r3]
    8d04:	e30a3e95 	movw	r3, #44693	; 0xae95
    8d08:	e3403019 	movt	r3, #25
    8d0c:	e5c32000 	strb	r2, [r3]
    8d10:	e30a3e94 	movw	r3, #44692	; 0xae94
    8d14:	e3403019 	movt	r3, #25
    8d18:	e5d33000 	ldrb	r3, [r3]
    8d1c:	e1a02003 	mov	r2, r3
    8d20:	e30b392c 	movw	r3, #47404	; 0xb92c
    8d24:	e3403019 	movt	r3, #25
    8d28:	e7932102 	ldr	r2, [r3, r2, lsl #2]
    8d2c:	e30a3f88 	movw	r3, #44936	; 0xaf88
    8d30:	e3403019 	movt	r3, #25
    8d34:	e5832000 	str	r2, [r3]
    8d38:	e30a3f88 	movw	r3, #44936	; 0xaf88
    8d3c:	e3403019 	movt	r3, #25
    8d40:	e5932000 	ldr	r2, [r3]
    8d44:	e30a3fa4 	movw	r3, #44964	; 0xafa4
    8d48:	e3403019 	movt	r3, #25
    8d4c:	e5832000 	str	r2, [r3]
    8d50:	eb001978 	bl	f338 <OSStartHighRdy>
    8d54:	e8bd8800 	pop	{fp, pc}

00008d58 <OSTimeTick>:
    8d58:	e92d4800 	push	{fp, lr}
    8d5c:	e28db004 	add	fp, sp, #4
    8d60:	e24dd010 	sub	sp, sp, #16
    8d64:	e3a03000 	mov	r3, #0
    8d68:	e50b3010 	str	r3, [fp, #-16]
    8d6c:	eb001b60 	bl	faf4 <OSTimeTickHook>
    8d70:	eb00194e 	bl	f2b0 <OS_CPU_SR_Save>
    8d74:	e50b0010 	str	r0, [fp, #-16]
    8d78:	e30a3fa8 	movw	r3, #44968	; 0xafa8
    8d7c:	e3403019 	movt	r3, #25
    8d80:	e5933000 	ldr	r3, [r3]
    8d84:	e2832001 	add	r2, r3, #1
    8d88:	e30a3fa8 	movw	r3, #44968	; 0xafa8
    8d8c:	e3403019 	movt	r3, #25
    8d90:	e5832000 	str	r2, [r3]
    8d94:	e51b0010 	ldr	r0, [fp, #-16]
    8d98:	eb001957 	bl	f2fc <OS_CPU_SR_Restore>
    8d9c:	e30a3e8e 	movw	r3, #44686	; 0xae8e
    8da0:	e3403019 	movt	r3, #25
    8da4:	e5d33000 	ldrb	r3, [r3]
    8da8:	e3530001 	cmp	r3, #1
    8dac:	1a00006f 	bne	8f70 <OSTimeTick+0x218>
    8db0:	e30a3f14 	movw	r3, #44820	; 0xaf14
    8db4:	e3403019 	movt	r3, #25
    8db8:	e5d33000 	ldrb	r3, [r3]
    8dbc:	e3530001 	cmp	r3, #1
    8dc0:	0a000006 	beq	8de0 <OSTimeTick+0x88>
    8dc4:	e3530002 	cmp	r3, #2
    8dc8:	0a000007 	beq	8dec <OSTimeTick+0x94>
    8dcc:	e3530000 	cmp	r3, #0
    8dd0:	1a00000c 	bne	8e08 <OSTimeTick+0xb0>
    8dd4:	e3a03001 	mov	r3, #1
    8dd8:	e54b3009 	strb	r3, [fp, #-9]
    8ddc:	ea000010 	b	8e24 <OSTimeTick+0xcc>
    8de0:	e3a03000 	mov	r3, #0
    8de4:	e54b3009 	strb	r3, [fp, #-9]
    8de8:	ea00000d 	b	8e24 <OSTimeTick+0xcc>
    8dec:	e3a03001 	mov	r3, #1
    8df0:	e54b3009 	strb	r3, [fp, #-9]
    8df4:	e30a3f14 	movw	r3, #44820	; 0xaf14
    8df8:	e3403019 	movt	r3, #25
    8dfc:	e3a02001 	mov	r2, #1
    8e00:	e5c32000 	strb	r2, [r3]
    8e04:	ea000006 	b	8e24 <OSTimeTick+0xcc>
    8e08:	e3a03001 	mov	r3, #1
    8e0c:	e54b3009 	strb	r3, [fp, #-9]
    8e10:	e30a3f14 	movw	r3, #44820	; 0xaf14
    8e14:	e3403019 	movt	r3, #25
    8e18:	e3a02000 	mov	r2, #0
    8e1c:	e5c32000 	strb	r2, [r3]
    8e20:	e1a00000 	nop			; (mov r0, r0)
    8e24:	e55b3009 	ldrb	r3, [fp, #-9]
    8e28:	e3530000 	cmp	r3, #0
    8e2c:	0a00004e 	beq	8f6c <OSTimeTick+0x214>
    8e30:	e30a3e98 	movw	r3, #44696	; 0xae98
    8e34:	e3403019 	movt	r3, #25
    8e38:	e5933000 	ldr	r3, [r3]
    8e3c:	e50b3008 	str	r3, [fp, #-8]
    8e40:	ea000044 	b	8f58 <OSTimeTick+0x200>
    8e44:	eb001919 	bl	f2b0 <OS_CPU_SR_Save>
    8e48:	e50b0010 	str	r0, [fp, #-16]
    8e4c:	e51b3008 	ldr	r3, [fp, #-8]
    8e50:	e5933028 	ldr	r3, [r3, #40]	; 0x28
    8e54:	e3530000 	cmp	r3, #0
    8e58:	0a000039 	beq	8f44 <OSTimeTick+0x1ec>
    8e5c:	e51b3008 	ldr	r3, [fp, #-8]
    8e60:	e5933028 	ldr	r3, [r3, #40]	; 0x28
    8e64:	e2432001 	sub	r2, r3, #1
    8e68:	e51b3008 	ldr	r3, [fp, #-8]
    8e6c:	e5832028 	str	r2, [r3, #40]	; 0x28
    8e70:	e51b3008 	ldr	r3, [fp, #-8]
    8e74:	e5933028 	ldr	r3, [r3, #40]	; 0x28
    8e78:	e3530000 	cmp	r3, #0
    8e7c:	1a000030 	bne	8f44 <OSTimeTick+0x1ec>
    8e80:	e51b3008 	ldr	r3, [fp, #-8]
    8e84:	e5d3302c 	ldrb	r3, [r3, #44]	; 0x2c
    8e88:	e2033037 	and	r3, r3, #55	; 0x37
    8e8c:	e3530000 	cmp	r3, #0
    8e90:	0a000009 	beq	8ebc <OSTimeTick+0x164>
    8e94:	e51b3008 	ldr	r3, [fp, #-8]
    8e98:	e5d3302c 	ldrb	r3, [r3, #44]	; 0x2c
    8e9c:	e3c33037 	bic	r3, r3, #55	; 0x37
    8ea0:	e6ef2073 	uxtb	r2, r3
    8ea4:	e51b3008 	ldr	r3, [fp, #-8]
    8ea8:	e5c3202c 	strb	r2, [r3, #44]	; 0x2c
    8eac:	e51b3008 	ldr	r3, [fp, #-8]
    8eb0:	e3a02001 	mov	r2, #1
    8eb4:	e5c3202d 	strb	r2, [r3, #45]	; 0x2d
    8eb8:	ea000002 	b	8ec8 <OSTimeTick+0x170>
    8ebc:	e51b3008 	ldr	r3, [fp, #-8]
    8ec0:	e3a02000 	mov	r2, #0
    8ec4:	e5c3202d 	strb	r2, [r3, #45]	; 0x2d
    8ec8:	e51b3008 	ldr	r3, [fp, #-8]
    8ecc:	e5d3302c 	ldrb	r3, [r3, #44]	; 0x2c
    8ed0:	e2033008 	and	r3, r3, #8
    8ed4:	e3530000 	cmp	r3, #0
    8ed8:	1a000019 	bne	8f44 <OSTimeTick+0x1ec>
    8edc:	e51b3008 	ldr	r3, [fp, #-8]
    8ee0:	e5d32032 	ldrb	r2, [r3, #50]	; 0x32
    8ee4:	e30a3f90 	movw	r3, #44944	; 0xaf90
    8ee8:	e3403019 	movt	r3, #25
    8eec:	e5d33000 	ldrb	r3, [r3]
    8ef0:	e1823003 	orr	r3, r2, r3
    8ef4:	e6ef2073 	uxtb	r2, r3
    8ef8:	e30a3f90 	movw	r3, #44944	; 0xaf90
    8efc:	e3403019 	movt	r3, #25
    8f00:	e5c32000 	strb	r2, [r3]
    8f04:	e51b3008 	ldr	r3, [fp, #-8]
    8f08:	e5d33030 	ldrb	r3, [r3, #48]	; 0x30
    8f0c:	e1a02003 	mov	r2, r3
    8f10:	e51b3008 	ldr	r3, [fp, #-8]
    8f14:	e5d33030 	ldrb	r3, [r3, #48]	; 0x30
    8f18:	e1a01003 	mov	r1, r3
    8f1c:	e30a3f94 	movw	r3, #44948	; 0xaf94
    8f20:	e3403019 	movt	r3, #25
    8f24:	e7d31001 	ldrb	r1, [r3, r1]
    8f28:	e51b3008 	ldr	r3, [fp, #-8]
    8f2c:	e5d33031 	ldrb	r3, [r3, #49]	; 0x31
    8f30:	e1813003 	orr	r3, r1, r3
    8f34:	e6ef1073 	uxtb	r1, r3
    8f38:	e30a3f94 	movw	r3, #44948	; 0xaf94
    8f3c:	e3403019 	movt	r3, #25
    8f40:	e7c31002 	strb	r1, [r3, r2]
    8f44:	e51b3008 	ldr	r3, [fp, #-8]
    8f48:	e5933014 	ldr	r3, [r3, #20]
    8f4c:	e50b3008 	str	r3, [fp, #-8]
    8f50:	e51b0010 	ldr	r0, [fp, #-16]
    8f54:	eb0018e8 	bl	f2fc <OS_CPU_SR_Restore>
    8f58:	e51b3008 	ldr	r3, [fp, #-8]
    8f5c:	e5d3302e 	ldrb	r3, [r3, #46]	; 0x2e
    8f60:	e353003f 	cmp	r3, #63	; 0x3f
    8f64:	1affffb6 	bne	8e44 <OSTimeTick+0xec>
    8f68:	ea000000 	b	8f70 <OSTimeTick+0x218>
    8f6c:	e1a00000 	nop			; (mov r0, r0)
    8f70:	e24bd004 	sub	sp, fp, #4
    8f74:	e8bd8800 	pop	{fp, pc}

00008f78 <OSVersion>:
    8f78:	e52db004 	push	{fp}		; (str fp, [sp, #-4]!)
    8f7c:	e28db000 	add	fp, sp, #0
    8f80:	e3073217 	movw	r3, #29207	; 0x7217
    8f84:	e1a00003 	mov	r0, r3
    8f88:	e28bd000 	add	sp, fp, #0
    8f8c:	e8bd0800 	ldmfd	sp!, {fp}
    8f90:	e12fff1e 	bx	lr

00008f94 <OS_Dummy>:
    8f94:	e52db004 	push	{fp}		; (str fp, [sp, #-4]!)
    8f98:	e28db000 	add	fp, sp, #0
    8f9c:	e28bd000 	add	sp, fp, #0
    8fa0:	e8bd0800 	ldmfd	sp!, {fp}
    8fa4:	e12fff1e 	bx	lr

00008fa8 <OS_EventTaskRdy>:
    8fa8:	e92d4800 	push	{fp, lr}
    8fac:	e28db004 	add	fp, sp, #4
    8fb0:	e24dd018 	sub	sp, sp, #24
    8fb4:	e50b0010 	str	r0, [fp, #-16]
    8fb8:	e50b1014 	str	r1, [fp, #-20]	; 0xffffffec
    8fbc:	e54b2015 	strb	r2, [fp, #-21]	; 0xffffffeb
    8fc0:	e54b3016 	strb	r3, [fp, #-22]	; 0xffffffea
    8fc4:	e51b3010 	ldr	r3, [fp, #-16]
    8fc8:	e5d3300a 	ldrb	r3, [r3, #10]
    8fcc:	e1a02003 	mov	r2, r3
    8fd0:	e3073628 	movw	r3, #30248	; 0x7628
    8fd4:	e3403001 	movt	r3, #1
    8fd8:	e7d33002 	ldrb	r3, [r3, r2]
    8fdc:	e54b3005 	strb	r3, [fp, #-5]
    8fe0:	e55b2005 	ldrb	r2, [fp, #-5]
    8fe4:	e51b1010 	ldr	r1, [fp, #-16]
    8fe8:	e3a03008 	mov	r3, #8
    8fec:	e0812002 	add	r2, r1, r2
    8ff0:	e0823003 	add	r3, r2, r3
    8ff4:	e5d33003 	ldrb	r3, [r3, #3]
    8ff8:	e1a02003 	mov	r2, r3
    8ffc:	e3073628 	movw	r3, #30248	; 0x7628
    9000:	e3403001 	movt	r3, #1
    9004:	e7d33002 	ldrb	r3, [r3, r2]
    9008:	e54b3006 	strb	r3, [fp, #-6]
    900c:	e55b3005 	ldrb	r3, [fp, #-5]
    9010:	e1a03183 	lsl	r3, r3, #3
    9014:	e6ef2073 	uxtb	r2, r3
    9018:	e55b3006 	ldrb	r3, [fp, #-6]
    901c:	e0823003 	add	r3, r2, r3
    9020:	e54b3007 	strb	r3, [fp, #-7]
    9024:	e55b2007 	ldrb	r2, [fp, #-7]
    9028:	e30b392c 	movw	r3, #47404	; 0xb92c
    902c:	e3403019 	movt	r3, #25
    9030:	e7933102 	ldr	r3, [r3, r2, lsl #2]
    9034:	e50b300c 	str	r3, [fp, #-12]
    9038:	e51b300c 	ldr	r3, [fp, #-12]
    903c:	e3a02000 	mov	r2, #0
    9040:	e5832028 	str	r2, [r3, #40]	; 0x28
    9044:	e51b300c 	ldr	r3, [fp, #-12]
    9048:	e51b2014 	ldr	r2, [fp, #-20]	; 0xffffffec
    904c:	e5832024 	str	r2, [r3, #36]	; 0x24
    9050:	e51b300c 	ldr	r3, [fp, #-12]
    9054:	e5d3202c 	ldrb	r2, [r3, #44]	; 0x2c
    9058:	e55b3015 	ldrb	r3, [fp, #-21]	; 0xffffffeb
    905c:	e1e03003 	mvn	r3, r3
    9060:	e6ef3073 	uxtb	r3, r3
    9064:	e0023003 	and	r3, r2, r3
    9068:	e6ef2073 	uxtb	r2, r3
    906c:	e51b300c 	ldr	r3, [fp, #-12]
    9070:	e5c3202c 	strb	r2, [r3, #44]	; 0x2c
    9074:	e51b300c 	ldr	r3, [fp, #-12]
    9078:	e55b2016 	ldrb	r2, [fp, #-22]	; 0xffffffea
    907c:	e5c3202d 	strb	r2, [r3, #45]	; 0x2d
    9080:	e51b300c 	ldr	r3, [fp, #-12]
    9084:	e5d3302c 	ldrb	r3, [r3, #44]	; 0x2c
    9088:	e2033008 	and	r3, r3, #8
    908c:	e3530000 	cmp	r3, #0
    9090:	1a000015 	bne	90ec <OS_EventTaskRdy+0x144>
    9094:	e51b300c 	ldr	r3, [fp, #-12]
    9098:	e5d32032 	ldrb	r2, [r3, #50]	; 0x32
    909c:	e30a3f90 	movw	r3, #44944	; 0xaf90
    90a0:	e3403019 	movt	r3, #25
    90a4:	e5d33000 	ldrb	r3, [r3]
    90a8:	e1823003 	orr	r3, r2, r3
    90ac:	e6ef2073 	uxtb	r2, r3
    90b0:	e30a3f90 	movw	r3, #44944	; 0xaf90
    90b4:	e3403019 	movt	r3, #25
    90b8:	e5c32000 	strb	r2, [r3]
    90bc:	e55b2005 	ldrb	r2, [fp, #-5]
    90c0:	e55b1005 	ldrb	r1, [fp, #-5]
    90c4:	e30a3f94 	movw	r3, #44948	; 0xaf94
    90c8:	e3403019 	movt	r3, #25
    90cc:	e7d31001 	ldrb	r1, [r3, r1]
    90d0:	e51b300c 	ldr	r3, [fp, #-12]
    90d4:	e5d33031 	ldrb	r3, [r3, #49]	; 0x31
    90d8:	e1813003 	orr	r3, r1, r3
    90dc:	e6ef1073 	uxtb	r1, r3
    90e0:	e30a3f94 	movw	r3, #44948	; 0xaf94
    90e4:	e3403019 	movt	r3, #25
    90e8:	e7c31002 	strb	r1, [r3, r2]
    90ec:	e51b000c 	ldr	r0, [fp, #-12]
    90f0:	e51b1010 	ldr	r1, [fp, #-16]
    90f4:	eb0000d5 	bl	9450 <OS_EventTaskRemove>
    90f8:	e51b300c 	ldr	r3, [fp, #-12]
    90fc:	e5933020 	ldr	r3, [r3, #32]
    9100:	e3530000 	cmp	r3, #0
    9104:	0a000007 	beq	9128 <OS_EventTaskRdy+0x180>
    9108:	e51b300c 	ldr	r3, [fp, #-12]
    910c:	e5933020 	ldr	r3, [r3, #32]
    9110:	e51b000c 	ldr	r0, [fp, #-12]
    9114:	e1a01003 	mov	r1, r3
    9118:	eb0000fb 	bl	950c <OS_EventTaskRemoveMulti>
    911c:	e51b300c 	ldr	r3, [fp, #-12]
    9120:	e51b2010 	ldr	r2, [fp, #-16]
    9124:	e583201c 	str	r2, [r3, #28]
    9128:	e55b3007 	ldrb	r3, [fp, #-7]
    912c:	e1a00003 	mov	r0, r3
    9130:	e24bd004 	sub	sp, fp, #4
    9134:	e8bd8800 	pop	{fp, pc}

00009138 <OS_EventTaskWait>:
    9138:	e52db004 	push	{fp}		; (str fp, [sp, #-4]!)
    913c:	e28db000 	add	fp, sp, #0
    9140:	e24dd014 	sub	sp, sp, #20
    9144:	e50b0010 	str	r0, [fp, #-16]
    9148:	e30a3fa4 	movw	r3, #44964	; 0xafa4
    914c:	e3403019 	movt	r3, #25
    9150:	e5933000 	ldr	r3, [r3]
    9154:	e51b2010 	ldr	r2, [fp, #-16]
    9158:	e583201c 	str	r2, [r3, #28]
    915c:	e30a3fa4 	movw	r3, #44964	; 0xafa4
    9160:	e3403019 	movt	r3, #25
    9164:	e5933000 	ldr	r3, [r3]
    9168:	e5d33030 	ldrb	r3, [r3, #48]	; 0x30
    916c:	e1a01003 	mov	r1, r3
    9170:	e30a3fa4 	movw	r3, #44964	; 0xafa4
    9174:	e3403019 	movt	r3, #25
    9178:	e5933000 	ldr	r3, [r3]
    917c:	e5d33030 	ldrb	r3, [r3, #48]	; 0x30
    9180:	e1a02003 	mov	r2, r3
    9184:	e51b0010 	ldr	r0, [fp, #-16]
    9188:	e3a03008 	mov	r3, #8
    918c:	e0802002 	add	r2, r0, r2
    9190:	e0823003 	add	r3, r2, r3
    9194:	e5d32003 	ldrb	r2, [r3, #3]
    9198:	e30a3fa4 	movw	r3, #44964	; 0xafa4
    919c:	e3403019 	movt	r3, #25
    91a0:	e5933000 	ldr	r3, [r3]
    91a4:	e5d33031 	ldrb	r3, [r3, #49]	; 0x31
    91a8:	e1823003 	orr	r3, r2, r3
    91ac:	e6ef2073 	uxtb	r2, r3
    91b0:	e51b0010 	ldr	r0, [fp, #-16]
    91b4:	e3a03008 	mov	r3, #8
    91b8:	e0801001 	add	r1, r0, r1
    91bc:	e0813003 	add	r3, r1, r3
    91c0:	e5c32003 	strb	r2, [r3, #3]
    91c4:	e51b3010 	ldr	r3, [fp, #-16]
    91c8:	e5d3200a 	ldrb	r2, [r3, #10]
    91cc:	e30a3fa4 	movw	r3, #44964	; 0xafa4
    91d0:	e3403019 	movt	r3, #25
    91d4:	e5933000 	ldr	r3, [r3]
    91d8:	e5d33032 	ldrb	r3, [r3, #50]	; 0x32
    91dc:	e1823003 	orr	r3, r2, r3
    91e0:	e6ef2073 	uxtb	r2, r3
    91e4:	e51b3010 	ldr	r3, [fp, #-16]
    91e8:	e5c3200a 	strb	r2, [r3, #10]
    91ec:	e30a3fa4 	movw	r3, #44964	; 0xafa4
    91f0:	e3403019 	movt	r3, #25
    91f4:	e5933000 	ldr	r3, [r3]
    91f8:	e5d33030 	ldrb	r3, [r3, #48]	; 0x30
    91fc:	e54b3005 	strb	r3, [fp, #-5]
    9200:	e55b2005 	ldrb	r2, [fp, #-5]
    9204:	e55b1005 	ldrb	r1, [fp, #-5]
    9208:	e30a3f94 	movw	r3, #44948	; 0xaf94
    920c:	e3403019 	movt	r3, #25
    9210:	e7d31001 	ldrb	r1, [r3, r1]
    9214:	e30a3fa4 	movw	r3, #44964	; 0xafa4
    9218:	e3403019 	movt	r3, #25
    921c:	e5933000 	ldr	r3, [r3]
    9220:	e5d33031 	ldrb	r3, [r3, #49]	; 0x31
    9224:	e1e03003 	mvn	r3, r3
    9228:	e6ef3073 	uxtb	r3, r3
    922c:	e0013003 	and	r3, r1, r3
    9230:	e6ef1073 	uxtb	r1, r3
    9234:	e30a3f94 	movw	r3, #44948	; 0xaf94
    9238:	e3403019 	movt	r3, #25
    923c:	e7c31002 	strb	r1, [r3, r2]
    9240:	e55b2005 	ldrb	r2, [fp, #-5]
    9244:	e30a3f94 	movw	r3, #44948	; 0xaf94
    9248:	e3403019 	movt	r3, #25
    924c:	e7d33002 	ldrb	r3, [r3, r2]
    9250:	e3530000 	cmp	r3, #0
    9254:	1a00000d 	bne	9290 <OS_EventTaskWait+0x158>
    9258:	e30a3fa4 	movw	r3, #44964	; 0xafa4
    925c:	e3403019 	movt	r3, #25
    9260:	e5933000 	ldr	r3, [r3]
    9264:	e5d33032 	ldrb	r3, [r3, #50]	; 0x32
    9268:	e1e03003 	mvn	r3, r3
    926c:	e6ef2073 	uxtb	r2, r3
    9270:	e30a3f90 	movw	r3, #44944	; 0xaf90
    9274:	e3403019 	movt	r3, #25
    9278:	e5d33000 	ldrb	r3, [r3]
    927c:	e0023003 	and	r3, r2, r3
    9280:	e6ef2073 	uxtb	r2, r3
    9284:	e30a3f90 	movw	r3, #44944	; 0xaf90
    9288:	e3403019 	movt	r3, #25
    928c:	e5c32000 	strb	r2, [r3]
    9290:	e28bd000 	add	sp, fp, #0
    9294:	e8bd0800 	ldmfd	sp!, {fp}
    9298:	e12fff1e 	bx	lr

0000929c <OS_EventTaskWaitMulti>:
    929c:	e52db004 	push	{fp}		; (str fp, [sp, #-4]!)
    92a0:	e28db000 	add	fp, sp, #0
    92a4:	e24dd01c 	sub	sp, sp, #28
    92a8:	e50b0018 	str	r0, [fp, #-24]	; 0xffffffe8
    92ac:	e30a3fa4 	movw	r3, #44964	; 0xafa4
    92b0:	e3403019 	movt	r3, #25
    92b4:	e5933000 	ldr	r3, [r3]
    92b8:	e3a02000 	mov	r2, #0
    92bc:	e583201c 	str	r2, [r3, #28]
    92c0:	e30a3fa4 	movw	r3, #44964	; 0xafa4
    92c4:	e3403019 	movt	r3, #25
    92c8:	e5933000 	ldr	r3, [r3]
    92cc:	e51b2018 	ldr	r2, [fp, #-24]	; 0xffffffe8
    92d0:	e5832020 	str	r2, [r3, #32]
    92d4:	e51b3018 	ldr	r3, [fp, #-24]	; 0xffffffe8
    92d8:	e50b3008 	str	r3, [fp, #-8]
    92dc:	e51b3008 	ldr	r3, [fp, #-8]
    92e0:	e5933000 	ldr	r3, [r3]
    92e4:	e50b300c 	str	r3, [fp, #-12]
    92e8:	ea000029 	b	9394 <OS_EventTaskWaitMulti+0xf8>
    92ec:	e30a3fa4 	movw	r3, #44964	; 0xafa4
    92f0:	e3403019 	movt	r3, #25
    92f4:	e5933000 	ldr	r3, [r3]
    92f8:	e5d33030 	ldrb	r3, [r3, #48]	; 0x30
    92fc:	e1a01003 	mov	r1, r3
    9300:	e30a3fa4 	movw	r3, #44964	; 0xafa4
    9304:	e3403019 	movt	r3, #25
    9308:	e5933000 	ldr	r3, [r3]
    930c:	e5d33030 	ldrb	r3, [r3, #48]	; 0x30
    9310:	e1a02003 	mov	r2, r3
    9314:	e51b000c 	ldr	r0, [fp, #-12]
    9318:	e3a03008 	mov	r3, #8
    931c:	e0802002 	add	r2, r0, r2
    9320:	e0823003 	add	r3, r2, r3
    9324:	e5d32003 	ldrb	r2, [r3, #3]
    9328:	e30a3fa4 	movw	r3, #44964	; 0xafa4
    932c:	e3403019 	movt	r3, #25
    9330:	e5933000 	ldr	r3, [r3]
    9334:	e5d33031 	ldrb	r3, [r3, #49]	; 0x31
    9338:	e1823003 	orr	r3, r2, r3
    933c:	e6ef2073 	uxtb	r2, r3
    9340:	e51b000c 	ldr	r0, [fp, #-12]
    9344:	e3a03008 	mov	r3, #8
    9348:	e0801001 	add	r1, r0, r1
    934c:	e0813003 	add	r3, r1, r3
    9350:	e5c32003 	strb	r2, [r3, #3]
    9354:	e51b300c 	ldr	r3, [fp, #-12]
    9358:	e5d3200a 	ldrb	r2, [r3, #10]
    935c:	e30a3fa4 	movw	r3, #44964	; 0xafa4
    9360:	e3403019 	movt	r3, #25
    9364:	e5933000 	ldr	r3, [r3]
    9368:	e5d33032 	ldrb	r3, [r3, #50]	; 0x32
    936c:	e1823003 	orr	r3, r2, r3
    9370:	e6ef2073 	uxtb	r2, r3
    9374:	e51b300c 	ldr	r3, [fp, #-12]
    9378:	e5c3200a 	strb	r2, [r3, #10]
    937c:	e51b3008 	ldr	r3, [fp, #-8]
    9380:	e2833004 	add	r3, r3, #4
    9384:	e50b3008 	str	r3, [fp, #-8]
    9388:	e51b3008 	ldr	r3, [fp, #-8]
    938c:	e5933000 	ldr	r3, [r3]
    9390:	e50b300c 	str	r3, [fp, #-12]
    9394:	e51b300c 	ldr	r3, [fp, #-12]
    9398:	e3530000 	cmp	r3, #0
    939c:	1affffd2 	bne	92ec <OS_EventTaskWaitMulti+0x50>
    93a0:	e30a3fa4 	movw	r3, #44964	; 0xafa4
    93a4:	e3403019 	movt	r3, #25
    93a8:	e5933000 	ldr	r3, [r3]
    93ac:	e5d33030 	ldrb	r3, [r3, #48]	; 0x30
    93b0:	e54b300d 	strb	r3, [fp, #-13]
    93b4:	e55b200d 	ldrb	r2, [fp, #-13]
    93b8:	e55b100d 	ldrb	r1, [fp, #-13]
    93bc:	e30a3f94 	movw	r3, #44948	; 0xaf94
    93c0:	e3403019 	movt	r3, #25
    93c4:	e7d31001 	ldrb	r1, [r3, r1]
    93c8:	e30a3fa4 	movw	r3, #44964	; 0xafa4
    93cc:	e3403019 	movt	r3, #25
    93d0:	e5933000 	ldr	r3, [r3]
    93d4:	e5d33031 	ldrb	r3, [r3, #49]	; 0x31
    93d8:	e1e03003 	mvn	r3, r3
    93dc:	e6ef3073 	uxtb	r3, r3
    93e0:	e0013003 	and	r3, r1, r3
    93e4:	e6ef1073 	uxtb	r1, r3
    93e8:	e30a3f94 	movw	r3, #44948	; 0xaf94
    93ec:	e3403019 	movt	r3, #25
    93f0:	e7c31002 	strb	r1, [r3, r2]
    93f4:	e55b200d 	ldrb	r2, [fp, #-13]
    93f8:	e30a3f94 	movw	r3, #44948	; 0xaf94
    93fc:	e3403019 	movt	r3, #25
    9400:	e7d33002 	ldrb	r3, [r3, r2]
    9404:	e3530000 	cmp	r3, #0
    9408:	1a00000d 	bne	9444 <OS_EventTaskWaitMulti+0x1a8>
    940c:	e30a3fa4 	movw	r3, #44964	; 0xafa4
    9410:	e3403019 	movt	r3, #25
    9414:	e5933000 	ldr	r3, [r3]
    9418:	e5d33032 	ldrb	r3, [r3, #50]	; 0x32
    941c:	e1e03003 	mvn	r3, r3
    9420:	e6ef2073 	uxtb	r2, r3
    9424:	e30a3f90 	movw	r3, #44944	; 0xaf90
    9428:	e3403019 	movt	r3, #25
    942c:	e5d33000 	ldrb	r3, [r3]
    9430:	e0023003 	and	r3, r2, r3
    9434:	e6ef2073 	uxtb	r2, r3
    9438:	e30a3f90 	movw	r3, #44944	; 0xaf90
    943c:	e3403019 	movt	r3, #25
    9440:	e5c32000 	strb	r2, [r3]
    9444:	e28bd000 	add	sp, fp, #0
    9448:	e8bd0800 	ldmfd	sp!, {fp}
    944c:	e12fff1e 	bx	lr

00009450 <OS_EventTaskRemove>:
    9450:	e52db004 	push	{fp}		; (str fp, [sp, #-4]!)
    9454:	e28db000 	add	fp, sp, #0
    9458:	e24dd014 	sub	sp, sp, #20
    945c:	e50b0010 	str	r0, [fp, #-16]
    9460:	e50b1014 	str	r1, [fp, #-20]	; 0xffffffec
    9464:	e51b3010 	ldr	r3, [fp, #-16]
    9468:	e5d33030 	ldrb	r3, [r3, #48]	; 0x30
    946c:	e54b3005 	strb	r3, [fp, #-5]
    9470:	e55b1005 	ldrb	r1, [fp, #-5]
    9474:	e55b2005 	ldrb	r2, [fp, #-5]
    9478:	e51b0014 	ldr	r0, [fp, #-20]	; 0xffffffec
    947c:	e3a03008 	mov	r3, #8
    9480:	e0802002 	add	r2, r0, r2
    9484:	e0823003 	add	r3, r2, r3
    9488:	e5d32003 	ldrb	r2, [r3, #3]
    948c:	e51b3010 	ldr	r3, [fp, #-16]
    9490:	e5d33031 	ldrb	r3, [r3, #49]	; 0x31
    9494:	e1e03003 	mvn	r3, r3
    9498:	e6ef3073 	uxtb	r3, r3
    949c:	e0023003 	and	r3, r2, r3
    94a0:	e6ef2073 	uxtb	r2, r3
    94a4:	e51b0014 	ldr	r0, [fp, #-20]	; 0xffffffec
    94a8:	e3a03008 	mov	r3, #8
    94ac:	e0801001 	add	r1, r0, r1
    94b0:	e0813003 	add	r3, r1, r3
    94b4:	e5c32003 	strb	r2, [r3, #3]
    94b8:	e55b2005 	ldrb	r2, [fp, #-5]
    94bc:	e51b1014 	ldr	r1, [fp, #-20]	; 0xffffffec
    94c0:	e3a03008 	mov	r3, #8
    94c4:	e0812002 	add	r2, r1, r2
    94c8:	e0823003 	add	r3, r2, r3
    94cc:	e5d33003 	ldrb	r3, [r3, #3]
    94d0:	e3530000 	cmp	r3, #0
    94d4:	1a000009 	bne	9500 <OS_EventTaskRemove+0xb0>
    94d8:	e51b3014 	ldr	r3, [fp, #-20]	; 0xffffffec
    94dc:	e5d3200a 	ldrb	r2, [r3, #10]
    94e0:	e51b3010 	ldr	r3, [fp, #-16]
    94e4:	e5d33032 	ldrb	r3, [r3, #50]	; 0x32
    94e8:	e1e03003 	mvn	r3, r3
    94ec:	e6ef3073 	uxtb	r3, r3
    94f0:	e0023003 	and	r3, r2, r3
    94f4:	e6ef2073 	uxtb	r2, r3
    94f8:	e51b3014 	ldr	r3, [fp, #-20]	; 0xffffffec
    94fc:	e5c3200a 	strb	r2, [r3, #10]
    9500:	e28bd000 	add	sp, fp, #0
    9504:	e8bd0800 	ldmfd	sp!, {fp}
    9508:	e12fff1e 	bx	lr

0000950c <OS_EventTaskRemoveMulti>:
    950c:	e52db004 	push	{fp}		; (str fp, [sp, #-4]!)
    9510:	e28db000 	add	fp, sp, #0
    9514:	e24dd01c 	sub	sp, sp, #28
    9518:	e50b0018 	str	r0, [fp, #-24]	; 0xffffffe8
    951c:	e50b101c 	str	r1, [fp, #-28]	; 0xffffffe4
    9520:	e51b3018 	ldr	r3, [fp, #-24]	; 0xffffffe8
    9524:	e5d33030 	ldrb	r3, [r3, #48]	; 0x30
    9528:	e54b300d 	strb	r3, [fp, #-13]
    952c:	e51b3018 	ldr	r3, [fp, #-24]	; 0xffffffe8
    9530:	e5d33032 	ldrb	r3, [r3, #50]	; 0x32
    9534:	e54b300e 	strb	r3, [fp, #-14]
    9538:	e51b3018 	ldr	r3, [fp, #-24]	; 0xffffffe8
    953c:	e5d33031 	ldrb	r3, [r3, #49]	; 0x31
    9540:	e54b300f 	strb	r3, [fp, #-15]
    9544:	e51b301c 	ldr	r3, [fp, #-28]	; 0xffffffe4
    9548:	e50b3008 	str	r3, [fp, #-8]
    954c:	e51b3008 	ldr	r3, [fp, #-8]
    9550:	e5933000 	ldr	r3, [r3]
    9554:	e50b300c 	str	r3, [fp, #-12]
    9558:	ea000027 	b	95fc <OS_EventTaskRemoveMulti+0xf0>
    955c:	e55b100d 	ldrb	r1, [fp, #-13]
    9560:	e55b200d 	ldrb	r2, [fp, #-13]
    9564:	e51b000c 	ldr	r0, [fp, #-12]
    9568:	e3a03008 	mov	r3, #8
    956c:	e0802002 	add	r2, r0, r2
    9570:	e0823003 	add	r3, r2, r3
    9574:	e5d32003 	ldrb	r2, [r3, #3]
    9578:	e55b300f 	ldrb	r3, [fp, #-15]
    957c:	e1e03003 	mvn	r3, r3
    9580:	e6ef3073 	uxtb	r3, r3
    9584:	e0023003 	and	r3, r2, r3
    9588:	e6ef2073 	uxtb	r2, r3
    958c:	e51b000c 	ldr	r0, [fp, #-12]
    9590:	e3a03008 	mov	r3, #8
    9594:	e0801001 	add	r1, r0, r1
    9598:	e0813003 	add	r3, r1, r3
    959c:	e5c32003 	strb	r2, [r3, #3]
    95a0:	e55b200d 	ldrb	r2, [fp, #-13]
    95a4:	e51b100c 	ldr	r1, [fp, #-12]
    95a8:	e3a03008 	mov	r3, #8
    95ac:	e0812002 	add	r2, r1, r2
    95b0:	e0823003 	add	r3, r2, r3
    95b4:	e5d33003 	ldrb	r3, [r3, #3]
    95b8:	e3530000 	cmp	r3, #0
    95bc:	1a000008 	bne	95e4 <OS_EventTaskRemoveMulti+0xd8>
    95c0:	e51b300c 	ldr	r3, [fp, #-12]
    95c4:	e5d3200a 	ldrb	r2, [r3, #10]
    95c8:	e55b300e 	ldrb	r3, [fp, #-14]
    95cc:	e1e03003 	mvn	r3, r3
    95d0:	e6ef3073 	uxtb	r3, r3
    95d4:	e0023003 	and	r3, r2, r3
    95d8:	e6ef2073 	uxtb	r2, r3
    95dc:	e51b300c 	ldr	r3, [fp, #-12]
    95e0:	e5c3200a 	strb	r2, [r3, #10]
    95e4:	e51b3008 	ldr	r3, [fp, #-8]
    95e8:	e2833004 	add	r3, r3, #4
    95ec:	e50b3008 	str	r3, [fp, #-8]
    95f0:	e51b3008 	ldr	r3, [fp, #-8]
    95f4:	e5933000 	ldr	r3, [r3]
    95f8:	e50b300c 	str	r3, [fp, #-12]
    95fc:	e51b300c 	ldr	r3, [fp, #-12]
    9600:	e3530000 	cmp	r3, #0
    9604:	1affffd4 	bne	955c <OS_EventTaskRemoveMulti+0x50>
    9608:	e28bd000 	add	sp, fp, #0
    960c:	e8bd0800 	ldmfd	sp!, {fp}
    9610:	e12fff1e 	bx	lr

00009614 <OS_EventWaitListInit>:
    9614:	e52db004 	push	{fp}		; (str fp, [sp, #-4]!)
    9618:	e28db000 	add	fp, sp, #0
    961c:	e24dd014 	sub	sp, sp, #20
    9620:	e50b0010 	str	r0, [fp, #-16]
    9624:	e51b3010 	ldr	r3, [fp, #-16]
    9628:	e3a02000 	mov	r2, #0
    962c:	e5c3200a 	strb	r2, [r3, #10]
    9630:	e3a03000 	mov	r3, #0
    9634:	e54b3005 	strb	r3, [fp, #-5]
    9638:	ea000009 	b	9664 <OS_EventWaitListInit+0x50>
    963c:	e55b2005 	ldrb	r2, [fp, #-5]
    9640:	e51b1010 	ldr	r1, [fp, #-16]
    9644:	e3a03008 	mov	r3, #8
    9648:	e0812002 	add	r2, r1, r2
    964c:	e0823003 	add	r3, r2, r3
    9650:	e3a02000 	mov	r2, #0
    9654:	e5c32003 	strb	r2, [r3, #3]
    9658:	e55b3005 	ldrb	r3, [fp, #-5]
    965c:	e2833001 	add	r3, r3, #1
    9660:	e54b3005 	strb	r3, [fp, #-5]
    9664:	e55b3005 	ldrb	r3, [fp, #-5]
    9668:	e3530007 	cmp	r3, #7
    966c:	9afffff2 	bls	963c <OS_EventWaitListInit+0x28>
    9670:	e28bd000 	add	sp, fp, #0
    9674:	e8bd0800 	ldmfd	sp!, {fp}
    9678:	e12fff1e 	bx	lr

0000967c <OS_InitEventList>:
    967c:	e92d4800 	push	{fp, lr}
    9680:	e28db004 	add	fp, sp, #4
    9684:	e24dd010 	sub	sp, sp, #16
    9688:	e30b01ac 	movw	r0, #45484	; 0xb1ac
    968c:	e3400019 	movt	r0, #25
    9690:	e3a010f0 	mov	r1, #240	; 0xf0
    9694:	eb0000f6 	bl	9a74 <OS_MemClr>
    9698:	e3a03000 	mov	r3, #0
    969c:	e14b30b6 	strh	r3, [fp, #-6]
    96a0:	ea000021 	b	972c <OS_InitEventList+0xb0>
    96a4:	e15b30b6 	ldrh	r3, [fp, #-6]
    96a8:	e2833001 	add	r3, r3, #1
    96ac:	e14b30b8 	strh	r3, [fp, #-8]
    96b0:	e15b20b6 	ldrh	r2, [fp, #-6]
    96b4:	e1a03002 	mov	r3, r2
    96b8:	e1a03083 	lsl	r3, r3, #1
    96bc:	e0833002 	add	r3, r3, r2
    96c0:	e1a03183 	lsl	r3, r3, #3
    96c4:	e30b21ac 	movw	r2, #45484	; 0xb1ac
    96c8:	e3402019 	movt	r2, #25
    96cc:	e0833002 	add	r3, r3, r2
    96d0:	e50b300c 	str	r3, [fp, #-12]
    96d4:	e15b20b8 	ldrh	r2, [fp, #-8]
    96d8:	e1a03002 	mov	r3, r2
    96dc:	e1a03083 	lsl	r3, r3, #1
    96e0:	e0833002 	add	r3, r3, r2
    96e4:	e1a03183 	lsl	r3, r3, #3
    96e8:	e30b21ac 	movw	r2, #45484	; 0xb1ac
    96ec:	e3402019 	movt	r2, #25
    96f0:	e0833002 	add	r3, r3, r2
    96f4:	e50b3010 	str	r3, [fp, #-16]
    96f8:	e51b300c 	ldr	r3, [fp, #-12]
    96fc:	e3a02000 	mov	r2, #0
    9700:	e5c32000 	strb	r2, [r3]
    9704:	e51b300c 	ldr	r3, [fp, #-12]
    9708:	e51b2010 	ldr	r2, [fp, #-16]
    970c:	e5832004 	str	r2, [r3, #4]
    9710:	e51b200c 	ldr	r2, [fp, #-12]
    9714:	e3073728 	movw	r3, #30504	; 0x7728
    9718:	e3403001 	movt	r3, #1
    971c:	e5823014 	str	r3, [r2, #20]
    9720:	e15b30b6 	ldrh	r3, [fp, #-6]
    9724:	e2833001 	add	r3, r3, #1
    9728:	e14b30b6 	strh	r3, [fp, #-6]
    972c:	e15b30b6 	ldrh	r3, [fp, #-6]
    9730:	e3530008 	cmp	r3, #8
    9734:	9affffda 	bls	96a4 <OS_InitEventList+0x28>
    9738:	e15b20b6 	ldrh	r2, [fp, #-6]
    973c:	e1a03002 	mov	r3, r2
    9740:	e1a03083 	lsl	r3, r3, #1
    9744:	e0833002 	add	r3, r3, r2
    9748:	e1a03183 	lsl	r3, r3, #3
    974c:	e30b21ac 	movw	r2, #45484	; 0xb1ac
    9750:	e3402019 	movt	r2, #25
    9754:	e0833002 	add	r3, r3, r2
    9758:	e50b300c 	str	r3, [fp, #-12]
    975c:	e51b300c 	ldr	r3, [fp, #-12]
    9760:	e3a02000 	mov	r2, #0
    9764:	e5c32000 	strb	r2, [r3]
    9768:	e51b300c 	ldr	r3, [fp, #-12]
    976c:	e3a02000 	mov	r2, #0
    9770:	e5832004 	str	r2, [r3, #4]
    9774:	e51b200c 	ldr	r2, [fp, #-12]
    9778:	e3073728 	movw	r3, #30504	; 0x7728
    977c:	e3403001 	movt	r3, #1
    9780:	e5823014 	str	r3, [r2, #20]
    9784:	e30a3f9c 	movw	r3, #44956	; 0xaf9c
    9788:	e3403019 	movt	r3, #25
    978c:	e30b21ac 	movw	r2, #45484	; 0xb1ac
    9790:	e3402019 	movt	r2, #25
    9794:	e5832000 	str	r2, [r3]
    9798:	e24bd004 	sub	sp, fp, #4
    979c:	e8bd8800 	pop	{fp, pc}

000097a0 <OS_InitMisc>:
    97a0:	e52db004 	push	{fp}		; (str fp, [sp, #-4]!)
    97a4:	e28db000 	add	fp, sp, #0
    97a8:	e30a3fa8 	movw	r3, #44968	; 0xafa8
    97ac:	e3403019 	movt	r3, #25
    97b0:	e3a02000 	mov	r2, #0
    97b4:	e5832000 	str	r2, [r3]
    97b8:	e30a3fa0 	movw	r3, #44960	; 0xafa0
    97bc:	e3403019 	movt	r3, #25
    97c0:	e3a02000 	mov	r2, #0
    97c4:	e5c32000 	strb	r2, [r3]
    97c8:	e30a3e8c 	movw	r3, #44684	; 0xae8c
    97cc:	e3403019 	movt	r3, #25
    97d0:	e3a02000 	mov	r2, #0
    97d4:	e5c32000 	strb	r2, [r3]
    97d8:	e30a3f20 	movw	r3, #44832	; 0xaf20
    97dc:	e3403019 	movt	r3, #25
    97e0:	e3a02000 	mov	r2, #0
    97e4:	e5c32000 	strb	r2, [r3]
    97e8:	e30a3e8e 	movw	r3, #44686	; 0xae8e
    97ec:	e3403019 	movt	r3, #25
    97f0:	e3a02000 	mov	r2, #0
    97f4:	e5c32000 	strb	r2, [r3]
    97f8:	e30a3f18 	movw	r3, #44824	; 0xaf18
    97fc:	e3403019 	movt	r3, #25
    9800:	e3a02000 	mov	r2, #0
    9804:	e5832000 	str	r2, [r3]
    9808:	e30a3e90 	movw	r3, #44688	; 0xae90
    980c:	e3403019 	movt	r3, #25
    9810:	e3a02000 	mov	r2, #0
    9814:	e5832000 	str	r2, [r3]
    9818:	e30a3e8d 	movw	r3, #44685	; 0xae8d
    981c:	e3403019 	movt	r3, #25
    9820:	e3a02000 	mov	r2, #0
    9824:	e5c32000 	strb	r2, [r3]
    9828:	e28bd000 	add	sp, fp, #0
    982c:	e8bd0800 	ldmfd	sp!, {fp}
    9830:	e12fff1e 	bx	lr

00009834 <OS_InitRdyList>:
    9834:	e52db004 	push	{fp}		; (str fp, [sp, #-4]!)
    9838:	e28db000 	add	fp, sp, #0
    983c:	e24dd00c 	sub	sp, sp, #12
    9840:	e30a3f90 	movw	r3, #44944	; 0xaf90
    9844:	e3403019 	movt	r3, #25
    9848:	e3a02000 	mov	r2, #0
    984c:	e5c32000 	strb	r2, [r3]
    9850:	e3a03000 	mov	r3, #0
    9854:	e54b3005 	strb	r3, [fp, #-5]
    9858:	ea000007 	b	987c <OS_InitRdyList+0x48>
    985c:	e55b2005 	ldrb	r2, [fp, #-5]
    9860:	e30a3f94 	movw	r3, #44948	; 0xaf94
    9864:	e3403019 	movt	r3, #25
    9868:	e3a01000 	mov	r1, #0
    986c:	e7c31002 	strb	r1, [r3, r2]
    9870:	e55b3005 	ldrb	r3, [fp, #-5]
    9874:	e2833001 	add	r3, r3, #1
    9878:	e54b3005 	strb	r3, [fp, #-5]
    987c:	e55b3005 	ldrb	r3, [fp, #-5]
    9880:	e3530007 	cmp	r3, #7
    9884:	9afffff4 	bls	985c <OS_InitRdyList+0x28>
    9888:	e30a3e95 	movw	r3, #44693	; 0xae95
    988c:	e3403019 	movt	r3, #25
    9890:	e3a02000 	mov	r2, #0
    9894:	e5c32000 	strb	r2, [r3]
    9898:	e30a3e94 	movw	r3, #44692	; 0xae94
    989c:	e3403019 	movt	r3, #25
    98a0:	e3a02000 	mov	r2, #0
    98a4:	e5c32000 	strb	r2, [r3]
    98a8:	e30a3f88 	movw	r3, #44936	; 0xaf88
    98ac:	e3403019 	movt	r3, #25
    98b0:	e3a02000 	mov	r2, #0
    98b4:	e5832000 	str	r2, [r3]
    98b8:	e30a3fa4 	movw	r3, #44964	; 0xafa4
    98bc:	e3403019 	movt	r3, #25
    98c0:	e3a02000 	mov	r2, #0
    98c4:	e5832000 	str	r2, [r3]
    98c8:	e28bd000 	add	sp, fp, #0
    98cc:	e8bd0800 	ldmfd	sp!, {fp}
    98d0:	e12fff1e 	bx	lr

000098d4 <OS_InitTaskIdle>:
    98d4:	e92d4800 	push	{fp, lr}
    98d8:	e28db004 	add	fp, sp, #4
    98dc:	e24dd020 	sub	sp, sp, #32
    98e0:	e30f3fff 	movw	r3, #65535	; 0xffff
    98e4:	e58d3000 	str	r3, [sp]
    98e8:	e30a3fac 	movw	r3, #44972	; 0xafac
    98ec:	e3403019 	movt	r3, #25
    98f0:	e58d3004 	str	r3, [sp, #4]
    98f4:	e3a03080 	mov	r3, #128	; 0x80
    98f8:	e58d3008 	str	r3, [sp, #8]
    98fc:	e3a03000 	mov	r3, #0
    9900:	e58d300c 	str	r3, [sp, #12]
    9904:	e3a03003 	mov	r3, #3
    9908:	e58d3010 	str	r3, [sp, #16]
    990c:	e3090ce0 	movw	r0, #40160	; 0x9ce0
    9910:	e3400000 	movt	r0, #0
    9914:	e3a01000 	mov	r1, #0
    9918:	e59f2024 	ldr	r2, [pc, #36]	; 9944 <OS_InitTaskIdle+0x70>
    991c:	e3a0303f 	mov	r3, #63	; 0x3f
    9920:	eb001185 	bl	df3c <OSTaskCreateExt>
    9924:	e24b3005 	sub	r3, fp, #5
    9928:	e3a0003f 	mov	r0, #63	; 0x3f
    992c:	e307172c 	movw	r1, #30508	; 0x772c
    9930:	e3401001 	movt	r1, #1
    9934:	e1a02003 	mov	r2, r3
    9938:	eb001325 	bl	e5d4 <OSTaskNameSet>
    993c:	e24bd004 	sub	sp, fp, #4
    9940:	e8bd8800 	pop	{fp, pc}
    9944:	0019b1a8 	andseq	fp, r9, r8, lsr #3

00009948 <OS_InitTCBList>:
    9948:	e92d4800 	push	{fp, lr}
    994c:	e28db004 	add	fp, sp, #4
    9950:	e24dd010 	sub	sp, sp, #16
    9954:	e30b029c 	movw	r0, #45724	; 0xb29c
    9958:	e3400019 	movt	r0, #25
    995c:	e3a01e69 	mov	r1, #1680	; 0x690
    9960:	eb000043 	bl	9a74 <OS_MemClr>
    9964:	e30b092c 	movw	r0, #47404	; 0xb92c
    9968:	e3400019 	movt	r0, #25
    996c:	e3a01c01 	mov	r1, #256	; 0x100
    9970:	eb00003f 	bl	9a74 <OS_MemClr>
    9974:	e3a03000 	mov	r3, #0
    9978:	e54b3005 	strb	r3, [fp, #-5]
    997c:	ea00001e 	b	99fc <OS_InitTCBList+0xb4>
    9980:	e55b3005 	ldrb	r3, [fp, #-5]
    9984:	e2833001 	add	r3, r3, #1
    9988:	e54b3006 	strb	r3, [fp, #-6]
    998c:	e55b2005 	ldrb	r2, [fp, #-5]
    9990:	e1a03002 	mov	r3, r2
    9994:	e1a03103 	lsl	r3, r3, #2
    9998:	e0833002 	add	r3, r3, r2
    999c:	e1a03203 	lsl	r3, r3, #4
    99a0:	e30b229c 	movw	r2, #45724	; 0xb29c
    99a4:	e3402019 	movt	r2, #25
    99a8:	e0833002 	add	r3, r3, r2
    99ac:	e50b300c 	str	r3, [fp, #-12]
    99b0:	e55b2006 	ldrb	r2, [fp, #-6]
    99b4:	e1a03002 	mov	r3, r2
    99b8:	e1a03103 	lsl	r3, r3, #2
    99bc:	e0833002 	add	r3, r3, r2
    99c0:	e1a03203 	lsl	r3, r3, #4
    99c4:	e30b229c 	movw	r2, #45724	; 0xb29c
    99c8:	e3402019 	movt	r2, #25
    99cc:	e0833002 	add	r3, r3, r2
    99d0:	e50b3010 	str	r3, [fp, #-16]
    99d4:	e51b300c 	ldr	r3, [fp, #-12]
    99d8:	e51b2010 	ldr	r2, [fp, #-16]
    99dc:	e5832014 	str	r2, [r3, #20]
    99e0:	e51b200c 	ldr	r2, [fp, #-12]
    99e4:	e3073728 	movw	r3, #30504	; 0x7728
    99e8:	e3403001 	movt	r3, #1
    99ec:	e5823048 	str	r3, [r2, #72]	; 0x48
    99f0:	e55b3005 	ldrb	r3, [fp, #-5]
    99f4:	e2833001 	add	r3, r3, #1
    99f8:	e54b3005 	strb	r3, [fp, #-5]
    99fc:	e55b3005 	ldrb	r3, [fp, #-5]
    9a00:	e3530013 	cmp	r3, #19
    9a04:	9affffdd 	bls	9980 <OS_InitTCBList+0x38>
    9a08:	e55b2005 	ldrb	r2, [fp, #-5]
    9a0c:	e1a03002 	mov	r3, r2
    9a10:	e1a03103 	lsl	r3, r3, #2
    9a14:	e0833002 	add	r3, r3, r2
    9a18:	e1a03203 	lsl	r3, r3, #4
    9a1c:	e30b229c 	movw	r2, #45724	; 0xb29c
    9a20:	e3402019 	movt	r2, #25
    9a24:	e0833002 	add	r3, r3, r2
    9a28:	e50b300c 	str	r3, [fp, #-12]
    9a2c:	e51b300c 	ldr	r3, [fp, #-12]
    9a30:	e3a02000 	mov	r2, #0
    9a34:	e5832014 	str	r2, [r3, #20]
    9a38:	e51b200c 	ldr	r2, [fp, #-12]
    9a3c:	e3073728 	movw	r3, #30504	; 0x7728
    9a40:	e3403001 	movt	r3, #1
    9a44:	e5823048 	str	r3, [r2, #72]	; 0x48
    9a48:	e30a3e98 	movw	r3, #44696	; 0xae98
    9a4c:	e3403019 	movt	r3, #25
    9a50:	e3a02000 	mov	r2, #0
    9a54:	e5832000 	str	r2, [r3]
    9a58:	e30a3f1c 	movw	r3, #44828	; 0xaf1c
    9a5c:	e3403019 	movt	r3, #25
    9a60:	e30b229c 	movw	r2, #45724	; 0xb29c
    9a64:	e3402019 	movt	r2, #25
    9a68:	e5832000 	str	r2, [r3]
    9a6c:	e24bd004 	sub	sp, fp, #4
    9a70:	e8bd8800 	pop	{fp, pc}

00009a74 <OS_MemClr>:
    9a74:	e52db004 	push	{fp}		; (str fp, [sp, #-4]!)
    9a78:	e28db000 	add	fp, sp, #0
    9a7c:	e24dd00c 	sub	sp, sp, #12
    9a80:	e50b0008 	str	r0, [fp, #-8]
    9a84:	e1a03001 	mov	r3, r1
    9a88:	e14b30ba 	strh	r3, [fp, #-10]
    9a8c:	ea000008 	b	9ab4 <OS_MemClr+0x40>
    9a90:	e51b3008 	ldr	r3, [fp, #-8]
    9a94:	e3a02000 	mov	r2, #0
    9a98:	e5c32000 	strb	r2, [r3]
    9a9c:	e51b3008 	ldr	r3, [fp, #-8]
    9aa0:	e2833001 	add	r3, r3, #1
    9aa4:	e50b3008 	str	r3, [fp, #-8]
    9aa8:	e15b30ba 	ldrh	r3, [fp, #-10]
    9aac:	e2433001 	sub	r3, r3, #1
    9ab0:	e14b30ba 	strh	r3, [fp, #-10]
    9ab4:	e15b30ba 	ldrh	r3, [fp, #-10]
    9ab8:	e3530000 	cmp	r3, #0
    9abc:	1afffff3 	bne	9a90 <OS_MemClr+0x1c>
    9ac0:	e28bd000 	add	sp, fp, #0
    9ac4:	e8bd0800 	ldmfd	sp!, {fp}
    9ac8:	e12fff1e 	bx	lr

00009acc <OS_MemCopy>:
    9acc:	e52db004 	push	{fp}		; (str fp, [sp, #-4]!)
    9ad0:	e28db000 	add	fp, sp, #0
    9ad4:	e24dd014 	sub	sp, sp, #20
    9ad8:	e50b0008 	str	r0, [fp, #-8]
    9adc:	e50b100c 	str	r1, [fp, #-12]
    9ae0:	e1a03002 	mov	r3, r2
    9ae4:	e14b30be 	strh	r3, [fp, #-14]
    9ae8:	ea00000c 	b	9b20 <OS_MemCopy+0x54>
    9aec:	e51b300c 	ldr	r3, [fp, #-12]
    9af0:	e5d32000 	ldrb	r2, [r3]
    9af4:	e51b3008 	ldr	r3, [fp, #-8]
    9af8:	e5c32000 	strb	r2, [r3]
    9afc:	e51b3008 	ldr	r3, [fp, #-8]
    9b00:	e2833001 	add	r3, r3, #1
    9b04:	e50b3008 	str	r3, [fp, #-8]
    9b08:	e51b300c 	ldr	r3, [fp, #-12]
    9b0c:	e2833001 	add	r3, r3, #1
    9b10:	e50b300c 	str	r3, [fp, #-12]
    9b14:	e15b30be 	ldrh	r3, [fp, #-14]
    9b18:	e2433001 	sub	r3, r3, #1
    9b1c:	e14b30be 	strh	r3, [fp, #-14]
    9b20:	e15b30be 	ldrh	r3, [fp, #-14]
    9b24:	e3530000 	cmp	r3, #0
    9b28:	1affffef 	bne	9aec <OS_MemCopy+0x20>
    9b2c:	e28bd000 	add	sp, fp, #0
    9b30:	e8bd0800 	ldmfd	sp!, {fp}
    9b34:	e12fff1e 	bx	lr

00009b38 <OS_Sched>:
    9b38:	e92d4800 	push	{fp, lr}
    9b3c:	e28db004 	add	fp, sp, #4
    9b40:	e24dd008 	sub	sp, sp, #8
    9b44:	e3a03000 	mov	r3, #0
    9b48:	e50b3008 	str	r3, [fp, #-8]
    9b4c:	eb0015d7 	bl	f2b0 <OS_CPU_SR_Save>
    9b50:	e50b0008 	str	r0, [fp, #-8]
    9b54:	e30a3fa0 	movw	r3, #44960	; 0xafa0
    9b58:	e3403019 	movt	r3, #25
    9b5c:	e5d33000 	ldrb	r3, [r3]
    9b60:	e3530000 	cmp	r3, #0
    9b64:	1a000025 	bne	9c00 <OS_Sched+0xc8>
    9b68:	e30a3e8c 	movw	r3, #44684	; 0xae8c
    9b6c:	e3403019 	movt	r3, #25
    9b70:	e5d33000 	ldrb	r3, [r3]
    9b74:	e3530000 	cmp	r3, #0
    9b78:	1a000020 	bne	9c00 <OS_Sched+0xc8>
    9b7c:	eb000023 	bl	9c10 <OS_SchedNew>
    9b80:	e30a3e94 	movw	r3, #44692	; 0xae94
    9b84:	e3403019 	movt	r3, #25
    9b88:	e5d33000 	ldrb	r3, [r3]
    9b8c:	e1a02003 	mov	r2, r3
    9b90:	e30b392c 	movw	r3, #47404	; 0xb92c
    9b94:	e3403019 	movt	r3, #25
    9b98:	e7932102 	ldr	r2, [r3, r2, lsl #2]
    9b9c:	e30a3f88 	movw	r3, #44936	; 0xaf88
    9ba0:	e3403019 	movt	r3, #25
    9ba4:	e5832000 	str	r2, [r3]
    9ba8:	e30a3e94 	movw	r3, #44692	; 0xae94
    9bac:	e3403019 	movt	r3, #25
    9bb0:	e5d32000 	ldrb	r2, [r3]
    9bb4:	e30a3e95 	movw	r3, #44693	; 0xae95
    9bb8:	e3403019 	movt	r3, #25
    9bbc:	e5d33000 	ldrb	r3, [r3]
    9bc0:	e1520003 	cmp	r2, r3
    9bc4:	0a00000d 	beq	9c00 <OS_Sched+0xc8>
    9bc8:	e30a3f88 	movw	r3, #44936	; 0xaf88
    9bcc:	e3403019 	movt	r3, #25
    9bd0:	e5933000 	ldr	r3, [r3]
    9bd4:	e5932034 	ldr	r2, [r3, #52]	; 0x34
    9bd8:	e2822001 	add	r2, r2, #1
    9bdc:	e5832034 	str	r2, [r3, #52]	; 0x34
    9be0:	e30a3f18 	movw	r3, #44824	; 0xaf18
    9be4:	e3403019 	movt	r3, #25
    9be8:	e5933000 	ldr	r3, [r3]
    9bec:	e2832001 	add	r2, r3, #1
    9bf0:	e30a3f18 	movw	r3, #44824	; 0xaf18
    9bf4:	e3403019 	movt	r3, #25
    9bf8:	e5832000 	str	r2, [r3]
    9bfc:	eb0015e4 	bl	f394 <OSCtxSw>
    9c00:	e51b0008 	ldr	r0, [fp, #-8]
    9c04:	eb0015bc 	bl	f2fc <OS_CPU_SR_Restore>
    9c08:	e24bd004 	sub	sp, fp, #4
    9c0c:	e8bd8800 	pop	{fp, pc}

00009c10 <OS_SchedNew>:
    9c10:	e52db004 	push	{fp}		; (str fp, [sp, #-4]!)
    9c14:	e28db000 	add	fp, sp, #0
    9c18:	e24dd00c 	sub	sp, sp, #12
    9c1c:	e30a3f90 	movw	r3, #44944	; 0xaf90
    9c20:	e3403019 	movt	r3, #25
    9c24:	e5d33000 	ldrb	r3, [r3]
    9c28:	e1a02003 	mov	r2, r3
    9c2c:	e3073628 	movw	r3, #30248	; 0x7628
    9c30:	e3403001 	movt	r3, #1
    9c34:	e7d33002 	ldrb	r3, [r3, r2]
    9c38:	e54b3005 	strb	r3, [fp, #-5]
    9c3c:	e55b3005 	ldrb	r3, [fp, #-5]
    9c40:	e1a03183 	lsl	r3, r3, #3
    9c44:	e6ef2073 	uxtb	r2, r3
    9c48:	e55b1005 	ldrb	r1, [fp, #-5]
    9c4c:	e30a3f94 	movw	r3, #44948	; 0xaf94
    9c50:	e3403019 	movt	r3, #25
    9c54:	e7d33001 	ldrb	r3, [r3, r1]
    9c58:	e1a01003 	mov	r1, r3
    9c5c:	e3073628 	movw	r3, #30248	; 0x7628
    9c60:	e3403001 	movt	r3, #1
    9c64:	e7d33001 	ldrb	r3, [r3, r1]
    9c68:	e0823003 	add	r3, r2, r3
    9c6c:	e6ef2073 	uxtb	r2, r3
    9c70:	e30a3e94 	movw	r3, #44692	; 0xae94
    9c74:	e3403019 	movt	r3, #25
    9c78:	e5c32000 	strb	r2, [r3]
    9c7c:	e28bd000 	add	sp, fp, #0
    9c80:	e8bd0800 	ldmfd	sp!, {fp}
    9c84:	e12fff1e 	bx	lr

00009c88 <OS_StrLen>:
    9c88:	e52db004 	push	{fp}		; (str fp, [sp, #-4]!)
    9c8c:	e28db000 	add	fp, sp, #0
    9c90:	e24dd014 	sub	sp, sp, #20
    9c94:	e50b0010 	str	r0, [fp, #-16]
    9c98:	e3a03000 	mov	r3, #0
    9c9c:	e54b3005 	strb	r3, [fp, #-5]
    9ca0:	ea000005 	b	9cbc <OS_StrLen+0x34>
    9ca4:	e51b3010 	ldr	r3, [fp, #-16]
    9ca8:	e2833001 	add	r3, r3, #1
    9cac:	e50b3010 	str	r3, [fp, #-16]
    9cb0:	e55b3005 	ldrb	r3, [fp, #-5]
    9cb4:	e2833001 	add	r3, r3, #1
    9cb8:	e54b3005 	strb	r3, [fp, #-5]
    9cbc:	e51b3010 	ldr	r3, [fp, #-16]
    9cc0:	e5d33000 	ldrb	r3, [r3]
    9cc4:	e3530000 	cmp	r3, #0
    9cc8:	1afffff5 	bne	9ca4 <OS_StrLen+0x1c>
    9ccc:	e55b3005 	ldrb	r3, [fp, #-5]
    9cd0:	e1a00003 	mov	r0, r3
    9cd4:	e28bd000 	add	sp, fp, #0
    9cd8:	e8bd0800 	ldmfd	sp!, {fp}
    9cdc:	e12fff1e 	bx	lr

00009ce0 <OS_TaskIdle>:
    9ce0:	e92d4800 	push	{fp, lr}
    9ce4:	e28db004 	add	fp, sp, #4
    9ce8:	e24dd010 	sub	sp, sp, #16
    9cec:	e50b0010 	str	r0, [fp, #-16]
    9cf0:	e3a03000 	mov	r3, #0
    9cf4:	e50b3008 	str	r3, [fp, #-8]
    9cf8:	eb00156c 	bl	f2b0 <OS_CPU_SR_Save>
    9cfc:	e50b0008 	str	r0, [fp, #-8]
    9d00:	e30a3e90 	movw	r3, #44688	; 0xae90
    9d04:	e3403019 	movt	r3, #25
    9d08:	e5933000 	ldr	r3, [r3]
    9d0c:	e2832001 	add	r2, r3, #1
    9d10:	e30a3e90 	movw	r3, #44688	; 0xae90
    9d14:	e3403019 	movt	r3, #25
    9d18:	e5832000 	str	r2, [r3]
    9d1c:	e51b0008 	ldr	r0, [fp, #-8]
    9d20:	eb001575 	bl	f2fc <OS_CPU_SR_Restore>
    9d24:	eb0016c9 	bl	f850 <OSTaskIdleHook>
    9d28:	eafffff2 	b	9cf8 <OS_TaskIdle+0x18>

00009d2c <OS_TaskStatStkChk>:
    9d2c:	e92d4800 	push	{fp, lr}
    9d30:	e28db004 	add	fp, sp, #4
    9d34:	e24dd010 	sub	sp, sp, #16
    9d38:	e3a03000 	mov	r3, #0
    9d3c:	e54b3005 	strb	r3, [fp, #-5]
    9d40:	ea000022 	b	9dd0 <OS_TaskStatStkChk+0xa4>
    9d44:	e55b2005 	ldrb	r2, [fp, #-5]
    9d48:	e24b3014 	sub	r3, fp, #20
    9d4c:	e1a00002 	mov	r0, r2
    9d50:	e1a01003 	mov	r1, r3
    9d54:	eb0012ba 	bl	e844 <OSTaskStkChk>
    9d58:	e1a03000 	mov	r3, r0
    9d5c:	e54b3006 	strb	r3, [fp, #-6]
    9d60:	e55b3006 	ldrb	r3, [fp, #-6]
    9d64:	e3530000 	cmp	r3, #0
    9d68:	1a000015 	bne	9dc4 <OS_TaskStatStkChk+0x98>
    9d6c:	e55b2005 	ldrb	r2, [fp, #-5]
    9d70:	e30b392c 	movw	r3, #47404	; 0xb92c
    9d74:	e3403019 	movt	r3, #25
    9d78:	e7933102 	ldr	r3, [r3, r2, lsl #2]
    9d7c:	e50b300c 	str	r3, [fp, #-12]
    9d80:	e51b300c 	ldr	r3, [fp, #-12]
    9d84:	e3530000 	cmp	r3, #0
    9d88:	0a00000d 	beq	9dc4 <OS_TaskStatStkChk+0x98>
    9d8c:	e51b300c 	ldr	r3, [fp, #-12]
    9d90:	e3530001 	cmp	r3, #1
    9d94:	0a00000a 	beq	9dc4 <OS_TaskStatStkChk+0x98>
    9d98:	e51b300c 	ldr	r3, [fp, #-12]
    9d9c:	e5932008 	ldr	r2, [r3, #8]
    9da0:	e51b300c 	ldr	r3, [fp, #-12]
    9da4:	e593300c 	ldr	r3, [r3, #12]
    9da8:	e1a03103 	lsl	r3, r3, #2
    9dac:	e0822003 	add	r2, r2, r3
    9db0:	e51b300c 	ldr	r3, [fp, #-12]
    9db4:	e5832040 	str	r2, [r3, #64]	; 0x40
    9db8:	e51b2010 	ldr	r2, [fp, #-16]
    9dbc:	e51b300c 	ldr	r3, [fp, #-12]
    9dc0:	e5832044 	str	r2, [r3, #68]	; 0x44
    9dc4:	e55b3005 	ldrb	r3, [fp, #-5]
    9dc8:	e2833001 	add	r3, r3, #1
    9dcc:	e54b3005 	strb	r3, [fp, #-5]
    9dd0:	e55b3005 	ldrb	r3, [fp, #-5]
    9dd4:	e353003f 	cmp	r3, #63	; 0x3f
    9dd8:	9affffd9 	bls	9d44 <OS_TaskStatStkChk+0x18>
    9ddc:	e24bd004 	sub	sp, fp, #4
    9de0:	e8bd8800 	pop	{fp, pc}

00009de4 <OS_TCBInit>:
    9de4:	e92d4800 	push	{fp, lr}
    9de8:	e28db004 	add	fp, sp, #4
    9dec:	e24dd020 	sub	sp, sp, #32
    9df0:	e50b101c 	str	r1, [fp, #-28]	; 0xffffffe4
    9df4:	e50b2020 	str	r2, [fp, #-32]	; 0xffffffe0
    9df8:	e1a02000 	mov	r2, r0
    9dfc:	e54b2015 	strb	r2, [fp, #-21]	; 0xffffffeb
    9e00:	e14b31b8 	strh	r3, [fp, #-24]	; 0xffffffe8
    9e04:	e3a03000 	mov	r3, #0
    9e08:	e50b300c 	str	r3, [fp, #-12]
    9e0c:	eb001527 	bl	f2b0 <OS_CPU_SR_Save>
    9e10:	e50b000c 	str	r0, [fp, #-12]
    9e14:	e30a3f1c 	movw	r3, #44828	; 0xaf1c
    9e18:	e3403019 	movt	r3, #25
    9e1c:	e5933000 	ldr	r3, [r3]
    9e20:	e50b3010 	str	r3, [fp, #-16]
    9e24:	e51b3010 	ldr	r3, [fp, #-16]
    9e28:	e3530000 	cmp	r3, #0
    9e2c:	0a0000b8 	beq	a114 <OS_TCBInit+0x330>
    9e30:	e51b3010 	ldr	r3, [fp, #-16]
    9e34:	e5932014 	ldr	r2, [r3, #20]
    9e38:	e30a3f1c 	movw	r3, #44828	; 0xaf1c
    9e3c:	e3403019 	movt	r3, #25
    9e40:	e5832000 	str	r2, [r3]
    9e44:	e51b000c 	ldr	r0, [fp, #-12]
    9e48:	eb00152b 	bl	f2fc <OS_CPU_SR_Restore>
    9e4c:	e51b3010 	ldr	r3, [fp, #-16]
    9e50:	e51b201c 	ldr	r2, [fp, #-28]	; 0xffffffe4
    9e54:	e5832000 	str	r2, [r3]
    9e58:	e51b3010 	ldr	r3, [fp, #-16]
    9e5c:	e55b2015 	ldrb	r2, [fp, #-21]	; 0xffffffeb
    9e60:	e5c3202e 	strb	r2, [r3, #46]	; 0x2e
    9e64:	e51b3010 	ldr	r3, [fp, #-16]
    9e68:	e3a02000 	mov	r2, #0
    9e6c:	e5c3202c 	strb	r2, [r3, #44]	; 0x2c
    9e70:	e51b3010 	ldr	r3, [fp, #-16]
    9e74:	e3a02000 	mov	r2, #0
    9e78:	e5c3202d 	strb	r2, [r3, #45]	; 0x2d
    9e7c:	e51b3010 	ldr	r3, [fp, #-16]
    9e80:	e3a02000 	mov	r2, #0
    9e84:	e5832028 	str	r2, [r3, #40]	; 0x28
    9e88:	e51b3010 	ldr	r3, [fp, #-16]
    9e8c:	e59b2008 	ldr	r2, [fp, #8]
    9e90:	e5832004 	str	r2, [r3, #4]
    9e94:	e51b3010 	ldr	r3, [fp, #-16]
    9e98:	e59b2004 	ldr	r2, [fp, #4]
    9e9c:	e583200c 	str	r2, [r3, #12]
    9ea0:	e51b3010 	ldr	r3, [fp, #-16]
    9ea4:	e51b2020 	ldr	r2, [fp, #-32]	; 0xffffffe0
    9ea8:	e5832008 	str	r2, [r3, #8]
    9eac:	e51b3010 	ldr	r3, [fp, #-16]
    9eb0:	e1db20bc 	ldrh	r2, [fp, #12]
    9eb4:	e1c321b0 	strh	r2, [r3, #16]
    9eb8:	e51b3010 	ldr	r3, [fp, #-16]
    9ebc:	e15b21b8 	ldrh	r2, [fp, #-24]	; 0xffffffe8
    9ec0:	e1c321b2 	strh	r2, [r3, #18]
    9ec4:	e51b3010 	ldr	r3, [fp, #-16]
    9ec8:	e3a02000 	mov	r2, #0
    9ecc:	e5c32033 	strb	r2, [r3, #51]	; 0x33
    9ed0:	e55b3015 	ldrb	r3, [fp, #-21]	; 0xffffffeb
    9ed4:	e1a031a3 	lsr	r3, r3, #3
    9ed8:	e6ef2073 	uxtb	r2, r3
    9edc:	e51b3010 	ldr	r3, [fp, #-16]
    9ee0:	e5c32030 	strb	r2, [r3, #48]	; 0x30
    9ee4:	e55b3015 	ldrb	r3, [fp, #-21]	; 0xffffffeb
    9ee8:	e2033007 	and	r3, r3, #7
    9eec:	e6ef2073 	uxtb	r2, r3
    9ef0:	e51b3010 	ldr	r3, [fp, #-16]
    9ef4:	e5c3202f 	strb	r2, [r3, #47]	; 0x2f
    9ef8:	e51b3010 	ldr	r3, [fp, #-16]
    9efc:	e5d33030 	ldrb	r3, [r3, #48]	; 0x30
    9f00:	e3a02001 	mov	r2, #1
    9f04:	e1a03312 	lsl	r3, r2, r3
    9f08:	e6ef2073 	uxtb	r2, r3
    9f0c:	e51b3010 	ldr	r3, [fp, #-16]
    9f10:	e5c32032 	strb	r2, [r3, #50]	; 0x32
    9f14:	e51b3010 	ldr	r3, [fp, #-16]
    9f18:	e5d3302f 	ldrb	r3, [r3, #47]	; 0x2f
    9f1c:	e3a02001 	mov	r2, #1
    9f20:	e1a03312 	lsl	r3, r2, r3
    9f24:	e6ef2073 	uxtb	r2, r3
    9f28:	e51b3010 	ldr	r3, [fp, #-16]
    9f2c:	e5c32031 	strb	r2, [r3, #49]	; 0x31
    9f30:	e51b3010 	ldr	r3, [fp, #-16]
    9f34:	e3a02000 	mov	r2, #0
    9f38:	e583201c 	str	r2, [r3, #28]
    9f3c:	e51b3010 	ldr	r3, [fp, #-16]
    9f40:	e3a02000 	mov	r2, #0
    9f44:	e5832020 	str	r2, [r3, #32]
    9f48:	e51b3010 	ldr	r3, [fp, #-16]
    9f4c:	e3a02000 	mov	r2, #0
    9f50:	e5832024 	str	r2, [r3, #36]	; 0x24
    9f54:	e51b3010 	ldr	r3, [fp, #-16]
    9f58:	e3a02000 	mov	r2, #0
    9f5c:	e5832034 	str	r2, [r3, #52]	; 0x34
    9f60:	e51b3010 	ldr	r3, [fp, #-16]
    9f64:	e3a02000 	mov	r2, #0
    9f68:	e583203c 	str	r2, [r3, #60]	; 0x3c
    9f6c:	e51b3010 	ldr	r3, [fp, #-16]
    9f70:	e3a02000 	mov	r2, #0
    9f74:	e5832038 	str	r2, [r3, #56]	; 0x38
    9f78:	e51b3010 	ldr	r3, [fp, #-16]
    9f7c:	e3a02000 	mov	r2, #0
    9f80:	e5832040 	str	r2, [r3, #64]	; 0x40
    9f84:	e51b3010 	ldr	r3, [fp, #-16]
    9f88:	e3a02000 	mov	r2, #0
    9f8c:	e5832044 	str	r2, [r3, #68]	; 0x44
    9f90:	e51b2010 	ldr	r2, [fp, #-16]
    9f94:	e3073728 	movw	r3, #30504	; 0x7728
    9f98:	e3403001 	movt	r3, #1
    9f9c:	e5823048 	str	r3, [r2, #72]	; 0x48
    9fa0:	e3a03000 	mov	r3, #0
    9fa4:	e54b3005 	strb	r3, [fp, #-5]
    9fa8:	ea00000b 	b	9fdc <OS_TCBInit+0x1f8>
    9fac:	e55b3005 	ldrb	r3, [fp, #-5]
    9fb0:	e51b1010 	ldr	r1, [fp, #-16]
    9fb4:	e2832012 	add	r2, r3, #18
    9fb8:	e3a03004 	mov	r3, #4
    9fbc:	e1a02102 	lsl	r2, r2, #2
    9fc0:	e0812002 	add	r2, r1, r2
    9fc4:	e0823003 	add	r3, r2, r3
    9fc8:	e3a02000 	mov	r2, #0
    9fcc:	e5832000 	str	r2, [r3]
    9fd0:	e55b3005 	ldrb	r3, [fp, #-5]
    9fd4:	e2833001 	add	r3, r3, #1
    9fd8:	e54b3005 	strb	r3, [fp, #-5]
    9fdc:	e55b3005 	ldrb	r3, [fp, #-5]
    9fe0:	e3530000 	cmp	r3, #0
    9fe4:	0afffff0 	beq	9fac <OS_TCBInit+0x1c8>
    9fe8:	e51b0010 	ldr	r0, [fp, #-16]
    9fec:	eb0016b8 	bl	fad4 <OSTCBInitHook>
    9ff0:	eb0014ae 	bl	f2b0 <OS_CPU_SR_Save>
    9ff4:	e50b000c 	str	r0, [fp, #-12]
    9ff8:	e55b2015 	ldrb	r2, [fp, #-21]	; 0xffffffeb
    9ffc:	e30b392c 	movw	r3, #47404	; 0xb92c
    a000:	e3403019 	movt	r3, #25
    a004:	e51b1010 	ldr	r1, [fp, #-16]
    a008:	e7831102 	str	r1, [r3, r2, lsl #2]
    a00c:	e51b000c 	ldr	r0, [fp, #-12]
    a010:	eb0014b9 	bl	f2fc <OS_CPU_SR_Restore>
    a014:	e51b0010 	ldr	r0, [fp, #-16]
    a018:	eb0015fc 	bl	f810 <OSTaskCreateHook>
    a01c:	eb0014a3 	bl	f2b0 <OS_CPU_SR_Save>
    a020:	e50b000c 	str	r0, [fp, #-12]
    a024:	e30a3e98 	movw	r3, #44696	; 0xae98
    a028:	e3403019 	movt	r3, #25
    a02c:	e5932000 	ldr	r2, [r3]
    a030:	e51b3010 	ldr	r3, [fp, #-16]
    a034:	e5832014 	str	r2, [r3, #20]
    a038:	e51b3010 	ldr	r3, [fp, #-16]
    a03c:	e3a02000 	mov	r2, #0
    a040:	e5832018 	str	r2, [r3, #24]
    a044:	e30a3e98 	movw	r3, #44696	; 0xae98
    a048:	e3403019 	movt	r3, #25
    a04c:	e5933000 	ldr	r3, [r3]
    a050:	e3530000 	cmp	r3, #0
    a054:	0a000004 	beq	a06c <OS_TCBInit+0x288>
    a058:	e30a3e98 	movw	r3, #44696	; 0xae98
    a05c:	e3403019 	movt	r3, #25
    a060:	e5933000 	ldr	r3, [r3]
    a064:	e51b2010 	ldr	r2, [fp, #-16]
    a068:	e5832018 	str	r2, [r3, #24]
    a06c:	e30a3e98 	movw	r3, #44696	; 0xae98
    a070:	e3403019 	movt	r3, #25
    a074:	e51b2010 	ldr	r2, [fp, #-16]
    a078:	e5832000 	str	r2, [r3]
    a07c:	e51b3010 	ldr	r3, [fp, #-16]
    a080:	e5d32032 	ldrb	r2, [r3, #50]	; 0x32
    a084:	e30a3f90 	movw	r3, #44944	; 0xaf90
    a088:	e3403019 	movt	r3, #25
    a08c:	e5d33000 	ldrb	r3, [r3]
    a090:	e1823003 	orr	r3, r2, r3
    a094:	e6ef2073 	uxtb	r2, r3
    a098:	e30a3f90 	movw	r3, #44944	; 0xaf90
    a09c:	e3403019 	movt	r3, #25
    a0a0:	e5c32000 	strb	r2, [r3]
    a0a4:	e51b3010 	ldr	r3, [fp, #-16]
    a0a8:	e5d33030 	ldrb	r3, [r3, #48]	; 0x30
    a0ac:	e1a02003 	mov	r2, r3
    a0b0:	e51b3010 	ldr	r3, [fp, #-16]
    a0b4:	e5d33030 	ldrb	r3, [r3, #48]	; 0x30
    a0b8:	e1a01003 	mov	r1, r3
    a0bc:	e30a3f94 	movw	r3, #44948	; 0xaf94
    a0c0:	e3403019 	movt	r3, #25
    a0c4:	e7d31001 	ldrb	r1, [r3, r1]
    a0c8:	e51b3010 	ldr	r3, [fp, #-16]
    a0cc:	e5d33031 	ldrb	r3, [r3, #49]	; 0x31
    a0d0:	e1813003 	orr	r3, r1, r3
    a0d4:	e6ef1073 	uxtb	r1, r3
    a0d8:	e30a3f94 	movw	r3, #44948	; 0xaf94
    a0dc:	e3403019 	movt	r3, #25
    a0e0:	e7c31002 	strb	r1, [r3, r2]
    a0e4:	e30a3f20 	movw	r3, #44832	; 0xaf20
    a0e8:	e3403019 	movt	r3, #25
    a0ec:	e5d33000 	ldrb	r3, [r3]
    a0f0:	e2833001 	add	r3, r3, #1
    a0f4:	e6ef2073 	uxtb	r2, r3
    a0f8:	e30a3f20 	movw	r3, #44832	; 0xaf20
    a0fc:	e3403019 	movt	r3, #25
    a100:	e5c32000 	strb	r2, [r3]
    a104:	e51b000c 	ldr	r0, [fp, #-12]
    a108:	eb00147b 	bl	f2fc <OS_CPU_SR_Restore>
    a10c:	e3a03000 	mov	r3, #0
    a110:	ea000002 	b	a120 <OS_TCBInit+0x33c>
    a114:	e51b000c 	ldr	r0, [fp, #-12]
    a118:	eb001477 	bl	f2fc <OS_CPU_SR_Restore>
    a11c:	e3a03042 	mov	r3, #66	; 0x42
    a120:	e1a00003 	mov	r0, r3
    a124:	e24bd004 	sub	sp, fp, #4
    a128:	e8bd8800 	pop	{fp, pc}

0000a12c <OSMboxAccept>:
    a12c:	e92d4800 	push	{fp, lr}
    a130:	e28db004 	add	fp, sp, #4
    a134:	e24dd010 	sub	sp, sp, #16
    a138:	e50b0010 	str	r0, [fp, #-16]
    a13c:	e3a03000 	mov	r3, #0
    a140:	e50b3008 	str	r3, [fp, #-8]
    a144:	e51b3010 	ldr	r3, [fp, #-16]
    a148:	e5d33000 	ldrb	r3, [r3]
    a14c:	e3530001 	cmp	r3, #1
    a150:	0a000001 	beq	a15c <OSMboxAccept+0x30>
    a154:	e3a03000 	mov	r3, #0
    a158:	ea00000a 	b	a188 <OSMboxAccept+0x5c>
    a15c:	eb001453 	bl	f2b0 <OS_CPU_SR_Save>
    a160:	e50b0008 	str	r0, [fp, #-8]
    a164:	e51b3010 	ldr	r3, [fp, #-16]
    a168:	e5933004 	ldr	r3, [r3, #4]
    a16c:	e50b300c 	str	r3, [fp, #-12]
    a170:	e51b3010 	ldr	r3, [fp, #-16]
    a174:	e3a02000 	mov	r2, #0
    a178:	e5832004 	str	r2, [r3, #4]
    a17c:	e51b0008 	ldr	r0, [fp, #-8]
    a180:	eb00145d 	bl	f2fc <OS_CPU_SR_Restore>
    a184:	e51b300c 	ldr	r3, [fp, #-12]
    a188:	e1a00003 	mov	r0, r3
    a18c:	e24bd004 	sub	sp, fp, #4
    a190:	e8bd8800 	pop	{fp, pc}

0000a194 <OSMboxCreate>:
    a194:	e92d4800 	push	{fp, lr}
    a198:	e28db004 	add	fp, sp, #4
    a19c:	e24dd010 	sub	sp, sp, #16
    a1a0:	e50b0010 	str	r0, [fp, #-16]
    a1a4:	e3a03000 	mov	r3, #0
    a1a8:	e50b3008 	str	r3, [fp, #-8]
    a1ac:	e30a3fa0 	movw	r3, #44960	; 0xafa0
    a1b0:	e3403019 	movt	r3, #25
    a1b4:	e5d33000 	ldrb	r3, [r3]
    a1b8:	e3530000 	cmp	r3, #0
    a1bc:	0a000001 	beq	a1c8 <OSMboxCreate+0x34>
    a1c0:	e3a03000 	mov	r3, #0
    a1c4:	ea000026 	b	a264 <OSMboxCreate+0xd0>
    a1c8:	eb001438 	bl	f2b0 <OS_CPU_SR_Save>
    a1cc:	e50b0008 	str	r0, [fp, #-8]
    a1d0:	e30a3f9c 	movw	r3, #44956	; 0xaf9c
    a1d4:	e3403019 	movt	r3, #25
    a1d8:	e5933000 	ldr	r3, [r3]
    a1dc:	e50b300c 	str	r3, [fp, #-12]
    a1e0:	e30a3f9c 	movw	r3, #44956	; 0xaf9c
    a1e4:	e3403019 	movt	r3, #25
    a1e8:	e5933000 	ldr	r3, [r3]
    a1ec:	e3530000 	cmp	r3, #0
    a1f0:	0a000006 	beq	a210 <OSMboxCreate+0x7c>
    a1f4:	e30a3f9c 	movw	r3, #44956	; 0xaf9c
    a1f8:	e3403019 	movt	r3, #25
    a1fc:	e5933000 	ldr	r3, [r3]
    a200:	e5932004 	ldr	r2, [r3, #4]
    a204:	e30a3f9c 	movw	r3, #44956	; 0xaf9c
    a208:	e3403019 	movt	r3, #25
    a20c:	e5832000 	str	r2, [r3]
    a210:	e51b0008 	ldr	r0, [fp, #-8]
    a214:	eb001438 	bl	f2fc <OS_CPU_SR_Restore>
    a218:	e51b300c 	ldr	r3, [fp, #-12]
    a21c:	e3530000 	cmp	r3, #0
    a220:	0a00000e 	beq	a260 <OSMboxCreate+0xcc>
    a224:	e51b300c 	ldr	r3, [fp, #-12]
    a228:	e3a02001 	mov	r2, #1
    a22c:	e5c32000 	strb	r2, [r3]
    a230:	e51b300c 	ldr	r3, [fp, #-12]
    a234:	e3a02000 	mov	r2, #0
    a238:	e1c320b8 	strh	r2, [r3, #8]
    a23c:	e51b300c 	ldr	r3, [fp, #-12]
    a240:	e51b2010 	ldr	r2, [fp, #-16]
    a244:	e5832004 	str	r2, [r3, #4]
    a248:	e51b200c 	ldr	r2, [fp, #-12]
    a24c:	e3073740 	movw	r3, #30528	; 0x7740
    a250:	e3403001 	movt	r3, #1
    a254:	e5823014 	str	r3, [r2, #20]
    a258:	e51b000c 	ldr	r0, [fp, #-12]
    a25c:	ebfffcec 	bl	9614 <OS_EventWaitListInit>
    a260:	e51b300c 	ldr	r3, [fp, #-12]
    a264:	e1a00003 	mov	r0, r3
    a268:	e24bd004 	sub	sp, fp, #4
    a26c:	e8bd8800 	pop	{fp, pc}

0000a270 <OSMboxDel>:
    a270:	e92d4800 	push	{fp, lr}
    a274:	e28db004 	add	fp, sp, #4
    a278:	e24dd020 	sub	sp, sp, #32
    a27c:	e50b0018 	str	r0, [fp, #-24]	; 0xffffffe8
    a280:	e1a03001 	mov	r3, r1
    a284:	e50b2020 	str	r2, [fp, #-32]	; 0xffffffe0
    a288:	e54b3019 	strb	r3, [fp, #-25]	; 0xffffffe7
    a28c:	e3a03000 	mov	r3, #0
    a290:	e50b3010 	str	r3, [fp, #-16]
    a294:	e51b3018 	ldr	r3, [fp, #-24]	; 0xffffffe8
    a298:	e5d33000 	ldrb	r3, [r3]
    a29c:	e3530001 	cmp	r3, #1
    a2a0:	0a000004 	beq	a2b8 <OSMboxDel+0x48>
    a2a4:	e51b3020 	ldr	r3, [fp, #-32]	; 0xffffffe0
    a2a8:	e3a02001 	mov	r2, #1
    a2ac:	e5c32000 	strb	r2, [r3]
    a2b0:	e51b3018 	ldr	r3, [fp, #-24]	; 0xffffffe8
    a2b4:	ea000073 	b	a488 <OSMboxDel+0x218>
    a2b8:	e30a3fa0 	movw	r3, #44960	; 0xafa0
    a2bc:	e3403019 	movt	r3, #25
    a2c0:	e5d33000 	ldrb	r3, [r3]
    a2c4:	e3530000 	cmp	r3, #0
    a2c8:	0a000004 	beq	a2e0 <OSMboxDel+0x70>
    a2cc:	e51b3020 	ldr	r3, [fp, #-32]	; 0xffffffe0
    a2d0:	e3a0200f 	mov	r2, #15
    a2d4:	e5c32000 	strb	r2, [r3]
    a2d8:	e51b3018 	ldr	r3, [fp, #-24]	; 0xffffffe8
    a2dc:	ea000069 	b	a488 <OSMboxDel+0x218>
    a2e0:	eb0013f2 	bl	f2b0 <OS_CPU_SR_Save>
    a2e4:	e50b0010 	str	r0, [fp, #-16]
    a2e8:	e51b3018 	ldr	r3, [fp, #-24]	; 0xffffffe8
    a2ec:	e5d3300a 	ldrb	r3, [r3, #10]
    a2f0:	e3530000 	cmp	r3, #0
    a2f4:	0a000002 	beq	a304 <OSMboxDel+0x94>
    a2f8:	e3a03001 	mov	r3, #1
    a2fc:	e54b3005 	strb	r3, [fp, #-5]
    a300:	ea000001 	b	a30c <OSMboxDel+0x9c>
    a304:	e3a03000 	mov	r3, #0
    a308:	e54b3005 	strb	r3, [fp, #-5]
    a30c:	e55b3019 	ldrb	r3, [fp, #-25]	; 0xffffffe7
    a310:	e3530000 	cmp	r3, #0
    a314:	0a000002 	beq	a324 <OSMboxDel+0xb4>
    a318:	e3530001 	cmp	r3, #1
    a31c:	0a00002c 	beq	a3d4 <OSMboxDel+0x164>
    a320:	ea00004f 	b	a464 <OSMboxDel+0x1f4>
    a324:	e55b3005 	ldrb	r3, [fp, #-5]
    a328:	e3530000 	cmp	r3, #0
    a32c:	1a00001a 	bne	a39c <OSMboxDel+0x12c>
    a330:	e51b2018 	ldr	r2, [fp, #-24]	; 0xffffffe8
    a334:	e3073740 	movw	r3, #30528	; 0x7740
    a338:	e3403001 	movt	r3, #1
    a33c:	e5823014 	str	r3, [r2, #20]
    a340:	e51b3018 	ldr	r3, [fp, #-24]	; 0xffffffe8
    a344:	e3a02000 	mov	r2, #0
    a348:	e5c32000 	strb	r2, [r3]
    a34c:	e30a3f9c 	movw	r3, #44956	; 0xaf9c
    a350:	e3403019 	movt	r3, #25
    a354:	e5932000 	ldr	r2, [r3]
    a358:	e51b3018 	ldr	r3, [fp, #-24]	; 0xffffffe8
    a35c:	e5832004 	str	r2, [r3, #4]
    a360:	e51b3018 	ldr	r3, [fp, #-24]	; 0xffffffe8
    a364:	e3a02000 	mov	r2, #0
    a368:	e1c320b8 	strh	r2, [r3, #8]
    a36c:	e30a3f9c 	movw	r3, #44956	; 0xaf9c
    a370:	e3403019 	movt	r3, #25
    a374:	e51b2018 	ldr	r2, [fp, #-24]	; 0xffffffe8
    a378:	e5832000 	str	r2, [r3]
    a37c:	e51b0010 	ldr	r0, [fp, #-16]
    a380:	eb0013dd 	bl	f2fc <OS_CPU_SR_Restore>
    a384:	e51b3020 	ldr	r3, [fp, #-32]	; 0xffffffe0
    a388:	e3a02000 	mov	r2, #0
    a38c:	e5c32000 	strb	r2, [r3]
    a390:	e3a03000 	mov	r3, #0
    a394:	e50b300c 	str	r3, [fp, #-12]
    a398:	ea000039 	b	a484 <OSMboxDel+0x214>
    a39c:	e51b0010 	ldr	r0, [fp, #-16]
    a3a0:	eb0013d5 	bl	f2fc <OS_CPU_SR_Restore>
    a3a4:	e51b3020 	ldr	r3, [fp, #-32]	; 0xffffffe0
    a3a8:	e3a02049 	mov	r2, #73	; 0x49
    a3ac:	e5c32000 	strb	r2, [r3]
    a3b0:	e51b3018 	ldr	r3, [fp, #-24]	; 0xffffffe8
    a3b4:	e50b300c 	str	r3, [fp, #-12]
    a3b8:	ea000031 	b	a484 <OSMboxDel+0x214>
    a3bc:	e51b0018 	ldr	r0, [fp, #-24]	; 0xffffffe8
    a3c0:	e3a01000 	mov	r1, #0
    a3c4:	e3a02002 	mov	r2, #2
    a3c8:	e3a03002 	mov	r3, #2
    a3cc:	ebfffaf5 	bl	8fa8 <OS_EventTaskRdy>
    a3d0:	ea000000 	b	a3d8 <OSMboxDel+0x168>
    a3d4:	e1a00000 	nop			; (mov r0, r0)
    a3d8:	e51b3018 	ldr	r3, [fp, #-24]	; 0xffffffe8
    a3dc:	e5d3300a 	ldrb	r3, [r3, #10]
    a3e0:	e3530000 	cmp	r3, #0
    a3e4:	1afffff4 	bne	a3bc <OSMboxDel+0x14c>
    a3e8:	e51b2018 	ldr	r2, [fp, #-24]	; 0xffffffe8
    a3ec:	e3073740 	movw	r3, #30528	; 0x7740
    a3f0:	e3403001 	movt	r3, #1
    a3f4:	e5823014 	str	r3, [r2, #20]
    a3f8:	e51b3018 	ldr	r3, [fp, #-24]	; 0xffffffe8
    a3fc:	e3a02000 	mov	r2, #0
    a400:	e5c32000 	strb	r2, [r3]
    a404:	e30a3f9c 	movw	r3, #44956	; 0xaf9c
    a408:	e3403019 	movt	r3, #25
    a40c:	e5932000 	ldr	r2, [r3]
    a410:	e51b3018 	ldr	r3, [fp, #-24]	; 0xffffffe8
    a414:	e5832004 	str	r2, [r3, #4]
    a418:	e51b3018 	ldr	r3, [fp, #-24]	; 0xffffffe8
    a41c:	e3a02000 	mov	r2, #0
    a420:	e1c320b8 	strh	r2, [r3, #8]
    a424:	e30a3f9c 	movw	r3, #44956	; 0xaf9c
    a428:	e3403019 	movt	r3, #25
    a42c:	e51b2018 	ldr	r2, [fp, #-24]	; 0xffffffe8
    a430:	e5832000 	str	r2, [r3]
    a434:	e51b0010 	ldr	r0, [fp, #-16]
    a438:	eb0013af 	bl	f2fc <OS_CPU_SR_Restore>
    a43c:	e55b3005 	ldrb	r3, [fp, #-5]
    a440:	e3530001 	cmp	r3, #1
    a444:	1a000000 	bne	a44c <OSMboxDel+0x1dc>
    a448:	ebfffdba 	bl	9b38 <OS_Sched>
    a44c:	e51b3020 	ldr	r3, [fp, #-32]	; 0xffffffe0
    a450:	e3a02000 	mov	r2, #0
    a454:	e5c32000 	strb	r2, [r3]
    a458:	e3a03000 	mov	r3, #0
    a45c:	e50b300c 	str	r3, [fp, #-12]
    a460:	ea000007 	b	a484 <OSMboxDel+0x214>
    a464:	e51b0010 	ldr	r0, [fp, #-16]
    a468:	eb0013a3 	bl	f2fc <OS_CPU_SR_Restore>
    a46c:	e51b3020 	ldr	r3, [fp, #-32]	; 0xffffffe0
    a470:	e3a02007 	mov	r2, #7
    a474:	e5c32000 	strb	r2, [r3]
    a478:	e51b3018 	ldr	r3, [fp, #-24]	; 0xffffffe8
    a47c:	e50b300c 	str	r3, [fp, #-12]
    a480:	e1a00000 	nop			; (mov r0, r0)
    a484:	e51b300c 	ldr	r3, [fp, #-12]
    a488:	e1a00003 	mov	r0, r3
    a48c:	e24bd004 	sub	sp, fp, #4
    a490:	e8bd8800 	pop	{fp, pc}

0000a494 <OSMboxPend>:
    a494:	e92d4800 	push	{fp, lr}
    a498:	e28db004 	add	fp, sp, #4
    a49c:	e24dd018 	sub	sp, sp, #24
    a4a0:	e50b0010 	str	r0, [fp, #-16]
    a4a4:	e50b1014 	str	r1, [fp, #-20]	; 0xffffffec
    a4a8:	e50b2018 	str	r2, [fp, #-24]	; 0xffffffe8
    a4ac:	e3a03000 	mov	r3, #0
    a4b0:	e50b300c 	str	r3, [fp, #-12]
    a4b4:	e51b3010 	ldr	r3, [fp, #-16]
    a4b8:	e5d33000 	ldrb	r3, [r3]
    a4bc:	e3530001 	cmp	r3, #1
    a4c0:	0a000004 	beq	a4d8 <OSMboxPend+0x44>
    a4c4:	e51b3018 	ldr	r3, [fp, #-24]	; 0xffffffe8
    a4c8:	e3a02001 	mov	r2, #1
    a4cc:	e5c32000 	strb	r2, [r3]
    a4d0:	e3a03000 	mov	r3, #0
    a4d4:	ea000080 	b	a6dc <OSMboxPend+0x248>
    a4d8:	e30a3fa0 	movw	r3, #44960	; 0xafa0
    a4dc:	e3403019 	movt	r3, #25
    a4e0:	e5d33000 	ldrb	r3, [r3]
    a4e4:	e3530000 	cmp	r3, #0
    a4e8:	0a000004 	beq	a500 <OSMboxPend+0x6c>
    a4ec:	e51b3018 	ldr	r3, [fp, #-24]	; 0xffffffe8
    a4f0:	e3a02002 	mov	r2, #2
    a4f4:	e5c32000 	strb	r2, [r3]
    a4f8:	e3a03000 	mov	r3, #0
    a4fc:	ea000076 	b	a6dc <OSMboxPend+0x248>
    a500:	e30a3e8c 	movw	r3, #44684	; 0xae8c
    a504:	e3403019 	movt	r3, #25
    a508:	e5d33000 	ldrb	r3, [r3]
    a50c:	e3530000 	cmp	r3, #0
    a510:	0a000004 	beq	a528 <OSMboxPend+0x94>
    a514:	e51b3018 	ldr	r3, [fp, #-24]	; 0xffffffe8
    a518:	e3a0200d 	mov	r2, #13
    a51c:	e5c32000 	strb	r2, [r3]
    a520:	e3a03000 	mov	r3, #0
    a524:	ea00006c 	b	a6dc <OSMboxPend+0x248>
    a528:	eb001360 	bl	f2b0 <OS_CPU_SR_Save>
    a52c:	e50b000c 	str	r0, [fp, #-12]
    a530:	e51b3010 	ldr	r3, [fp, #-16]
    a534:	e5933004 	ldr	r3, [r3, #4]
    a538:	e50b3008 	str	r3, [fp, #-8]
    a53c:	e51b3008 	ldr	r3, [fp, #-8]
    a540:	e3530000 	cmp	r3, #0
    a544:	0a000009 	beq	a570 <OSMboxPend+0xdc>
    a548:	e51b3010 	ldr	r3, [fp, #-16]
    a54c:	e3a02000 	mov	r2, #0
    a550:	e5832004 	str	r2, [r3, #4]
    a554:	e51b000c 	ldr	r0, [fp, #-12]
    a558:	eb001367 	bl	f2fc <OS_CPU_SR_Restore>
    a55c:	e51b3018 	ldr	r3, [fp, #-24]	; 0xffffffe8
    a560:	e3a02000 	mov	r2, #0
    a564:	e5c32000 	strb	r2, [r3]
    a568:	e51b3008 	ldr	r3, [fp, #-8]
    a56c:	ea00005a 	b	a6dc <OSMboxPend+0x248>
    a570:	e30a3fa4 	movw	r3, #44964	; 0xafa4
    a574:	e3403019 	movt	r3, #25
    a578:	e5932000 	ldr	r2, [r3]
    a57c:	e30a3fa4 	movw	r3, #44964	; 0xafa4
    a580:	e3403019 	movt	r3, #25
    a584:	e5933000 	ldr	r3, [r3]
    a588:	e5d3302c 	ldrb	r3, [r3, #44]	; 0x2c
    a58c:	e3833002 	orr	r3, r3, #2
    a590:	e6ef3073 	uxtb	r3, r3
    a594:	e5c2302c 	strb	r3, [r2, #44]	; 0x2c
    a598:	e30a3fa4 	movw	r3, #44964	; 0xafa4
    a59c:	e3403019 	movt	r3, #25
    a5a0:	e5933000 	ldr	r3, [r3]
    a5a4:	e3a02000 	mov	r2, #0
    a5a8:	e5c3202d 	strb	r2, [r3, #45]	; 0x2d
    a5ac:	e30a3fa4 	movw	r3, #44964	; 0xafa4
    a5b0:	e3403019 	movt	r3, #25
    a5b4:	e5933000 	ldr	r3, [r3]
    a5b8:	e51b2014 	ldr	r2, [fp, #-20]	; 0xffffffec
    a5bc:	e5832028 	str	r2, [r3, #40]	; 0x28
    a5c0:	e51b0010 	ldr	r0, [fp, #-16]
    a5c4:	ebfffadb 	bl	9138 <OS_EventTaskWait>
    a5c8:	e51b000c 	ldr	r0, [fp, #-12]
    a5cc:	eb00134a 	bl	f2fc <OS_CPU_SR_Restore>
    a5d0:	ebfffd58 	bl	9b38 <OS_Sched>
    a5d4:	eb001335 	bl	f2b0 <OS_CPU_SR_Save>
    a5d8:	e50b000c 	str	r0, [fp, #-12]
    a5dc:	e30a3fa4 	movw	r3, #44964	; 0xafa4
    a5e0:	e3403019 	movt	r3, #25
    a5e4:	e5933000 	ldr	r3, [r3]
    a5e8:	e5d3302d 	ldrb	r3, [r3, #45]	; 0x2d
    a5ec:	e3530000 	cmp	r3, #0
    a5f0:	0a000002 	beq	a600 <OSMboxPend+0x16c>
    a5f4:	e3530002 	cmp	r3, #2
    a5f8:	0a000009 	beq	a624 <OSMboxPend+0x190>
    a5fc:	ea00000e 	b	a63c <OSMboxPend+0x1a8>
    a600:	e30a3fa4 	movw	r3, #44964	; 0xafa4
    a604:	e3403019 	movt	r3, #25
    a608:	e5933000 	ldr	r3, [r3]
    a60c:	e5933024 	ldr	r3, [r3, #36]	; 0x24
    a610:	e50b3008 	str	r3, [fp, #-8]
    a614:	e51b3018 	ldr	r3, [fp, #-24]	; 0xffffffe8
    a618:	e3a02000 	mov	r2, #0
    a61c:	e5c32000 	strb	r2, [r3]
    a620:	ea000011 	b	a66c <OSMboxPend+0x1d8>
    a624:	e3a03000 	mov	r3, #0
    a628:	e50b3008 	str	r3, [fp, #-8]
    a62c:	e51b3018 	ldr	r3, [fp, #-24]	; 0xffffffe8
    a630:	e3a0200e 	mov	r2, #14
    a634:	e5c32000 	strb	r2, [r3]
    a638:	ea00000b 	b	a66c <OSMboxPend+0x1d8>
    a63c:	e30a3fa4 	movw	r3, #44964	; 0xafa4
    a640:	e3403019 	movt	r3, #25
    a644:	e5933000 	ldr	r3, [r3]
    a648:	e1a00003 	mov	r0, r3
    a64c:	e51b1010 	ldr	r1, [fp, #-16]
    a650:	ebfffb7e 	bl	9450 <OS_EventTaskRemove>
    a654:	e3a03000 	mov	r3, #0
    a658:	e50b3008 	str	r3, [fp, #-8]
    a65c:	e51b3018 	ldr	r3, [fp, #-24]	; 0xffffffe8
    a660:	e3a0200a 	mov	r2, #10
    a664:	e5c32000 	strb	r2, [r3]
    a668:	e1a00000 	nop			; (mov r0, r0)
    a66c:	e30a3fa4 	movw	r3, #44964	; 0xafa4
    a670:	e3403019 	movt	r3, #25
    a674:	e5933000 	ldr	r3, [r3]
    a678:	e3a02000 	mov	r2, #0
    a67c:	e5c3202c 	strb	r2, [r3, #44]	; 0x2c
    a680:	e30a3fa4 	movw	r3, #44964	; 0xafa4
    a684:	e3403019 	movt	r3, #25
    a688:	e5933000 	ldr	r3, [r3]
    a68c:	e3a02000 	mov	r2, #0
    a690:	e5c3202d 	strb	r2, [r3, #45]	; 0x2d
    a694:	e30a3fa4 	movw	r3, #44964	; 0xafa4
    a698:	e3403019 	movt	r3, #25
    a69c:	e5933000 	ldr	r3, [r3]
    a6a0:	e3a02000 	mov	r2, #0
    a6a4:	e583201c 	str	r2, [r3, #28]
    a6a8:	e30a3fa4 	movw	r3, #44964	; 0xafa4
    a6ac:	e3403019 	movt	r3, #25
    a6b0:	e5933000 	ldr	r3, [r3]
    a6b4:	e3a02000 	mov	r2, #0
    a6b8:	e5832020 	str	r2, [r3, #32]
    a6bc:	e30a3fa4 	movw	r3, #44964	; 0xafa4
    a6c0:	e3403019 	movt	r3, #25
    a6c4:	e5933000 	ldr	r3, [r3]
    a6c8:	e3a02000 	mov	r2, #0
    a6cc:	e5832024 	str	r2, [r3, #36]	; 0x24
    a6d0:	e51b000c 	ldr	r0, [fp, #-12]
    a6d4:	eb001308 	bl	f2fc <OS_CPU_SR_Restore>
    a6d8:	e51b3008 	ldr	r3, [fp, #-8]
    a6dc:	e1a00003 	mov	r0, r3
    a6e0:	e24bd004 	sub	sp, fp, #4
    a6e4:	e8bd8800 	pop	{fp, pc}

0000a6e8 <OSMboxPendAbort>:
    a6e8:	e92d4800 	push	{fp, lr}
    a6ec:	e28db004 	add	fp, sp, #4
    a6f0:	e24dd018 	sub	sp, sp, #24
    a6f4:	e50b0010 	str	r0, [fp, #-16]
    a6f8:	e1a03001 	mov	r3, r1
    a6fc:	e50b2018 	str	r2, [fp, #-24]	; 0xffffffe8
    a700:	e54b3011 	strb	r3, [fp, #-17]	; 0xffffffef
    a704:	e3a03000 	mov	r3, #0
    a708:	e50b300c 	str	r3, [fp, #-12]
    a70c:	e51b3010 	ldr	r3, [fp, #-16]
    a710:	e5d33000 	ldrb	r3, [r3]
    a714:	e3530001 	cmp	r3, #1
    a718:	0a000004 	beq	a730 <OSMboxPendAbort+0x48>
    a71c:	e51b3018 	ldr	r3, [fp, #-24]	; 0xffffffe8
    a720:	e3a02001 	mov	r2, #1
    a724:	e5c32000 	strb	r2, [r3]
    a728:	e3a03000 	mov	r3, #0
    a72c:	ea000031 	b	a7f8 <OSMboxPendAbort+0x110>
    a730:	eb0012de 	bl	f2b0 <OS_CPU_SR_Save>
    a734:	e50b000c 	str	r0, [fp, #-12]
    a738:	e51b3010 	ldr	r3, [fp, #-16]
    a73c:	e5d3300a 	ldrb	r3, [r3, #10]
    a740:	e3530000 	cmp	r3, #0
    a744:	0a000025 	beq	a7e0 <OSMboxPendAbort+0xf8>
    a748:	e3a03000 	mov	r3, #0
    a74c:	e54b3005 	strb	r3, [fp, #-5]
    a750:	e55b3011 	ldrb	r3, [fp, #-17]	; 0xffffffef
    a754:	e3530001 	cmp	r3, #1
    a758:	0a000009 	beq	a784 <OSMboxPendAbort+0x9c>
    a75c:	ea00000e 	b	a79c <OSMboxPendAbort+0xb4>
    a760:	e51b0010 	ldr	r0, [fp, #-16]
    a764:	e3a01000 	mov	r1, #0
    a768:	e3a02002 	mov	r2, #2
    a76c:	e3a03002 	mov	r3, #2
    a770:	ebfffa0c 	bl	8fa8 <OS_EventTaskRdy>
    a774:	e55b3005 	ldrb	r3, [fp, #-5]
    a778:	e2833001 	add	r3, r3, #1
    a77c:	e54b3005 	strb	r3, [fp, #-5]
    a780:	ea000000 	b	a788 <OSMboxPendAbort+0xa0>
    a784:	e1a00000 	nop			; (mov r0, r0)
    a788:	e51b3010 	ldr	r3, [fp, #-16]
    a78c:	e5d3300a 	ldrb	r3, [r3, #10]
    a790:	e3530000 	cmp	r3, #0
    a794:	1afffff1 	bne	a760 <OSMboxPendAbort+0x78>
    a798:	ea000008 	b	a7c0 <OSMboxPendAbort+0xd8>
    a79c:	e51b0010 	ldr	r0, [fp, #-16]
    a7a0:	e3a01000 	mov	r1, #0
    a7a4:	e3a02002 	mov	r2, #2
    a7a8:	e3a03002 	mov	r3, #2
    a7ac:	ebfff9fd 	bl	8fa8 <OS_EventTaskRdy>
    a7b0:	e55b3005 	ldrb	r3, [fp, #-5]
    a7b4:	e2833001 	add	r3, r3, #1
    a7b8:	e54b3005 	strb	r3, [fp, #-5]
    a7bc:	e1a00000 	nop			; (mov r0, r0)
    a7c0:	e51b000c 	ldr	r0, [fp, #-12]
    a7c4:	eb0012cc 	bl	f2fc <OS_CPU_SR_Restore>
    a7c8:	ebfffcda 	bl	9b38 <OS_Sched>
    a7cc:	e51b3018 	ldr	r3, [fp, #-24]	; 0xffffffe8
    a7d0:	e3a0200e 	mov	r2, #14
    a7d4:	e5c32000 	strb	r2, [r3]
    a7d8:	e55b3005 	ldrb	r3, [fp, #-5]
    a7dc:	ea000005 	b	a7f8 <OSMboxPendAbort+0x110>
    a7e0:	e51b000c 	ldr	r0, [fp, #-12]
    a7e4:	eb0012c4 	bl	f2fc <OS_CPU_SR_Restore>
    a7e8:	e51b3018 	ldr	r3, [fp, #-24]	; 0xffffffe8
    a7ec:	e3a02000 	mov	r2, #0
    a7f0:	e5c32000 	strb	r2, [r3]
    a7f4:	e3a03000 	mov	r3, #0
    a7f8:	e1a00003 	mov	r0, r3
    a7fc:	e24bd004 	sub	sp, fp, #4
    a800:	e8bd8800 	pop	{fp, pc}

0000a804 <OSMboxPost>:
    a804:	e92d4800 	push	{fp, lr}
    a808:	e28db004 	add	fp, sp, #4
    a80c:	e24dd010 	sub	sp, sp, #16
    a810:	e50b0010 	str	r0, [fp, #-16]
    a814:	e50b1014 	str	r1, [fp, #-20]	; 0xffffffec
    a818:	e3a03000 	mov	r3, #0
    a81c:	e50b3008 	str	r3, [fp, #-8]
    a820:	e51b3010 	ldr	r3, [fp, #-16]
    a824:	e5d33000 	ldrb	r3, [r3]
    a828:	e3530001 	cmp	r3, #1
    a82c:	0a000001 	beq	a838 <OSMboxPost+0x34>
    a830:	e3a03001 	mov	r3, #1
    a834:	ea00001d 	b	a8b0 <OSMboxPost+0xac>
    a838:	eb00129c 	bl	f2b0 <OS_CPU_SR_Save>
    a83c:	e50b0008 	str	r0, [fp, #-8]
    a840:	e51b3010 	ldr	r3, [fp, #-16]
    a844:	e5d3300a 	ldrb	r3, [r3, #10]
    a848:	e3530000 	cmp	r3, #0
    a84c:	0a000009 	beq	a878 <OSMboxPost+0x74>
    a850:	e51b0010 	ldr	r0, [fp, #-16]
    a854:	e51b1014 	ldr	r1, [fp, #-20]	; 0xffffffec
    a858:	e3a02002 	mov	r2, #2
    a85c:	e3a03000 	mov	r3, #0
    a860:	ebfff9d0 	bl	8fa8 <OS_EventTaskRdy>
    a864:	e51b0008 	ldr	r0, [fp, #-8]
    a868:	eb0012a3 	bl	f2fc <OS_CPU_SR_Restore>
    a86c:	ebfffcb1 	bl	9b38 <OS_Sched>
    a870:	e3a03000 	mov	r3, #0
    a874:	ea00000d 	b	a8b0 <OSMboxPost+0xac>
    a878:	e51b3010 	ldr	r3, [fp, #-16]
    a87c:	e5933004 	ldr	r3, [r3, #4]
    a880:	e3530000 	cmp	r3, #0
    a884:	0a000003 	beq	a898 <OSMboxPost+0x94>
    a888:	e51b0008 	ldr	r0, [fp, #-8]
    a88c:	eb00129a 	bl	f2fc <OS_CPU_SR_Restore>
    a890:	e3a03014 	mov	r3, #20
    a894:	ea000005 	b	a8b0 <OSMboxPost+0xac>
    a898:	e51b3010 	ldr	r3, [fp, #-16]
    a89c:	e51b2014 	ldr	r2, [fp, #-20]	; 0xffffffec
    a8a0:	e5832004 	str	r2, [r3, #4]
    a8a4:	e51b0008 	ldr	r0, [fp, #-8]
    a8a8:	eb001293 	bl	f2fc <OS_CPU_SR_Restore>
    a8ac:	e3a03000 	mov	r3, #0
    a8b0:	e1a00003 	mov	r0, r3
    a8b4:	e24bd004 	sub	sp, fp, #4
    a8b8:	e8bd8800 	pop	{fp, pc}

0000a8bc <OSMboxPostOpt>:
    a8bc:	e92d4800 	push	{fp, lr}
    a8c0:	e28db004 	add	fp, sp, #4
    a8c4:	e24dd018 	sub	sp, sp, #24
    a8c8:	e50b0010 	str	r0, [fp, #-16]
    a8cc:	e50b1014 	str	r1, [fp, #-20]	; 0xffffffec
    a8d0:	e1a03002 	mov	r3, r2
    a8d4:	e54b3015 	strb	r3, [fp, #-21]	; 0xffffffeb
    a8d8:	e3a03000 	mov	r3, #0
    a8dc:	e50b3008 	str	r3, [fp, #-8]
    a8e0:	e51b3010 	ldr	r3, [fp, #-16]
    a8e4:	e5d33000 	ldrb	r3, [r3]
    a8e8:	e3530001 	cmp	r3, #1
    a8ec:	0a000001 	beq	a8f8 <OSMboxPostOpt+0x3c>
    a8f0:	e3a03001 	mov	r3, #1
    a8f4:	ea000030 	b	a9bc <OSMboxPostOpt+0x100>
    a8f8:	eb00126c 	bl	f2b0 <OS_CPU_SR_Save>
    a8fc:	e50b0008 	str	r0, [fp, #-8]
    a900:	e51b3010 	ldr	r3, [fp, #-16]
    a904:	e5d3300a 	ldrb	r3, [r3, #10]
    a908:	e3530000 	cmp	r3, #0
    a90c:	0a00001c 	beq	a984 <OSMboxPostOpt+0xc8>
    a910:	e55b3015 	ldrb	r3, [fp, #-21]	; 0xffffffeb
    a914:	e2033001 	and	r3, r3, #1
    a918:	e3530000 	cmp	r3, #0
    a91c:	0a00000a 	beq	a94c <OSMboxPostOpt+0x90>
    a920:	ea000004 	b	a938 <OSMboxPostOpt+0x7c>
    a924:	e51b0010 	ldr	r0, [fp, #-16]
    a928:	e51b1014 	ldr	r1, [fp, #-20]	; 0xffffffec
    a92c:	e3a02002 	mov	r2, #2
    a930:	e3a03000 	mov	r3, #0
    a934:	ebfff99b 	bl	8fa8 <OS_EventTaskRdy>
    a938:	e51b3010 	ldr	r3, [fp, #-16]
    a93c:	e5d3300a 	ldrb	r3, [r3, #10]
    a940:	e3530000 	cmp	r3, #0
    a944:	1afffff6 	bne	a924 <OSMboxPostOpt+0x68>
    a948:	ea000004 	b	a960 <OSMboxPostOpt+0xa4>
    a94c:	e51b0010 	ldr	r0, [fp, #-16]
    a950:	e51b1014 	ldr	r1, [fp, #-20]	; 0xffffffec
    a954:	e3a02002 	mov	r2, #2
    a958:	e3a03000 	mov	r3, #0
    a95c:	ebfff991 	bl	8fa8 <OS_EventTaskRdy>
    a960:	e51b0008 	ldr	r0, [fp, #-8]
    a964:	eb001264 	bl	f2fc <OS_CPU_SR_Restore>
    a968:	e55b3015 	ldrb	r3, [fp, #-21]	; 0xffffffeb
    a96c:	e2033004 	and	r3, r3, #4
    a970:	e3530000 	cmp	r3, #0
    a974:	1a000000 	bne	a97c <OSMboxPostOpt+0xc0>
    a978:	ebfffc6e 	bl	9b38 <OS_Sched>
    a97c:	e3a03000 	mov	r3, #0
    a980:	ea00000d 	b	a9bc <OSMboxPostOpt+0x100>
    a984:	e51b3010 	ldr	r3, [fp, #-16]
    a988:	e5933004 	ldr	r3, [r3, #4]
    a98c:	e3530000 	cmp	r3, #0
    a990:	0a000003 	beq	a9a4 <OSMboxPostOpt+0xe8>
    a994:	e51b0008 	ldr	r0, [fp, #-8]
    a998:	eb001257 	bl	f2fc <OS_CPU_SR_Restore>
    a99c:	e3a03014 	mov	r3, #20
    a9a0:	ea000005 	b	a9bc <OSMboxPostOpt+0x100>
    a9a4:	e51b3010 	ldr	r3, [fp, #-16]
    a9a8:	e51b2014 	ldr	r2, [fp, #-20]	; 0xffffffec
    a9ac:	e5832004 	str	r2, [r3, #4]
    a9b0:	e51b0008 	ldr	r0, [fp, #-8]
    a9b4:	eb001250 	bl	f2fc <OS_CPU_SR_Restore>
    a9b8:	e3a03000 	mov	r3, #0
    a9bc:	e1a00003 	mov	r0, r3
    a9c0:	e24bd004 	sub	sp, fp, #4
    a9c4:	e8bd8800 	pop	{fp, pc}

0000a9c8 <OSMboxQuery>:
    a9c8:	e92d4800 	push	{fp, lr}
    a9cc:	e28db004 	add	fp, sp, #4
    a9d0:	e24dd018 	sub	sp, sp, #24
    a9d4:	e50b0018 	str	r0, [fp, #-24]	; 0xffffffe8
    a9d8:	e50b101c 	str	r1, [fp, #-28]	; 0xffffffe4
    a9dc:	e3a03000 	mov	r3, #0
    a9e0:	e50b3014 	str	r3, [fp, #-20]	; 0xffffffec
    a9e4:	e51b3018 	ldr	r3, [fp, #-24]	; 0xffffffe8
    a9e8:	e5d33000 	ldrb	r3, [r3]
    a9ec:	e3530001 	cmp	r3, #1
    a9f0:	0a000001 	beq	a9fc <OSMboxQuery+0x34>
    a9f4:	e3a03001 	mov	r3, #1
    a9f8:	ea000025 	b	aa94 <OSMboxQuery+0xcc>
    a9fc:	eb00122b 	bl	f2b0 <OS_CPU_SR_Save>
    aa00:	e50b0014 	str	r0, [fp, #-20]	; 0xffffffec
    aa04:	e51b3018 	ldr	r3, [fp, #-24]	; 0xffffffe8
    aa08:	e5d3200a 	ldrb	r2, [r3, #10]
    aa0c:	e51b301c 	ldr	r3, [fp, #-28]	; 0xffffffe4
    aa10:	e5c3200c 	strb	r2, [r3, #12]
    aa14:	e51b3018 	ldr	r3, [fp, #-24]	; 0xffffffe8
    aa18:	e283300b 	add	r3, r3, #11
    aa1c:	e50b300c 	str	r3, [fp, #-12]
    aa20:	e51b301c 	ldr	r3, [fp, #-28]	; 0xffffffe4
    aa24:	e2833004 	add	r3, r3, #4
    aa28:	e50b3010 	str	r3, [fp, #-16]
    aa2c:	e3a03000 	mov	r3, #0
    aa30:	e54b3005 	strb	r3, [fp, #-5]
    aa34:	ea00000c 	b	aa6c <OSMboxQuery+0xa4>
    aa38:	e51b300c 	ldr	r3, [fp, #-12]
    aa3c:	e5d32000 	ldrb	r2, [r3]
    aa40:	e51b3010 	ldr	r3, [fp, #-16]
    aa44:	e5c32000 	strb	r2, [r3]
    aa48:	e51b3010 	ldr	r3, [fp, #-16]
    aa4c:	e2833001 	add	r3, r3, #1
    aa50:	e50b3010 	str	r3, [fp, #-16]
    aa54:	e51b300c 	ldr	r3, [fp, #-12]
    aa58:	e2833001 	add	r3, r3, #1
    aa5c:	e50b300c 	str	r3, [fp, #-12]
    aa60:	e55b3005 	ldrb	r3, [fp, #-5]
    aa64:	e2833001 	add	r3, r3, #1
    aa68:	e54b3005 	strb	r3, [fp, #-5]
    aa6c:	e55b3005 	ldrb	r3, [fp, #-5]
    aa70:	e3530007 	cmp	r3, #7
    aa74:	9affffef 	bls	aa38 <OSMboxQuery+0x70>
    aa78:	e51b3018 	ldr	r3, [fp, #-24]	; 0xffffffe8
    aa7c:	e5932004 	ldr	r2, [r3, #4]
    aa80:	e51b301c 	ldr	r3, [fp, #-28]	; 0xffffffe4
    aa84:	e5832000 	str	r2, [r3]
    aa88:	e51b0014 	ldr	r0, [fp, #-20]	; 0xffffffec
    aa8c:	eb00121a 	bl	f2fc <OS_CPU_SR_Restore>
    aa90:	e3a03000 	mov	r3, #0
    aa94:	e1a00003 	mov	r0, r3
    aa98:	e24bd004 	sub	sp, fp, #4
    aa9c:	e8bd8800 	pop	{fp, pc}

0000aaa0 <OSMemCreate>:
    aaa0:	e92d4800 	push	{fp, lr}
    aaa4:	e28db004 	add	fp, sp, #4
    aaa8:	e24dd028 	sub	sp, sp, #40	; 0x28
    aaac:	e50b0020 	str	r0, [fp, #-32]	; 0xffffffe0
    aab0:	e50b1024 	str	r1, [fp, #-36]	; 0xffffffdc
    aab4:	e50b2028 	str	r2, [fp, #-40]	; 0xffffffd8
    aab8:	e50b302c 	str	r3, [fp, #-44]	; 0xffffffd4
    aabc:	e3a03000 	mov	r3, #0
    aac0:	e50b3014 	str	r3, [fp, #-20]	; 0xffffffec
    aac4:	eb0011f9 	bl	f2b0 <OS_CPU_SR_Save>
    aac8:	e50b0014 	str	r0, [fp, #-20]	; 0xffffffec
    aacc:	e30a3f24 	movw	r3, #44836	; 0xaf24
    aad0:	e3403019 	movt	r3, #25
    aad4:	e5933000 	ldr	r3, [r3]
    aad8:	e50b3018 	str	r3, [fp, #-24]	; 0xffffffe8
    aadc:	e30a3f24 	movw	r3, #44836	; 0xaf24
    aae0:	e3403019 	movt	r3, #25
    aae4:	e5933000 	ldr	r3, [r3]
    aae8:	e3530000 	cmp	r3, #0
    aaec:	0a000006 	beq	ab0c <OSMemCreate+0x6c>
    aaf0:	e30a3f24 	movw	r3, #44836	; 0xaf24
    aaf4:	e3403019 	movt	r3, #25
    aaf8:	e5933000 	ldr	r3, [r3]
    aafc:	e5932004 	ldr	r2, [r3, #4]
    ab00:	e30a3f24 	movw	r3, #44836	; 0xaf24
    ab04:	e3403019 	movt	r3, #25
    ab08:	e5832000 	str	r2, [r3]
    ab0c:	e51b0014 	ldr	r0, [fp, #-20]	; 0xffffffec
    ab10:	eb0011f9 	bl	f2fc <OS_CPU_SR_Restore>
    ab14:	e51b3018 	ldr	r3, [fp, #-24]	; 0xffffffe8
    ab18:	e3530000 	cmp	r3, #0
    ab1c:	1a000004 	bne	ab34 <OSMemCreate+0x94>
    ab20:	e51b302c 	ldr	r3, [fp, #-44]	; 0xffffffd4
    ab24:	e3a0205a 	mov	r2, #90	; 0x5a
    ab28:	e5c32000 	strb	r2, [r3]
    ab2c:	e3a03000 	mov	r3, #0
    ab30:	ea00002f 	b	abf4 <OSMemCreate+0x154>
    ab34:	e51b3020 	ldr	r3, [fp, #-32]	; 0xffffffe0
    ab38:	e50b300c 	str	r3, [fp, #-12]
    ab3c:	e51b3020 	ldr	r3, [fp, #-32]	; 0xffffffe0
    ab40:	e50b3008 	str	r3, [fp, #-8]
    ab44:	e51b3024 	ldr	r3, [fp, #-36]	; 0xffffffdc
    ab48:	e2433001 	sub	r3, r3, #1
    ab4c:	e50b301c 	str	r3, [fp, #-28]	; 0xffffffe4
    ab50:	e3a03000 	mov	r3, #0
    ab54:	e50b3010 	str	r3, [fp, #-16]
    ab58:	ea00000b 	b	ab8c <OSMemCreate+0xec>
    ab5c:	e51b2008 	ldr	r2, [fp, #-8]
    ab60:	e51b3028 	ldr	r3, [fp, #-40]	; 0xffffffd8
    ab64:	e0823003 	add	r3, r2, r3
    ab68:	e50b3008 	str	r3, [fp, #-8]
    ab6c:	e51b300c 	ldr	r3, [fp, #-12]
    ab70:	e51b2008 	ldr	r2, [fp, #-8]
    ab74:	e5832000 	str	r2, [r3]
    ab78:	e51b3008 	ldr	r3, [fp, #-8]
    ab7c:	e50b300c 	str	r3, [fp, #-12]
    ab80:	e51b3010 	ldr	r3, [fp, #-16]
    ab84:	e2833001 	add	r3, r3, #1
    ab88:	e50b3010 	str	r3, [fp, #-16]
    ab8c:	e51b2010 	ldr	r2, [fp, #-16]
    ab90:	e51b301c 	ldr	r3, [fp, #-28]	; 0xffffffe4
    ab94:	e1520003 	cmp	r2, r3
    ab98:	3affffef 	bcc	ab5c <OSMemCreate+0xbc>
    ab9c:	e51b300c 	ldr	r3, [fp, #-12]
    aba0:	e3a02000 	mov	r2, #0
    aba4:	e5832000 	str	r2, [r3]
    aba8:	e51b3018 	ldr	r3, [fp, #-24]	; 0xffffffe8
    abac:	e51b2020 	ldr	r2, [fp, #-32]	; 0xffffffe0
    abb0:	e5832000 	str	r2, [r3]
    abb4:	e51b3018 	ldr	r3, [fp, #-24]	; 0xffffffe8
    abb8:	e51b2020 	ldr	r2, [fp, #-32]	; 0xffffffe0
    abbc:	e5832004 	str	r2, [r3, #4]
    abc0:	e51b3018 	ldr	r3, [fp, #-24]	; 0xffffffe8
    abc4:	e51b2024 	ldr	r2, [fp, #-36]	; 0xffffffdc
    abc8:	e5832010 	str	r2, [r3, #16]
    abcc:	e51b3018 	ldr	r3, [fp, #-24]	; 0xffffffe8
    abd0:	e51b2024 	ldr	r2, [fp, #-36]	; 0xffffffdc
    abd4:	e583200c 	str	r2, [r3, #12]
    abd8:	e51b3018 	ldr	r3, [fp, #-24]	; 0xffffffe8
    abdc:	e51b2028 	ldr	r2, [fp, #-40]	; 0xffffffd8
    abe0:	e5832008 	str	r2, [r3, #8]
    abe4:	e51b302c 	ldr	r3, [fp, #-44]	; 0xffffffd4
    abe8:	e3a02000 	mov	r2, #0
    abec:	e5c32000 	strb	r2, [r3]
    abf0:	e51b3018 	ldr	r3, [fp, #-24]	; 0xffffffe8
    abf4:	e1a00003 	mov	r0, r3
    abf8:	e24bd004 	sub	sp, fp, #4
    abfc:	e8bd8800 	pop	{fp, pc}

0000ac00 <OSMemGet>:
    ac00:	e92d4800 	push	{fp, lr}
    ac04:	e28db004 	add	fp, sp, #4
    ac08:	e24dd010 	sub	sp, sp, #16
    ac0c:	e50b0010 	str	r0, [fp, #-16]
    ac10:	e50b1014 	str	r1, [fp, #-20]	; 0xffffffec
    ac14:	e3a03000 	mov	r3, #0
    ac18:	e50b3008 	str	r3, [fp, #-8]
    ac1c:	eb0011a3 	bl	f2b0 <OS_CPU_SR_Save>
    ac20:	e50b0008 	str	r0, [fp, #-8]
    ac24:	e51b3010 	ldr	r3, [fp, #-16]
    ac28:	e5933010 	ldr	r3, [r3, #16]
    ac2c:	e3530000 	cmp	r3, #0
    ac30:	0a000012 	beq	ac80 <OSMemGet+0x80>
    ac34:	e51b3010 	ldr	r3, [fp, #-16]
    ac38:	e5933004 	ldr	r3, [r3, #4]
    ac3c:	e50b300c 	str	r3, [fp, #-12]
    ac40:	e51b300c 	ldr	r3, [fp, #-12]
    ac44:	e5932000 	ldr	r2, [r3]
    ac48:	e51b3010 	ldr	r3, [fp, #-16]
    ac4c:	e5832004 	str	r2, [r3, #4]
    ac50:	e51b3010 	ldr	r3, [fp, #-16]
    ac54:	e5933010 	ldr	r3, [r3, #16]
    ac58:	e2432001 	sub	r2, r3, #1
    ac5c:	e51b3010 	ldr	r3, [fp, #-16]
    ac60:	e5832010 	str	r2, [r3, #16]
    ac64:	e51b0008 	ldr	r0, [fp, #-8]
    ac68:	eb0011a3 	bl	f2fc <OS_CPU_SR_Restore>
    ac6c:	e51b3014 	ldr	r3, [fp, #-20]	; 0xffffffec
    ac70:	e3a02000 	mov	r2, #0
    ac74:	e5c32000 	strb	r2, [r3]
    ac78:	e51b300c 	ldr	r3, [fp, #-12]
    ac7c:	ea000005 	b	ac98 <OSMemGet+0x98>
    ac80:	e51b0008 	ldr	r0, [fp, #-8]
    ac84:	eb00119c 	bl	f2fc <OS_CPU_SR_Restore>
    ac88:	e51b3014 	ldr	r3, [fp, #-20]	; 0xffffffec
    ac8c:	e3a0205d 	mov	r2, #93	; 0x5d
    ac90:	e5c32000 	strb	r2, [r3]
    ac94:	e3a03000 	mov	r3, #0
    ac98:	e1a00003 	mov	r0, r3
    ac9c:	e24bd004 	sub	sp, fp, #4
    aca0:	e8bd8800 	pop	{fp, pc}

0000aca4 <OSMemNameGet>:
    aca4:	e92d4800 	push	{fp, lr}
    aca8:	e28db004 	add	fp, sp, #4
    acac:	e24dd018 	sub	sp, sp, #24
    acb0:	e50b0010 	str	r0, [fp, #-16]
    acb4:	e50b1014 	str	r1, [fp, #-20]	; 0xffffffec
    acb8:	e50b2018 	str	r2, [fp, #-24]	; 0xffffffe8
    acbc:	e3a03000 	mov	r3, #0
    acc0:	e50b3008 	str	r3, [fp, #-8]
    acc4:	e30a3fa0 	movw	r3, #44960	; 0xafa0
    acc8:	e3403019 	movt	r3, #25
    accc:	e5d33000 	ldrb	r3, [r3]
    acd0:	e3530000 	cmp	r3, #0
    acd4:	0a000004 	beq	acec <OSMemNameGet+0x48>
    acd8:	e51b3018 	ldr	r3, [fp, #-24]	; 0xffffffe8
    acdc:	e3a02011 	mov	r2, #17
    ace0:	e5c32000 	strb	r2, [r3]
    ace4:	e3a03000 	mov	r3, #0
    ace8:	ea000011 	b	ad34 <OSMemNameGet+0x90>
    acec:	eb00116f 	bl	f2b0 <OS_CPU_SR_Save>
    acf0:	e50b0008 	str	r0, [fp, #-8]
    acf4:	e51b3010 	ldr	r3, [fp, #-16]
    acf8:	e5932014 	ldr	r2, [r3, #20]
    acfc:	e51b3014 	ldr	r3, [fp, #-20]	; 0xffffffec
    ad00:	e5832000 	str	r2, [r3]
    ad04:	e51b3014 	ldr	r3, [fp, #-20]	; 0xffffffec
    ad08:	e5933000 	ldr	r3, [r3]
    ad0c:	e1a00003 	mov	r0, r3
    ad10:	ebfffbdc 	bl	9c88 <OS_StrLen>
    ad14:	e1a03000 	mov	r3, r0
    ad18:	e54b3009 	strb	r3, [fp, #-9]
    ad1c:	e51b0008 	ldr	r0, [fp, #-8]
    ad20:	eb001175 	bl	f2fc <OS_CPU_SR_Restore>
    ad24:	e51b3018 	ldr	r3, [fp, #-24]	; 0xffffffe8
    ad28:	e3a02000 	mov	r2, #0
    ad2c:	e5c32000 	strb	r2, [r3]
    ad30:	e55b3009 	ldrb	r3, [fp, #-9]
    ad34:	e1a00003 	mov	r0, r3
    ad38:	e24bd004 	sub	sp, fp, #4
    ad3c:	e8bd8800 	pop	{fp, pc}

0000ad40 <OSMemNameSet>:
    ad40:	e92d4800 	push	{fp, lr}
    ad44:	e28db004 	add	fp, sp, #4
    ad48:	e24dd018 	sub	sp, sp, #24
    ad4c:	e50b0010 	str	r0, [fp, #-16]
    ad50:	e50b1014 	str	r1, [fp, #-20]	; 0xffffffec
    ad54:	e50b2018 	str	r2, [fp, #-24]	; 0xffffffe8
    ad58:	e3a03000 	mov	r3, #0
    ad5c:	e50b3008 	str	r3, [fp, #-8]
    ad60:	e30a3fa0 	movw	r3, #44960	; 0xafa0
    ad64:	e3403019 	movt	r3, #25
    ad68:	e5d33000 	ldrb	r3, [r3]
    ad6c:	e3530000 	cmp	r3, #0
    ad70:	0a000003 	beq	ad84 <OSMemNameSet+0x44>
    ad74:	e51b3018 	ldr	r3, [fp, #-24]	; 0xffffffe8
    ad78:	e3a02012 	mov	r2, #18
    ad7c:	e5c32000 	strb	r2, [r3]
    ad80:	ea000009 	b	adac <OSMemNameSet+0x6c>
    ad84:	eb001149 	bl	f2b0 <OS_CPU_SR_Save>
    ad88:	e50b0008 	str	r0, [fp, #-8]
    ad8c:	e51b3010 	ldr	r3, [fp, #-16]
    ad90:	e51b2014 	ldr	r2, [fp, #-20]	; 0xffffffec
    ad94:	e5832014 	str	r2, [r3, #20]
    ad98:	e51b0008 	ldr	r0, [fp, #-8]
    ad9c:	eb001156 	bl	f2fc <OS_CPU_SR_Restore>
    ada0:	e51b3018 	ldr	r3, [fp, #-24]	; 0xffffffe8
    ada4:	e3a02000 	mov	r2, #0
    ada8:	e5c32000 	strb	r2, [r3]
    adac:	e24bd004 	sub	sp, fp, #4
    adb0:	e8bd8800 	pop	{fp, pc}

0000adb4 <OSMemPut>:
    adb4:	e92d4800 	push	{fp, lr}
    adb8:	e28db004 	add	fp, sp, #4
    adbc:	e24dd010 	sub	sp, sp, #16
    adc0:	e50b0010 	str	r0, [fp, #-16]
    adc4:	e50b1014 	str	r1, [fp, #-20]	; 0xffffffec
    adc8:	e3a03000 	mov	r3, #0
    adcc:	e50b3008 	str	r3, [fp, #-8]
    add0:	eb001136 	bl	f2b0 <OS_CPU_SR_Save>
    add4:	e50b0008 	str	r0, [fp, #-8]
    add8:	e51b3010 	ldr	r3, [fp, #-16]
    addc:	e5932010 	ldr	r2, [r3, #16]
    ade0:	e51b3010 	ldr	r3, [fp, #-16]
    ade4:	e593300c 	ldr	r3, [r3, #12]
    ade8:	e1520003 	cmp	r2, r3
    adec:	3a000003 	bcc	ae00 <OSMemPut+0x4c>
    adf0:	e51b0008 	ldr	r0, [fp, #-8]
    adf4:	eb001140 	bl	f2fc <OS_CPU_SR_Restore>
    adf8:	e3a0305e 	mov	r3, #94	; 0x5e
    adfc:	ea00000e 	b	ae3c <OSMemPut+0x88>
    ae00:	e51b3010 	ldr	r3, [fp, #-16]
    ae04:	e5932004 	ldr	r2, [r3, #4]
    ae08:	e51b3014 	ldr	r3, [fp, #-20]	; 0xffffffec
    ae0c:	e5832000 	str	r2, [r3]
    ae10:	e51b3010 	ldr	r3, [fp, #-16]
    ae14:	e51b2014 	ldr	r2, [fp, #-20]	; 0xffffffec
    ae18:	e5832004 	str	r2, [r3, #4]
    ae1c:	e51b3010 	ldr	r3, [fp, #-16]
    ae20:	e5933010 	ldr	r3, [r3, #16]
    ae24:	e2832001 	add	r2, r3, #1
    ae28:	e51b3010 	ldr	r3, [fp, #-16]
    ae2c:	e5832010 	str	r2, [r3, #16]
    ae30:	e51b0008 	ldr	r0, [fp, #-8]
    ae34:	eb001130 	bl	f2fc <OS_CPU_SR_Restore>
    ae38:	e3a03000 	mov	r3, #0
    ae3c:	e1a00003 	mov	r0, r3
    ae40:	e24bd004 	sub	sp, fp, #4
    ae44:	e8bd8800 	pop	{fp, pc}

0000ae48 <OSMemQuery>:
    ae48:	e92d4800 	push	{fp, lr}
    ae4c:	e28db004 	add	fp, sp, #4
    ae50:	e24dd010 	sub	sp, sp, #16
    ae54:	e50b0010 	str	r0, [fp, #-16]
    ae58:	e50b1014 	str	r1, [fp, #-20]	; 0xffffffec
    ae5c:	e3a03000 	mov	r3, #0
    ae60:	e50b3008 	str	r3, [fp, #-8]
    ae64:	eb001111 	bl	f2b0 <OS_CPU_SR_Save>
    ae68:	e50b0008 	str	r0, [fp, #-8]
    ae6c:	e51b3010 	ldr	r3, [fp, #-16]
    ae70:	e5932000 	ldr	r2, [r3]
    ae74:	e51b3014 	ldr	r3, [fp, #-20]	; 0xffffffec
    ae78:	e5832000 	str	r2, [r3]
    ae7c:	e51b3010 	ldr	r3, [fp, #-16]
    ae80:	e5932004 	ldr	r2, [r3, #4]
    ae84:	e51b3014 	ldr	r3, [fp, #-20]	; 0xffffffec
    ae88:	e5832004 	str	r2, [r3, #4]
    ae8c:	e51b3010 	ldr	r3, [fp, #-16]
    ae90:	e5932008 	ldr	r2, [r3, #8]
    ae94:	e51b3014 	ldr	r3, [fp, #-20]	; 0xffffffec
    ae98:	e5832008 	str	r2, [r3, #8]
    ae9c:	e51b3010 	ldr	r3, [fp, #-16]
    aea0:	e593200c 	ldr	r2, [r3, #12]
    aea4:	e51b3014 	ldr	r3, [fp, #-20]	; 0xffffffec
    aea8:	e583200c 	str	r2, [r3, #12]
    aeac:	e51b3010 	ldr	r3, [fp, #-16]
    aeb0:	e5932010 	ldr	r2, [r3, #16]
    aeb4:	e51b3014 	ldr	r3, [fp, #-20]	; 0xffffffec
    aeb8:	e5832010 	str	r2, [r3, #16]
    aebc:	e51b0008 	ldr	r0, [fp, #-8]
    aec0:	eb00110d 	bl	f2fc <OS_CPU_SR_Restore>
    aec4:	e51b3014 	ldr	r3, [fp, #-20]	; 0xffffffec
    aec8:	e593200c 	ldr	r2, [r3, #12]
    aecc:	e51b3014 	ldr	r3, [fp, #-20]	; 0xffffffec
    aed0:	e5933010 	ldr	r3, [r3, #16]
    aed4:	e0632002 	rsb	r2, r3, r2
    aed8:	e51b3014 	ldr	r3, [fp, #-20]	; 0xffffffec
    aedc:	e5832014 	str	r2, [r3, #20]
    aee0:	e3a03000 	mov	r3, #0
    aee4:	e1a00003 	mov	r0, r3
    aee8:	e24bd004 	sub	sp, fp, #4
    aeec:	e8bd8800 	pop	{fp, pc}

0000aef0 <OS_MemInit>:
    aef0:	e92d4800 	push	{fp, lr}
    aef4:	e28db004 	add	fp, sp, #4
    aef8:	e24dd008 	sub	sp, sp, #8
    aefc:	e30a0e9c 	movw	r0, #44700	; 0xae9c
    af00:	e3400019 	movt	r0, #25
    af04:	e3a01078 	mov	r1, #120	; 0x78
    af08:	ebfffad9 	bl	9a74 <OS_MemClr>
    af0c:	e3a03000 	mov	r3, #0
    af10:	e14b30b6 	strh	r3, [fp, #-6]
    af14:	ea00001a 	b	af84 <OS_MemInit+0x94>
    af18:	e15b20b6 	ldrh	r2, [fp, #-6]
    af1c:	e1a03002 	mov	r3, r2
    af20:	e1a03083 	lsl	r3, r3, #1
    af24:	e0833002 	add	r3, r3, r2
    af28:	e1a03183 	lsl	r3, r3, #3
    af2c:	e30a2e9c 	movw	r2, #44700	; 0xae9c
    af30:	e3402019 	movt	r2, #25
    af34:	e0833002 	add	r3, r3, r2
    af38:	e50b300c 	str	r3, [fp, #-12]
    af3c:	e15b30b6 	ldrh	r3, [fp, #-6]
    af40:	e2832001 	add	r2, r3, #1
    af44:	e1a03002 	mov	r3, r2
    af48:	e1a03083 	lsl	r3, r3, #1
    af4c:	e0833002 	add	r3, r3, r2
    af50:	e1a03183 	lsl	r3, r3, #3
    af54:	e30a2e9c 	movw	r2, #44700	; 0xae9c
    af58:	e3402019 	movt	r2, #25
    af5c:	e0832002 	add	r2, r3, r2
    af60:	e51b300c 	ldr	r3, [fp, #-12]
    af64:	e5832004 	str	r2, [r3, #4]
    af68:	e51b200c 	ldr	r2, [fp, #-12]
    af6c:	e3073744 	movw	r3, #30532	; 0x7744
    af70:	e3403001 	movt	r3, #1
    af74:	e5823014 	str	r3, [r2, #20]
    af78:	e15b30b6 	ldrh	r3, [fp, #-6]
    af7c:	e2833001 	add	r3, r3, #1
    af80:	e14b30b6 	strh	r3, [fp, #-6]
    af84:	e15b30b6 	ldrh	r3, [fp, #-6]
    af88:	e3530003 	cmp	r3, #3
    af8c:	9affffe1 	bls	af18 <OS_MemInit+0x28>
    af90:	e15b20b6 	ldrh	r2, [fp, #-6]
    af94:	e1a03002 	mov	r3, r2
    af98:	e1a03083 	lsl	r3, r3, #1
    af9c:	e0833002 	add	r3, r3, r2
    afa0:	e1a03183 	lsl	r3, r3, #3
    afa4:	e30a2e9c 	movw	r2, #44700	; 0xae9c
    afa8:	e3402019 	movt	r2, #25
    afac:	e0833002 	add	r3, r3, r2
    afb0:	e50b300c 	str	r3, [fp, #-12]
    afb4:	e51b300c 	ldr	r3, [fp, #-12]
    afb8:	e3a02000 	mov	r2, #0
    afbc:	e5832004 	str	r2, [r3, #4]
    afc0:	e51b200c 	ldr	r2, [fp, #-12]
    afc4:	e3073744 	movw	r3, #30532	; 0x7744
    afc8:	e3403001 	movt	r3, #1
    afcc:	e5823014 	str	r3, [r2, #20]
    afd0:	e30a3f24 	movw	r3, #44836	; 0xaf24
    afd4:	e3403019 	movt	r3, #25
    afd8:	e30a2e9c 	movw	r2, #44700	; 0xae9c
    afdc:	e3402019 	movt	r2, #25
    afe0:	e5832000 	str	r2, [r3]
    afe4:	e24bd004 	sub	sp, fp, #4
    afe8:	e8bd8800 	pop	{fp, pc}

0000afec <OSMutexAccept>:
    afec:	e92d4800 	push	{fp, lr}
    aff0:	e28db004 	add	fp, sp, #4
    aff4:	e24dd010 	sub	sp, sp, #16
    aff8:	e50b0010 	str	r0, [fp, #-16]
    affc:	e50b1014 	str	r1, [fp, #-20]	; 0xffffffec
    b000:	e3a03000 	mov	r3, #0
    b004:	e50b3008 	str	r3, [fp, #-8]
    b008:	e51b3010 	ldr	r3, [fp, #-16]
    b00c:	e5d33000 	ldrb	r3, [r3]
    b010:	e3530004 	cmp	r3, #4
    b014:	0a000004 	beq	b02c <OSMutexAccept+0x40>
    b018:	e51b3014 	ldr	r3, [fp, #-20]	; 0xffffffec
    b01c:	e3a02001 	mov	r2, #1
    b020:	e5c32000 	strb	r2, [r3]
    b024:	e3a03000 	mov	r3, #0
    b028:	ea000047 	b	b14c <OSMutexAccept+0x160>
    b02c:	e30a3fa0 	movw	r3, #44960	; 0xafa0
    b030:	e3403019 	movt	r3, #25
    b034:	e5d33000 	ldrb	r3, [r3]
    b038:	e3530000 	cmp	r3, #0
    b03c:	0a000004 	beq	b054 <OSMutexAccept+0x68>
    b040:	e51b3014 	ldr	r3, [fp, #-20]	; 0xffffffec
    b044:	e3a02002 	mov	r2, #2
    b048:	e5c32000 	strb	r2, [r3]
    b04c:	e3a03000 	mov	r3, #0
    b050:	ea00003d 	b	b14c <OSMutexAccept+0x160>
    b054:	eb001095 	bl	f2b0 <OS_CPU_SR_Save>
    b058:	e50b0008 	str	r0, [fp, #-8]
    b05c:	e51b3010 	ldr	r3, [fp, #-16]
    b060:	e1d330b8 	ldrh	r3, [r3, #8]
    b064:	e1a03423 	lsr	r3, r3, #8
    b068:	e6ff3073 	uxth	r3, r3
    b06c:	e54b3009 	strb	r3, [fp, #-9]
    b070:	e51b3010 	ldr	r3, [fp, #-16]
    b074:	e1d330b8 	ldrh	r3, [r3, #8]
    b078:	e6ef3073 	uxtb	r3, r3
    b07c:	e35300ff 	cmp	r3, #255	; 0xff
    b080:	1a00002b 	bne	b134 <OSMutexAccept+0x148>
    b084:	e51b3010 	ldr	r3, [fp, #-16]
    b088:	e1d330b8 	ldrh	r3, [r3, #8]
    b08c:	e3c330ff 	bic	r3, r3, #255	; 0xff
    b090:	e6ff2073 	uxth	r2, r3
    b094:	e51b3010 	ldr	r3, [fp, #-16]
    b098:	e1c320b8 	strh	r2, [r3, #8]
    b09c:	e51b3010 	ldr	r3, [fp, #-16]
    b0a0:	e1d320b8 	ldrh	r2, [r3, #8]
    b0a4:	e30a3fa4 	movw	r3, #44964	; 0xafa4
    b0a8:	e3403019 	movt	r3, #25
    b0ac:	e5933000 	ldr	r3, [r3]
    b0b0:	e5d3302e 	ldrb	r3, [r3, #46]	; 0x2e
    b0b4:	e1823003 	orr	r3, r2, r3
    b0b8:	e6ff2073 	uxth	r2, r3
    b0bc:	e51b3010 	ldr	r3, [fp, #-16]
    b0c0:	e1c320b8 	strh	r2, [r3, #8]
    b0c4:	e30a3fa4 	movw	r3, #44964	; 0xafa4
    b0c8:	e3403019 	movt	r3, #25
    b0cc:	e5932000 	ldr	r2, [r3]
    b0d0:	e51b3010 	ldr	r3, [fp, #-16]
    b0d4:	e5832004 	str	r2, [r3, #4]
    b0d8:	e55b3009 	ldrb	r3, [fp, #-9]
    b0dc:	e35300ff 	cmp	r3, #255	; 0xff
    b0e0:	0a00000c 	beq	b118 <OSMutexAccept+0x12c>
    b0e4:	e30a3fa4 	movw	r3, #44964	; 0xafa4
    b0e8:	e3403019 	movt	r3, #25
    b0ec:	e5933000 	ldr	r3, [r3]
    b0f0:	e5d3302e 	ldrb	r3, [r3, #46]	; 0x2e
    b0f4:	e55b2009 	ldrb	r2, [fp, #-9]
    b0f8:	e1520003 	cmp	r2, r3
    b0fc:	3a000005 	bcc	b118 <OSMutexAccept+0x12c>
    b100:	e51b0008 	ldr	r0, [fp, #-8]
    b104:	eb00107c 	bl	f2fc <OS_CPU_SR_Restore>
    b108:	e51b3014 	ldr	r3, [fp, #-20]	; 0xffffffec
    b10c:	e3a02078 	mov	r2, #120	; 0x78
    b110:	e5c32000 	strb	r2, [r3]
    b114:	ea000004 	b	b12c <OSMutexAccept+0x140>
    b118:	e51b0008 	ldr	r0, [fp, #-8]
    b11c:	eb001076 	bl	f2fc <OS_CPU_SR_Restore>
    b120:	e51b3014 	ldr	r3, [fp, #-20]	; 0xffffffec
    b124:	e3a02000 	mov	r2, #0
    b128:	e5c32000 	strb	r2, [r3]
    b12c:	e3a03001 	mov	r3, #1
    b130:	ea000005 	b	b14c <OSMutexAccept+0x160>
    b134:	e51b0008 	ldr	r0, [fp, #-8]
    b138:	eb00106f 	bl	f2fc <OS_CPU_SR_Restore>
    b13c:	e51b3014 	ldr	r3, [fp, #-20]	; 0xffffffec
    b140:	e3a02000 	mov	r2, #0
    b144:	e5c32000 	strb	r2, [r3]
    b148:	e3a03000 	mov	r3, #0
    b14c:	e1a00003 	mov	r0, r3
    b150:	e24bd004 	sub	sp, fp, #4
    b154:	e8bd8800 	pop	{fp, pc}

0000b158 <OSMutexCreate>:
    b158:	e92d4800 	push	{fp, lr}
    b15c:	e28db004 	add	fp, sp, #4
    b160:	e24dd010 	sub	sp, sp, #16
    b164:	e1a03000 	mov	r3, r0
    b168:	e50b1014 	str	r1, [fp, #-20]	; 0xffffffec
    b16c:	e54b300d 	strb	r3, [fp, #-13]
    b170:	e3a03000 	mov	r3, #0
    b174:	e50b3008 	str	r3, [fp, #-8]
    b178:	e30a3fa0 	movw	r3, #44960	; 0xafa0
    b17c:	e3403019 	movt	r3, #25
    b180:	e5d33000 	ldrb	r3, [r3]
    b184:	e3530000 	cmp	r3, #0
    b188:	0a000004 	beq	b1a0 <OSMutexCreate+0x48>
    b18c:	e51b3014 	ldr	r3, [fp, #-20]	; 0xffffffec
    b190:	e3a02010 	mov	r2, #16
    b194:	e5c32000 	strb	r2, [r3]
    b198:	e3a03000 	mov	r3, #0
    b19c:	ea00004d 	b	b2d8 <OSMutexCreate+0x180>
    b1a0:	eb001042 	bl	f2b0 <OS_CPU_SR_Save>
    b1a4:	e50b0008 	str	r0, [fp, #-8]
    b1a8:	e55b300d 	ldrb	r3, [fp, #-13]
    b1ac:	e35300ff 	cmp	r3, #255	; 0xff
    b1b0:	0a000011 	beq	b1fc <OSMutexCreate+0xa4>
    b1b4:	e55b200d 	ldrb	r2, [fp, #-13]
    b1b8:	e30b392c 	movw	r3, #47404	; 0xb92c
    b1bc:	e3403019 	movt	r3, #25
    b1c0:	e7933102 	ldr	r3, [r3, r2, lsl #2]
    b1c4:	e3530000 	cmp	r3, #0
    b1c8:	0a000006 	beq	b1e8 <OSMutexCreate+0x90>
    b1cc:	e51b0008 	ldr	r0, [fp, #-8]
    b1d0:	eb001049 	bl	f2fc <OS_CPU_SR_Restore>
    b1d4:	e51b3014 	ldr	r3, [fp, #-20]	; 0xffffffec
    b1d8:	e3a02028 	mov	r2, #40	; 0x28
    b1dc:	e5c32000 	strb	r2, [r3]
    b1e0:	e3a03000 	mov	r3, #0
    b1e4:	ea00003b 	b	b2d8 <OSMutexCreate+0x180>
    b1e8:	e55b200d 	ldrb	r2, [fp, #-13]
    b1ec:	e30b392c 	movw	r3, #47404	; 0xb92c
    b1f0:	e3403019 	movt	r3, #25
    b1f4:	e3a01001 	mov	r1, #1
    b1f8:	e7831102 	str	r1, [r3, r2, lsl #2]
    b1fc:	e30a3f9c 	movw	r3, #44956	; 0xaf9c
    b200:	e3403019 	movt	r3, #25
    b204:	e5933000 	ldr	r3, [r3]
    b208:	e50b300c 	str	r3, [fp, #-12]
    b20c:	e51b300c 	ldr	r3, [fp, #-12]
    b210:	e3530000 	cmp	r3, #0
    b214:	1a00000e 	bne	b254 <OSMutexCreate+0xfc>
    b218:	e55b300d 	ldrb	r3, [fp, #-13]
    b21c:	e35300ff 	cmp	r3, #255	; 0xff
    b220:	0a000004 	beq	b238 <OSMutexCreate+0xe0>
    b224:	e55b200d 	ldrb	r2, [fp, #-13]
    b228:	e30b392c 	movw	r3, #47404	; 0xb92c
    b22c:	e3403019 	movt	r3, #25
    b230:	e3a01000 	mov	r1, #0
    b234:	e7831102 	str	r1, [r3, r2, lsl #2]
    b238:	e51b0008 	ldr	r0, [fp, #-8]
    b23c:	eb00102e 	bl	f2fc <OS_CPU_SR_Restore>
    b240:	e51b3014 	ldr	r3, [fp, #-20]	; 0xffffffec
    b244:	e3a02004 	mov	r2, #4
    b248:	e5c32000 	strb	r2, [r3]
    b24c:	e51b300c 	ldr	r3, [fp, #-12]
    b250:	ea000020 	b	b2d8 <OSMutexCreate+0x180>
    b254:	e30a3f9c 	movw	r3, #44956	; 0xaf9c
    b258:	e3403019 	movt	r3, #25
    b25c:	e5933000 	ldr	r3, [r3]
    b260:	e5932004 	ldr	r2, [r3, #4]
    b264:	e30a3f9c 	movw	r3, #44956	; 0xaf9c
    b268:	e3403019 	movt	r3, #25
    b26c:	e5832000 	str	r2, [r3]
    b270:	e51b0008 	ldr	r0, [fp, #-8]
    b274:	eb001020 	bl	f2fc <OS_CPU_SR_Restore>
    b278:	e51b300c 	ldr	r3, [fp, #-12]
    b27c:	e3a02004 	mov	r2, #4
    b280:	e5c32000 	strb	r2, [r3]
    b284:	e55b300d 	ldrb	r3, [fp, #-13]
    b288:	e6ff3073 	uxth	r3, r3
    b28c:	e1a03403 	lsl	r3, r3, #8
    b290:	e6ff3073 	uxth	r3, r3
    b294:	e38330ff 	orr	r3, r3, #255	; 0xff
    b298:	e6ff2073 	uxth	r2, r3
    b29c:	e51b300c 	ldr	r3, [fp, #-12]
    b2a0:	e1c320b8 	strh	r2, [r3, #8]
    b2a4:	e51b300c 	ldr	r3, [fp, #-12]
    b2a8:	e3a02000 	mov	r2, #0
    b2ac:	e5832004 	str	r2, [r3, #4]
    b2b0:	e51b200c 	ldr	r2, [fp, #-12]
    b2b4:	e3073748 	movw	r3, #30536	; 0x7748
    b2b8:	e3403001 	movt	r3, #1
    b2bc:	e5823014 	str	r3, [r2, #20]
    b2c0:	e51b000c 	ldr	r0, [fp, #-12]
    b2c4:	ebfff8d2 	bl	9614 <OS_EventWaitListInit>
    b2c8:	e51b3014 	ldr	r3, [fp, #-20]	; 0xffffffec
    b2cc:	e3a02000 	mov	r2, #0
    b2d0:	e5c32000 	strb	r2, [r3]
    b2d4:	e51b300c 	ldr	r3, [fp, #-12]
    b2d8:	e1a00003 	mov	r0, r3
    b2dc:	e24bd004 	sub	sp, fp, #4
    b2e0:	e8bd8800 	pop	{fp, pc}

0000b2e4 <OSMutexDel>:
    b2e4:	e92d4800 	push	{fp, lr}
    b2e8:	e28db004 	add	fp, sp, #4
    b2ec:	e24dd028 	sub	sp, sp, #40	; 0x28
    b2f0:	e50b0020 	str	r0, [fp, #-32]	; 0xffffffe0
    b2f4:	e1a03001 	mov	r3, r1
    b2f8:	e50b2028 	str	r2, [fp, #-40]	; 0xffffffd8
    b2fc:	e54b3021 	strb	r3, [fp, #-33]	; 0xffffffdf
    b300:	e3a03000 	mov	r3, #0
    b304:	e50b3010 	str	r3, [fp, #-16]
    b308:	e51b3020 	ldr	r3, [fp, #-32]	; 0xffffffe0
    b30c:	e5d33000 	ldrb	r3, [r3]
    b310:	e3530004 	cmp	r3, #4
    b314:	0a000004 	beq	b32c <OSMutexDel+0x48>
    b318:	e51b3028 	ldr	r3, [fp, #-40]	; 0xffffffd8
    b31c:	e3a02001 	mov	r2, #1
    b320:	e5c32000 	strb	r2, [r3]
    b324:	e51b3020 	ldr	r3, [fp, #-32]	; 0xffffffe0
    b328:	ea0000a8 	b	b5d0 <OSMutexDel+0x2ec>
    b32c:	e30a3fa0 	movw	r3, #44960	; 0xafa0
    b330:	e3403019 	movt	r3, #25
    b334:	e5d33000 	ldrb	r3, [r3]
    b338:	e3530000 	cmp	r3, #0
    b33c:	0a000004 	beq	b354 <OSMutexDel+0x70>
    b340:	e51b3028 	ldr	r3, [fp, #-40]	; 0xffffffd8
    b344:	e3a0200f 	mov	r2, #15
    b348:	e5c32000 	strb	r2, [r3]
    b34c:	e51b3020 	ldr	r3, [fp, #-32]	; 0xffffffe0
    b350:	ea00009e 	b	b5d0 <OSMutexDel+0x2ec>
    b354:	eb000fd5 	bl	f2b0 <OS_CPU_SR_Save>
    b358:	e50b0010 	str	r0, [fp, #-16]
    b35c:	e51b3020 	ldr	r3, [fp, #-32]	; 0xffffffe0
    b360:	e5d3300a 	ldrb	r3, [r3, #10]
    b364:	e3530000 	cmp	r3, #0
    b368:	0a000002 	beq	b378 <OSMutexDel+0x94>
    b36c:	e3a03001 	mov	r3, #1
    b370:	e54b3005 	strb	r3, [fp, #-5]
    b374:	ea000001 	b	b380 <OSMutexDel+0x9c>
    b378:	e3a03000 	mov	r3, #0
    b37c:	e54b3005 	strb	r3, [fp, #-5]
    b380:	e55b3021 	ldrb	r3, [fp, #-33]	; 0xffffffdf
    b384:	e3530000 	cmp	r3, #0
    b388:	0a000002 	beq	b398 <OSMutexDel+0xb4>
    b38c:	e3530001 	cmp	r3, #1
    b390:	0a000033 	beq	b464 <OSMutexDel+0x180>
    b394:	ea000084 	b	b5ac <OSMutexDel+0x2c8>
    b398:	e55b3005 	ldrb	r3, [fp, #-5]
    b39c:	e3530000 	cmp	r3, #0
    b3a0:	1a000027 	bne	b444 <OSMutexDel+0x160>
    b3a4:	e51b2020 	ldr	r2, [fp, #-32]	; 0xffffffe0
    b3a8:	e3073748 	movw	r3, #30536	; 0x7748
    b3ac:	e3403001 	movt	r3, #1
    b3b0:	e5823014 	str	r3, [r2, #20]
    b3b4:	e51b3020 	ldr	r3, [fp, #-32]	; 0xffffffe0
    b3b8:	e1d330b8 	ldrh	r3, [r3, #8]
    b3bc:	e1a03423 	lsr	r3, r3, #8
    b3c0:	e6ff3073 	uxth	r3, r3
    b3c4:	e54b3011 	strb	r3, [fp, #-17]	; 0xffffffef
    b3c8:	e55b3011 	ldrb	r3, [fp, #-17]	; 0xffffffef
    b3cc:	e35300ff 	cmp	r3, #255	; 0xff
    b3d0:	0a000004 	beq	b3e8 <OSMutexDel+0x104>
    b3d4:	e55b2011 	ldrb	r2, [fp, #-17]	; 0xffffffef
    b3d8:	e30b392c 	movw	r3, #47404	; 0xb92c
    b3dc:	e3403019 	movt	r3, #25
    b3e0:	e3a01000 	mov	r1, #0
    b3e4:	e7831102 	str	r1, [r3, r2, lsl #2]
    b3e8:	e51b3020 	ldr	r3, [fp, #-32]	; 0xffffffe0
    b3ec:	e3a02000 	mov	r2, #0
    b3f0:	e5c32000 	strb	r2, [r3]
    b3f4:	e30a3f9c 	movw	r3, #44956	; 0xaf9c
    b3f8:	e3403019 	movt	r3, #25
    b3fc:	e5932000 	ldr	r2, [r3]
    b400:	e51b3020 	ldr	r3, [fp, #-32]	; 0xffffffe0
    b404:	e5832004 	str	r2, [r3, #4]
    b408:	e51b3020 	ldr	r3, [fp, #-32]	; 0xffffffe0
    b40c:	e3a02000 	mov	r2, #0
    b410:	e1c320b8 	strh	r2, [r3, #8]
    b414:	e30a3f9c 	movw	r3, #44956	; 0xaf9c
    b418:	e3403019 	movt	r3, #25
    b41c:	e51b2020 	ldr	r2, [fp, #-32]	; 0xffffffe0
    b420:	e5832000 	str	r2, [r3]
    b424:	e51b0010 	ldr	r0, [fp, #-16]
    b428:	eb000fb3 	bl	f2fc <OS_CPU_SR_Restore>
    b42c:	e51b3028 	ldr	r3, [fp, #-40]	; 0xffffffd8
    b430:	e3a02000 	mov	r2, #0
    b434:	e5c32000 	strb	r2, [r3]
    b438:	e3a03000 	mov	r3, #0
    b43c:	e50b300c 	str	r3, [fp, #-12]
    b440:	ea000061 	b	b5cc <OSMutexDel+0x2e8>
    b444:	e51b0010 	ldr	r0, [fp, #-16]
    b448:	eb000fab 	bl	f2fc <OS_CPU_SR_Restore>
    b44c:	e51b3028 	ldr	r3, [fp, #-40]	; 0xffffffd8
    b450:	e3a02049 	mov	r2, #73	; 0x49
    b454:	e5c32000 	strb	r2, [r3]
    b458:	e51b3020 	ldr	r3, [fp, #-32]	; 0xffffffe0
    b45c:	e50b300c 	str	r3, [fp, #-12]
    b460:	ea000059 	b	b5cc <OSMutexDel+0x2e8>
    b464:	e51b3020 	ldr	r3, [fp, #-32]	; 0xffffffe0
    b468:	e1d330b8 	ldrh	r3, [r3, #8]
    b46c:	e1a03423 	lsr	r3, r3, #8
    b470:	e6ff3073 	uxth	r3, r3
    b474:	e54b3011 	strb	r3, [fp, #-17]	; 0xffffffef
    b478:	e55b3011 	ldrb	r3, [fp, #-17]	; 0xffffffef
    b47c:	e35300ff 	cmp	r3, #255	; 0xff
    b480:	0a000018 	beq	b4e8 <OSMutexDel+0x204>
    b484:	e51b3020 	ldr	r3, [fp, #-32]	; 0xffffffe0
    b488:	e1d330b8 	ldrh	r3, [r3, #8]
    b48c:	e54b3012 	strb	r3, [fp, #-18]	; 0xffffffee
    b490:	e51b3020 	ldr	r3, [fp, #-32]	; 0xffffffe0
    b494:	e5933004 	ldr	r3, [r3, #4]
    b498:	e50b3018 	str	r3, [fp, #-24]	; 0xffffffe8
    b49c:	e51b3018 	ldr	r3, [fp, #-24]	; 0xffffffe8
    b4a0:	e3530000 	cmp	r3, #0
    b4a4:	0a00000f 	beq	b4e8 <OSMutexDel+0x204>
    b4a8:	e51b3018 	ldr	r3, [fp, #-24]	; 0xffffffe8
    b4ac:	e5d3302e 	ldrb	r3, [r3, #46]	; 0x2e
    b4b0:	e55b2011 	ldrb	r2, [fp, #-17]	; 0xffffffef
    b4b4:	e1520003 	cmp	r2, r3
    b4b8:	1a00000a 	bne	b4e8 <OSMutexDel+0x204>
    b4bc:	e55b3012 	ldrb	r3, [fp, #-18]	; 0xffffffee
    b4c0:	e51b0018 	ldr	r0, [fp, #-24]	; 0xffffffe8
    b4c4:	e1a01003 	mov	r1, r3
    b4c8:	eb00028c 	bl	bf00 <OSMutex_RdyAtPrio>
    b4cc:	ea000005 	b	b4e8 <OSMutexDel+0x204>
    b4d0:	e51b0020 	ldr	r0, [fp, #-32]	; 0xffffffe0
    b4d4:	e3a01000 	mov	r1, #0
    b4d8:	e3a02010 	mov	r2, #16
    b4dc:	e3a03002 	mov	r3, #2
    b4e0:	ebfff6b0 	bl	8fa8 <OS_EventTaskRdy>
    b4e4:	ea000000 	b	b4ec <OSMutexDel+0x208>
    b4e8:	e1a00000 	nop			; (mov r0, r0)
    b4ec:	e51b3020 	ldr	r3, [fp, #-32]	; 0xffffffe0
    b4f0:	e5d3300a 	ldrb	r3, [r3, #10]
    b4f4:	e3530000 	cmp	r3, #0
    b4f8:	1afffff4 	bne	b4d0 <OSMutexDel+0x1ec>
    b4fc:	e51b2020 	ldr	r2, [fp, #-32]	; 0xffffffe0
    b500:	e3073748 	movw	r3, #30536	; 0x7748
    b504:	e3403001 	movt	r3, #1
    b508:	e5823014 	str	r3, [r2, #20]
    b50c:	e51b3020 	ldr	r3, [fp, #-32]	; 0xffffffe0
    b510:	e1d330b8 	ldrh	r3, [r3, #8]
    b514:	e1a03423 	lsr	r3, r3, #8
    b518:	e6ff3073 	uxth	r3, r3
    b51c:	e54b3011 	strb	r3, [fp, #-17]	; 0xffffffef
    b520:	e55b3011 	ldrb	r3, [fp, #-17]	; 0xffffffef
    b524:	e35300ff 	cmp	r3, #255	; 0xff
    b528:	0a000004 	beq	b540 <OSMutexDel+0x25c>
    b52c:	e55b2011 	ldrb	r2, [fp, #-17]	; 0xffffffef
    b530:	e30b392c 	movw	r3, #47404	; 0xb92c
    b534:	e3403019 	movt	r3, #25
    b538:	e3a01000 	mov	r1, #0
    b53c:	e7831102 	str	r1, [r3, r2, lsl #2]
    b540:	e51b3020 	ldr	r3, [fp, #-32]	; 0xffffffe0
    b544:	e3a02000 	mov	r2, #0
    b548:	e5c32000 	strb	r2, [r3]
    b54c:	e30a3f9c 	movw	r3, #44956	; 0xaf9c
    b550:	e3403019 	movt	r3, #25
    b554:	e5932000 	ldr	r2, [r3]
    b558:	e51b3020 	ldr	r3, [fp, #-32]	; 0xffffffe0
    b55c:	e5832004 	str	r2, [r3, #4]
    b560:	e51b3020 	ldr	r3, [fp, #-32]	; 0xffffffe0
    b564:	e3a02000 	mov	r2, #0
    b568:	e1c320b8 	strh	r2, [r3, #8]
    b56c:	e30a3f9c 	movw	r3, #44956	; 0xaf9c
    b570:	e3403019 	movt	r3, #25
    b574:	e51b2020 	ldr	r2, [fp, #-32]	; 0xffffffe0
    b578:	e5832000 	str	r2, [r3]
    b57c:	e51b0010 	ldr	r0, [fp, #-16]
    b580:	eb000f5d 	bl	f2fc <OS_CPU_SR_Restore>
    b584:	e55b3005 	ldrb	r3, [fp, #-5]
    b588:	e3530001 	cmp	r3, #1
    b58c:	1a000000 	bne	b594 <OSMutexDel+0x2b0>
    b590:	ebfff968 	bl	9b38 <OS_Sched>
    b594:	e51b3028 	ldr	r3, [fp, #-40]	; 0xffffffd8
    b598:	e3a02000 	mov	r2, #0
    b59c:	e5c32000 	strb	r2, [r3]
    b5a0:	e3a03000 	mov	r3, #0
    b5a4:	e50b300c 	str	r3, [fp, #-12]
    b5a8:	ea000007 	b	b5cc <OSMutexDel+0x2e8>
    b5ac:	e51b0010 	ldr	r0, [fp, #-16]
    b5b0:	eb000f51 	bl	f2fc <OS_CPU_SR_Restore>
    b5b4:	e51b3028 	ldr	r3, [fp, #-40]	; 0xffffffd8
    b5b8:	e3a02007 	mov	r2, #7
    b5bc:	e5c32000 	strb	r2, [r3]
    b5c0:	e51b3020 	ldr	r3, [fp, #-32]	; 0xffffffe0
    b5c4:	e50b300c 	str	r3, [fp, #-12]
    b5c8:	e1a00000 	nop			; (mov r0, r0)
    b5cc:	e51b300c 	ldr	r3, [fp, #-12]
    b5d0:	e1a00003 	mov	r0, r3
    b5d4:	e24bd004 	sub	sp, fp, #4
    b5d8:	e8bd8800 	pop	{fp, pc}

0000b5dc <OSMutexPend>:
    b5dc:	e92d4800 	push	{fp, lr}
    b5e0:	e28db004 	add	fp, sp, #4
    b5e4:	e24dd028 	sub	sp, sp, #40	; 0x28
    b5e8:	e50b0020 	str	r0, [fp, #-32]	; 0xffffffe0
    b5ec:	e50b1024 	str	r1, [fp, #-36]	; 0xffffffdc
    b5f0:	e50b2028 	str	r2, [fp, #-40]	; 0xffffffd8
    b5f4:	e3a03000 	mov	r3, #0
    b5f8:	e50b300c 	str	r3, [fp, #-12]
    b5fc:	e51b3020 	ldr	r3, [fp, #-32]	; 0xffffffe0
    b600:	e5d33000 	ldrb	r3, [r3]
    b604:	e3530004 	cmp	r3, #4
    b608:	0a000003 	beq	b61c <OSMutexPend+0x40>
    b60c:	e51b3028 	ldr	r3, [fp, #-40]	; 0xffffffd8
    b610:	e3a02001 	mov	r2, #1
    b614:	e5c32000 	strb	r2, [r3]
    b618:	ea00016a 	b	bbc8 <OSMutexPend+0x5ec>
    b61c:	e30a3fa0 	movw	r3, #44960	; 0xafa0
    b620:	e3403019 	movt	r3, #25
    b624:	e5d33000 	ldrb	r3, [r3]
    b628:	e3530000 	cmp	r3, #0
    b62c:	0a000003 	beq	b640 <OSMutexPend+0x64>
    b630:	e51b3028 	ldr	r3, [fp, #-40]	; 0xffffffd8
    b634:	e3a02002 	mov	r2, #2
    b638:	e5c32000 	strb	r2, [r3]
    b63c:	ea000161 	b	bbc8 <OSMutexPend+0x5ec>
    b640:	e30a3e8c 	movw	r3, #44684	; 0xae8c
    b644:	e3403019 	movt	r3, #25
    b648:	e5d33000 	ldrb	r3, [r3]
    b64c:	e3530000 	cmp	r3, #0
    b650:	0a000003 	beq	b664 <OSMutexPend+0x88>
    b654:	e51b3028 	ldr	r3, [fp, #-40]	; 0xffffffd8
    b658:	e3a0200d 	mov	r2, #13
    b65c:	e5c32000 	strb	r2, [r3]
    b660:	ea000158 	b	bbc8 <OSMutexPend+0x5ec>
    b664:	eb000f11 	bl	f2b0 <OS_CPU_SR_Save>
    b668:	e50b000c 	str	r0, [fp, #-12]
    b66c:	e51b3020 	ldr	r3, [fp, #-32]	; 0xffffffe0
    b670:	e1d330b8 	ldrh	r3, [r3, #8]
    b674:	e1a03423 	lsr	r3, r3, #8
    b678:	e6ff3073 	uxth	r3, r3
    b67c:	e54b300d 	strb	r3, [fp, #-13]
    b680:	e51b3020 	ldr	r3, [fp, #-32]	; 0xffffffe0
    b684:	e1d330b8 	ldrh	r3, [r3, #8]
    b688:	e6ef3073 	uxtb	r3, r3
    b68c:	e35300ff 	cmp	r3, #255	; 0xff
    b690:	1a00002a 	bne	b740 <OSMutexPend+0x164>
    b694:	e51b3020 	ldr	r3, [fp, #-32]	; 0xffffffe0
    b698:	e1d330b8 	ldrh	r3, [r3, #8]
    b69c:	e3c330ff 	bic	r3, r3, #255	; 0xff
    b6a0:	e6ff2073 	uxth	r2, r3
    b6a4:	e51b3020 	ldr	r3, [fp, #-32]	; 0xffffffe0
    b6a8:	e1c320b8 	strh	r2, [r3, #8]
    b6ac:	e51b3020 	ldr	r3, [fp, #-32]	; 0xffffffe0
    b6b0:	e1d320b8 	ldrh	r2, [r3, #8]
    b6b4:	e30a3fa4 	movw	r3, #44964	; 0xafa4
    b6b8:	e3403019 	movt	r3, #25
    b6bc:	e5933000 	ldr	r3, [r3]
    b6c0:	e5d3302e 	ldrb	r3, [r3, #46]	; 0x2e
    b6c4:	e1823003 	orr	r3, r2, r3
    b6c8:	e6ff2073 	uxth	r2, r3
    b6cc:	e51b3020 	ldr	r3, [fp, #-32]	; 0xffffffe0
    b6d0:	e1c320b8 	strh	r2, [r3, #8]
    b6d4:	e30a3fa4 	movw	r3, #44964	; 0xafa4
    b6d8:	e3403019 	movt	r3, #25
    b6dc:	e5932000 	ldr	r2, [r3]
    b6e0:	e51b3020 	ldr	r3, [fp, #-32]	; 0xffffffe0
    b6e4:	e5832004 	str	r2, [r3, #4]
    b6e8:	e55b300d 	ldrb	r3, [fp, #-13]
    b6ec:	e35300ff 	cmp	r3, #255	; 0xff
    b6f0:	0a00000c 	beq	b728 <OSMutexPend+0x14c>
    b6f4:	e30a3fa4 	movw	r3, #44964	; 0xafa4
    b6f8:	e3403019 	movt	r3, #25
    b6fc:	e5933000 	ldr	r3, [r3]
    b700:	e5d3302e 	ldrb	r3, [r3, #46]	; 0x2e
    b704:	e55b200d 	ldrb	r2, [fp, #-13]
    b708:	e1520003 	cmp	r2, r3
    b70c:	3a000005 	bcc	b728 <OSMutexPend+0x14c>
    b710:	e51b000c 	ldr	r0, [fp, #-12]
    b714:	eb000ef8 	bl	f2fc <OS_CPU_SR_Restore>
    b718:	e51b3028 	ldr	r3, [fp, #-40]	; 0xffffffd8
    b71c:	e3a02078 	mov	r2, #120	; 0x78
    b720:	e5c32000 	strb	r2, [r3]
    b724:	ea000127 	b	bbc8 <OSMutexPend+0x5ec>
    b728:	e51b000c 	ldr	r0, [fp, #-12]
    b72c:	eb000ef2 	bl	f2fc <OS_CPU_SR_Restore>
    b730:	e51b3028 	ldr	r3, [fp, #-40]	; 0xffffffd8
    b734:	e3a02000 	mov	r2, #0
    b738:	e5c32000 	strb	r2, [r3]
    b73c:	ea000121 	b	bbc8 <OSMutexPend+0x5ec>
    b740:	e55b300d 	ldrb	r3, [fp, #-13]
    b744:	e35300ff 	cmp	r3, #255	; 0xff
    b748:	0a0000d2 	beq	ba98 <OSMutexPend+0x4bc>
    b74c:	e51b3020 	ldr	r3, [fp, #-32]	; 0xffffffe0
    b750:	e1d330b8 	ldrh	r3, [r3, #8]
    b754:	e54b300e 	strb	r3, [fp, #-14]
    b758:	e51b3020 	ldr	r3, [fp, #-32]	; 0xffffffe0
    b75c:	e5933004 	ldr	r3, [r3, #4]
    b760:	e50b3014 	str	r3, [fp, #-20]	; 0xffffffec
    b764:	e51b3014 	ldr	r3, [fp, #-20]	; 0xffffffec
    b768:	e5d3302e 	ldrb	r3, [r3, #46]	; 0x2e
    b76c:	e55b200d 	ldrb	r2, [fp, #-13]
    b770:	e1520003 	cmp	r2, r3
    b774:	2a0000c7 	bcs	ba98 <OSMutexPend+0x4bc>
    b778:	e30a3fa4 	movw	r3, #44964	; 0xafa4
    b77c:	e3403019 	movt	r3, #25
    b780:	e5933000 	ldr	r3, [r3]
    b784:	e5d3302e 	ldrb	r3, [r3, #46]	; 0x2e
    b788:	e55b200e 	ldrb	r2, [fp, #-14]
    b78c:	e1520003 	cmp	r2, r3
    b790:	9a0000c0 	bls	ba98 <OSMutexPend+0x4bc>
    b794:	e51b3014 	ldr	r3, [fp, #-20]	; 0xffffffec
    b798:	e5d33030 	ldrb	r3, [r3, #48]	; 0x30
    b79c:	e54b3015 	strb	r3, [fp, #-21]	; 0xffffffeb
    b7a0:	e55b2015 	ldrb	r2, [fp, #-21]	; 0xffffffeb
    b7a4:	e30a3f94 	movw	r3, #44948	; 0xaf94
    b7a8:	e3403019 	movt	r3, #25
    b7ac:	e7d32002 	ldrb	r2, [r3, r2]
    b7b0:	e51b3014 	ldr	r3, [fp, #-20]	; 0xffffffec
    b7b4:	e5d33031 	ldrb	r3, [r3, #49]	; 0x31
    b7b8:	e0023003 	and	r3, r2, r3
    b7bc:	e6ef3073 	uxtb	r3, r3
    b7c0:	e3530000 	cmp	r3, #0
    b7c4:	0a000022 	beq	b854 <OSMutexPend+0x278>
    b7c8:	e55b2015 	ldrb	r2, [fp, #-21]	; 0xffffffeb
    b7cc:	e55b1015 	ldrb	r1, [fp, #-21]	; 0xffffffeb
    b7d0:	e30a3f94 	movw	r3, #44948	; 0xaf94
    b7d4:	e3403019 	movt	r3, #25
    b7d8:	e7d31001 	ldrb	r1, [r3, r1]
    b7dc:	e51b3014 	ldr	r3, [fp, #-20]	; 0xffffffec
    b7e0:	e5d33031 	ldrb	r3, [r3, #49]	; 0x31
    b7e4:	e1e03003 	mvn	r3, r3
    b7e8:	e6ef3073 	uxtb	r3, r3
    b7ec:	e0013003 	and	r3, r1, r3
    b7f0:	e6ef1073 	uxtb	r1, r3
    b7f4:	e30a3f94 	movw	r3, #44948	; 0xaf94
    b7f8:	e3403019 	movt	r3, #25
    b7fc:	e7c31002 	strb	r1, [r3, r2]
    b800:	e55b2015 	ldrb	r2, [fp, #-21]	; 0xffffffeb
    b804:	e30a3f94 	movw	r3, #44948	; 0xaf94
    b808:	e3403019 	movt	r3, #25
    b80c:	e7d33002 	ldrb	r3, [r3, r2]
    b810:	e3530000 	cmp	r3, #0
    b814:	1a00000b 	bne	b848 <OSMutexPend+0x26c>
    b818:	e51b3014 	ldr	r3, [fp, #-20]	; 0xffffffec
    b81c:	e5d33032 	ldrb	r3, [r3, #50]	; 0x32
    b820:	e1e03003 	mvn	r3, r3
    b824:	e6ef2073 	uxtb	r2, r3
    b828:	e30a3f90 	movw	r3, #44944	; 0xaf90
    b82c:	e3403019 	movt	r3, #25
    b830:	e5d33000 	ldrb	r3, [r3]
    b834:	e0023003 	and	r3, r2, r3
    b838:	e6ef2073 	uxtb	r2, r3
    b83c:	e30a3f90 	movw	r3, #44944	; 0xaf90
    b840:	e3403019 	movt	r3, #25
    b844:	e5c32000 	strb	r2, [r3]
    b848:	e3a03001 	mov	r3, #1
    b84c:	e54b3005 	strb	r3, [fp, #-5]
    b850:	ea00002e 	b	b910 <OSMutexPend+0x334>
    b854:	e51b3014 	ldr	r3, [fp, #-20]	; 0xffffffec
    b858:	e593301c 	ldr	r3, [r3, #28]
    b85c:	e50b301c 	str	r3, [fp, #-28]	; 0xffffffe4
    b860:	e51b301c 	ldr	r3, [fp, #-28]	; 0xffffffe4
    b864:	e3530000 	cmp	r3, #0
    b868:	0a000026 	beq	b908 <OSMutexPend+0x32c>
    b86c:	e51b3014 	ldr	r3, [fp, #-20]	; 0xffffffec
    b870:	e5d33030 	ldrb	r3, [r3, #48]	; 0x30
    b874:	e54b3015 	strb	r3, [fp, #-21]	; 0xffffffeb
    b878:	e55b1015 	ldrb	r1, [fp, #-21]	; 0xffffffeb
    b87c:	e55b2015 	ldrb	r2, [fp, #-21]	; 0xffffffeb
    b880:	e51b001c 	ldr	r0, [fp, #-28]	; 0xffffffe4
    b884:	e3a03008 	mov	r3, #8
    b888:	e0802002 	add	r2, r0, r2
    b88c:	e0823003 	add	r3, r2, r3
    b890:	e5d32003 	ldrb	r2, [r3, #3]
    b894:	e51b3014 	ldr	r3, [fp, #-20]	; 0xffffffec
    b898:	e5d33031 	ldrb	r3, [r3, #49]	; 0x31
    b89c:	e1e03003 	mvn	r3, r3
    b8a0:	e6ef3073 	uxtb	r3, r3
    b8a4:	e0023003 	and	r3, r2, r3
    b8a8:	e6ef2073 	uxtb	r2, r3
    b8ac:	e51b001c 	ldr	r0, [fp, #-28]	; 0xffffffe4
    b8b0:	e3a03008 	mov	r3, #8
    b8b4:	e0801001 	add	r1, r0, r1
    b8b8:	e0813003 	add	r3, r1, r3
    b8bc:	e5c32003 	strb	r2, [r3, #3]
    b8c0:	e55b2015 	ldrb	r2, [fp, #-21]	; 0xffffffeb
    b8c4:	e51b101c 	ldr	r1, [fp, #-28]	; 0xffffffe4
    b8c8:	e3a03008 	mov	r3, #8
    b8cc:	e0812002 	add	r2, r1, r2
    b8d0:	e0823003 	add	r3, r2, r3
    b8d4:	e5d33003 	ldrb	r3, [r3, #3]
    b8d8:	e3530000 	cmp	r3, #0
    b8dc:	1a000009 	bne	b908 <OSMutexPend+0x32c>
    b8e0:	e51b301c 	ldr	r3, [fp, #-28]	; 0xffffffe4
    b8e4:	e5d3200a 	ldrb	r2, [r3, #10]
    b8e8:	e51b3014 	ldr	r3, [fp, #-20]	; 0xffffffec
    b8ec:	e5d33032 	ldrb	r3, [r3, #50]	; 0x32
    b8f0:	e1e03003 	mvn	r3, r3
    b8f4:	e6ef3073 	uxtb	r3, r3
    b8f8:	e0023003 	and	r3, r2, r3
    b8fc:	e6ef2073 	uxtb	r2, r3
    b900:	e51b301c 	ldr	r3, [fp, #-28]	; 0xffffffe4
    b904:	e5c3200a 	strb	r2, [r3, #10]
    b908:	e3a03000 	mov	r3, #0
    b90c:	e54b3005 	strb	r3, [fp, #-5]
    b910:	e51b3014 	ldr	r3, [fp, #-20]	; 0xffffffec
    b914:	e55b200d 	ldrb	r2, [fp, #-13]
    b918:	e5c3202e 	strb	r2, [r3, #46]	; 0x2e
    b91c:	e51b3014 	ldr	r3, [fp, #-20]	; 0xffffffec
    b920:	e5d3302e 	ldrb	r3, [r3, #46]	; 0x2e
    b924:	e1a031a3 	lsr	r3, r3, #3
    b928:	e6ef2073 	uxtb	r2, r3
    b92c:	e51b3014 	ldr	r3, [fp, #-20]	; 0xffffffec
    b930:	e5c32030 	strb	r2, [r3, #48]	; 0x30
    b934:	e51b3014 	ldr	r3, [fp, #-20]	; 0xffffffec
    b938:	e5d3302e 	ldrb	r3, [r3, #46]	; 0x2e
    b93c:	e2033007 	and	r3, r3, #7
    b940:	e6ef2073 	uxtb	r2, r3
    b944:	e51b3014 	ldr	r3, [fp, #-20]	; 0xffffffec
    b948:	e5c3202f 	strb	r2, [r3, #47]	; 0x2f
    b94c:	e51b3014 	ldr	r3, [fp, #-20]	; 0xffffffec
    b950:	e5d33030 	ldrb	r3, [r3, #48]	; 0x30
    b954:	e3a02001 	mov	r2, #1
    b958:	e1a03312 	lsl	r3, r2, r3
    b95c:	e6ef2073 	uxtb	r2, r3
    b960:	e51b3014 	ldr	r3, [fp, #-20]	; 0xffffffec
    b964:	e5c32032 	strb	r2, [r3, #50]	; 0x32
    b968:	e51b3014 	ldr	r3, [fp, #-20]	; 0xffffffec
    b96c:	e5d3302f 	ldrb	r3, [r3, #47]	; 0x2f
    b970:	e3a02001 	mov	r2, #1
    b974:	e1a03312 	lsl	r3, r2, r3
    b978:	e6ef2073 	uxtb	r2, r3
    b97c:	e51b3014 	ldr	r3, [fp, #-20]	; 0xffffffec
    b980:	e5c32031 	strb	r2, [r3, #49]	; 0x31
    b984:	e55b3005 	ldrb	r3, [fp, #-5]
    b988:	e3530001 	cmp	r3, #1
    b98c:	1a00001a 	bne	b9fc <OSMutexPend+0x420>
    b990:	e51b3014 	ldr	r3, [fp, #-20]	; 0xffffffec
    b994:	e5d32032 	ldrb	r2, [r3, #50]	; 0x32
    b998:	e30a3f90 	movw	r3, #44944	; 0xaf90
    b99c:	e3403019 	movt	r3, #25
    b9a0:	e5d33000 	ldrb	r3, [r3]
    b9a4:	e1823003 	orr	r3, r2, r3
    b9a8:	e6ef2073 	uxtb	r2, r3
    b9ac:	e30a3f90 	movw	r3, #44944	; 0xaf90
    b9b0:	e3403019 	movt	r3, #25
    b9b4:	e5c32000 	strb	r2, [r3]
    b9b8:	e51b3014 	ldr	r3, [fp, #-20]	; 0xffffffec
    b9bc:	e5d33030 	ldrb	r3, [r3, #48]	; 0x30
    b9c0:	e1a02003 	mov	r2, r3
    b9c4:	e51b3014 	ldr	r3, [fp, #-20]	; 0xffffffec
    b9c8:	e5d33030 	ldrb	r3, [r3, #48]	; 0x30
    b9cc:	e1a01003 	mov	r1, r3
    b9d0:	e30a3f94 	movw	r3, #44948	; 0xaf94
    b9d4:	e3403019 	movt	r3, #25
    b9d8:	e7d31001 	ldrb	r1, [r3, r1]
    b9dc:	e51b3014 	ldr	r3, [fp, #-20]	; 0xffffffec
    b9e0:	e5d33031 	ldrb	r3, [r3, #49]	; 0x31
    b9e4:	e1813003 	orr	r3, r1, r3
    b9e8:	e6ef1073 	uxtb	r1, r3
    b9ec:	e30a3f94 	movw	r3, #44948	; 0xaf94
    b9f0:	e3403019 	movt	r3, #25
    b9f4:	e7c31002 	strb	r1, [r3, r2]
    b9f8:	ea000021 	b	ba84 <OSMutexPend+0x4a8>
    b9fc:	e51b3014 	ldr	r3, [fp, #-20]	; 0xffffffec
    ba00:	e593301c 	ldr	r3, [r3, #28]
    ba04:	e50b301c 	str	r3, [fp, #-28]	; 0xffffffe4
    ba08:	e51b301c 	ldr	r3, [fp, #-28]	; 0xffffffe4
    ba0c:	e3530000 	cmp	r3, #0
    ba10:	0a00001b 	beq	ba84 <OSMutexPend+0x4a8>
    ba14:	e51b301c 	ldr	r3, [fp, #-28]	; 0xffffffe4
    ba18:	e5d3200a 	ldrb	r2, [r3, #10]
    ba1c:	e51b3014 	ldr	r3, [fp, #-20]	; 0xffffffec
    ba20:	e5d33032 	ldrb	r3, [r3, #50]	; 0x32
    ba24:	e1823003 	orr	r3, r2, r3
    ba28:	e6ef2073 	uxtb	r2, r3
    ba2c:	e51b301c 	ldr	r3, [fp, #-28]	; 0xffffffe4
    ba30:	e5c3200a 	strb	r2, [r3, #10]
    ba34:	e51b3014 	ldr	r3, [fp, #-20]	; 0xffffffec
    ba38:	e5d33030 	ldrb	r3, [r3, #48]	; 0x30
    ba3c:	e1a01003 	mov	r1, r3
    ba40:	e51b3014 	ldr	r3, [fp, #-20]	; 0xffffffec
    ba44:	e5d33030 	ldrb	r3, [r3, #48]	; 0x30
    ba48:	e1a02003 	mov	r2, r3
    ba4c:	e51b001c 	ldr	r0, [fp, #-28]	; 0xffffffe4
    ba50:	e3a03008 	mov	r3, #8
    ba54:	e0802002 	add	r2, r0, r2
    ba58:	e0823003 	add	r3, r2, r3
    ba5c:	e5d32003 	ldrb	r2, [r3, #3]
    ba60:	e51b3014 	ldr	r3, [fp, #-20]	; 0xffffffec
    ba64:	e5d33031 	ldrb	r3, [r3, #49]	; 0x31
    ba68:	e1823003 	orr	r3, r2, r3
    ba6c:	e6ef2073 	uxtb	r2, r3
    ba70:	e51b001c 	ldr	r0, [fp, #-28]	; 0xffffffe4
    ba74:	e3a03008 	mov	r3, #8
    ba78:	e0801001 	add	r1, r0, r1
    ba7c:	e0813003 	add	r3, r1, r3
    ba80:	e5c32003 	strb	r2, [r3, #3]
    ba84:	e55b200d 	ldrb	r2, [fp, #-13]
    ba88:	e30b392c 	movw	r3, #47404	; 0xb92c
    ba8c:	e3403019 	movt	r3, #25
    ba90:	e51b1014 	ldr	r1, [fp, #-20]	; 0xffffffec
    ba94:	e7831102 	str	r1, [r3, r2, lsl #2]
    ba98:	e30a3fa4 	movw	r3, #44964	; 0xafa4
    ba9c:	e3403019 	movt	r3, #25
    baa0:	e5932000 	ldr	r2, [r3]
    baa4:	e30a3fa4 	movw	r3, #44964	; 0xafa4
    baa8:	e3403019 	movt	r3, #25
    baac:	e5933000 	ldr	r3, [r3]
    bab0:	e5d3302c 	ldrb	r3, [r3, #44]	; 0x2c
    bab4:	e3833010 	orr	r3, r3, #16
    bab8:	e6ef3073 	uxtb	r3, r3
    babc:	e5c2302c 	strb	r3, [r2, #44]	; 0x2c
    bac0:	e30a3fa4 	movw	r3, #44964	; 0xafa4
    bac4:	e3403019 	movt	r3, #25
    bac8:	e5933000 	ldr	r3, [r3]
    bacc:	e3a02000 	mov	r2, #0
    bad0:	e5c3202d 	strb	r2, [r3, #45]	; 0x2d
    bad4:	e30a3fa4 	movw	r3, #44964	; 0xafa4
    bad8:	e3403019 	movt	r3, #25
    badc:	e5933000 	ldr	r3, [r3]
    bae0:	e51b2024 	ldr	r2, [fp, #-36]	; 0xffffffdc
    bae4:	e5832028 	str	r2, [r3, #40]	; 0x28
    bae8:	e51b0020 	ldr	r0, [fp, #-32]	; 0xffffffe0
    baec:	ebfff591 	bl	9138 <OS_EventTaskWait>
    baf0:	e51b000c 	ldr	r0, [fp, #-12]
    baf4:	eb000e00 	bl	f2fc <OS_CPU_SR_Restore>
    baf8:	ebfff80e 	bl	9b38 <OS_Sched>
    bafc:	eb000deb 	bl	f2b0 <OS_CPU_SR_Save>
    bb00:	e50b000c 	str	r0, [fp, #-12]
    bb04:	e30a3fa4 	movw	r3, #44964	; 0xafa4
    bb08:	e3403019 	movt	r3, #25
    bb0c:	e5933000 	ldr	r3, [r3]
    bb10:	e5d3302d 	ldrb	r3, [r3, #45]	; 0x2d
    bb14:	e3530000 	cmp	r3, #0
    bb18:	0a000002 	beq	bb28 <OSMutexPend+0x54c>
    bb1c:	e3530002 	cmp	r3, #2
    bb20:	0a000004 	beq	bb38 <OSMutexPend+0x55c>
    bb24:	ea000007 	b	bb48 <OSMutexPend+0x56c>
    bb28:	e51b3028 	ldr	r3, [fp, #-40]	; 0xffffffd8
    bb2c:	e3a02000 	mov	r2, #0
    bb30:	e5c32000 	strb	r2, [r3]
    bb34:	ea00000d 	b	bb70 <OSMutexPend+0x594>
    bb38:	e51b3028 	ldr	r3, [fp, #-40]	; 0xffffffd8
    bb3c:	e3a0200e 	mov	r2, #14
    bb40:	e5c32000 	strb	r2, [r3]
    bb44:	ea000009 	b	bb70 <OSMutexPend+0x594>
    bb48:	e30a3fa4 	movw	r3, #44964	; 0xafa4
    bb4c:	e3403019 	movt	r3, #25
    bb50:	e5933000 	ldr	r3, [r3]
    bb54:	e1a00003 	mov	r0, r3
    bb58:	e51b1020 	ldr	r1, [fp, #-32]	; 0xffffffe0
    bb5c:	ebfff63b 	bl	9450 <OS_EventTaskRemove>
    bb60:	e51b3028 	ldr	r3, [fp, #-40]	; 0xffffffd8
    bb64:	e3a0200a 	mov	r2, #10
    bb68:	e5c32000 	strb	r2, [r3]
    bb6c:	e1a00000 	nop			; (mov r0, r0)
    bb70:	e30a3fa4 	movw	r3, #44964	; 0xafa4
    bb74:	e3403019 	movt	r3, #25
    bb78:	e5933000 	ldr	r3, [r3]
    bb7c:	e3a02000 	mov	r2, #0
    bb80:	e5c3202c 	strb	r2, [r3, #44]	; 0x2c
    bb84:	e30a3fa4 	movw	r3, #44964	; 0xafa4
    bb88:	e3403019 	movt	r3, #25
    bb8c:	e5933000 	ldr	r3, [r3]
    bb90:	e3a02000 	mov	r2, #0
    bb94:	e5c3202d 	strb	r2, [r3, #45]	; 0x2d
    bb98:	e30a3fa4 	movw	r3, #44964	; 0xafa4
    bb9c:	e3403019 	movt	r3, #25
    bba0:	e5933000 	ldr	r3, [r3]
    bba4:	e3a02000 	mov	r2, #0
    bba8:	e583201c 	str	r2, [r3, #28]
    bbac:	e30a3fa4 	movw	r3, #44964	; 0xafa4
    bbb0:	e3403019 	movt	r3, #25
    bbb4:	e5933000 	ldr	r3, [r3]
    bbb8:	e3a02000 	mov	r2, #0
    bbbc:	e5832020 	str	r2, [r3, #32]
    bbc0:	e51b000c 	ldr	r0, [fp, #-12]
    bbc4:	eb000dcc 	bl	f2fc <OS_CPU_SR_Restore>
    bbc8:	e24bd004 	sub	sp, fp, #4
    bbcc:	e8bd8800 	pop	{fp, pc}

0000bbd0 <OSMutexPost>:
    bbd0:	e92d4800 	push	{fp, lr}
    bbd4:	e28db004 	add	fp, sp, #4
    bbd8:	e24dd010 	sub	sp, sp, #16
    bbdc:	e50b0010 	str	r0, [fp, #-16]
    bbe0:	e3a03000 	mov	r3, #0
    bbe4:	e50b3008 	str	r3, [fp, #-8]
    bbe8:	e30a3fa0 	movw	r3, #44960	; 0xafa0
    bbec:	e3403019 	movt	r3, #25
    bbf0:	e5d33000 	ldrb	r3, [r3]
    bbf4:	e3530000 	cmp	r3, #0
    bbf8:	0a000001 	beq	bc04 <OSMutexPost+0x34>
    bbfc:	e3a03005 	mov	r3, #5
    bc00:	ea00006c 	b	bdb8 <OSMutexPost+0x1e8>
    bc04:	e51b3010 	ldr	r3, [fp, #-16]
    bc08:	e5d33000 	ldrb	r3, [r3]
    bc0c:	e3530004 	cmp	r3, #4
    bc10:	0a000001 	beq	bc1c <OSMutexPost+0x4c>
    bc14:	e3a03001 	mov	r3, #1
    bc18:	ea000066 	b	bdb8 <OSMutexPost+0x1e8>
    bc1c:	eb000da3 	bl	f2b0 <OS_CPU_SR_Save>
    bc20:	e50b0008 	str	r0, [fp, #-8]
    bc24:	e51b3010 	ldr	r3, [fp, #-16]
    bc28:	e1d330b8 	ldrh	r3, [r3, #8]
    bc2c:	e1a03423 	lsr	r3, r3, #8
    bc30:	e6ff3073 	uxth	r3, r3
    bc34:	e54b3009 	strb	r3, [fp, #-9]
    bc38:	e51b3010 	ldr	r3, [fp, #-16]
    bc3c:	e1d330b8 	ldrh	r3, [r3, #8]
    bc40:	e54b300a 	strb	r3, [fp, #-10]
    bc44:	e51b3010 	ldr	r3, [fp, #-16]
    bc48:	e5932004 	ldr	r2, [r3, #4]
    bc4c:	e30a3fa4 	movw	r3, #44964	; 0xafa4
    bc50:	e3403019 	movt	r3, #25
    bc54:	e5933000 	ldr	r3, [r3]
    bc58:	e1520003 	cmp	r2, r3
    bc5c:	0a000003 	beq	bc70 <OSMutexPost+0xa0>
    bc60:	e51b0008 	ldr	r0, [fp, #-8]
    bc64:	eb000da4 	bl	f2fc <OS_CPU_SR_Restore>
    bc68:	e3a03064 	mov	r3, #100	; 0x64
    bc6c:	ea000051 	b	bdb8 <OSMutexPost+0x1e8>
    bc70:	e55b3009 	ldrb	r3, [fp, #-9]
    bc74:	e35300ff 	cmp	r3, #255	; 0xff
    bc78:	0a000012 	beq	bcc8 <OSMutexPost+0xf8>
    bc7c:	e30a3fa4 	movw	r3, #44964	; 0xafa4
    bc80:	e3403019 	movt	r3, #25
    bc84:	e5933000 	ldr	r3, [r3]
    bc88:	e5d3302e 	ldrb	r3, [r3, #46]	; 0x2e
    bc8c:	e55b2009 	ldrb	r2, [fp, #-9]
    bc90:	e1520003 	cmp	r2, r3
    bc94:	1a000006 	bne	bcb4 <OSMutexPost+0xe4>
    bc98:	e30a3fa4 	movw	r3, #44964	; 0xafa4
    bc9c:	e3403019 	movt	r3, #25
    bca0:	e5932000 	ldr	r2, [r3]
    bca4:	e55b300a 	ldrb	r3, [fp, #-10]
    bca8:	e1a00002 	mov	r0, r2
    bcac:	e1a01003 	mov	r1, r3
    bcb0:	eb000092 	bl	bf00 <OSMutex_RdyAtPrio>
    bcb4:	e55b2009 	ldrb	r2, [fp, #-9]
    bcb8:	e30b392c 	movw	r3, #47404	; 0xb92c
    bcbc:	e3403019 	movt	r3, #25
    bcc0:	e3a01001 	mov	r1, #1
    bcc4:	e7831102 	str	r1, [r3, r2, lsl #2]
    bcc8:	e51b3010 	ldr	r3, [fp, #-16]
    bccc:	e5d3300a 	ldrb	r3, [r3, #10]
    bcd0:	e3530000 	cmp	r3, #0
    bcd4:	0a00002b 	beq	bd88 <OSMutexPost+0x1b8>
    bcd8:	e51b0010 	ldr	r0, [fp, #-16]
    bcdc:	e3a01000 	mov	r1, #0
    bce0:	e3a02010 	mov	r2, #16
    bce4:	e3a03000 	mov	r3, #0
    bce8:	ebfff4ae 	bl	8fa8 <OS_EventTaskRdy>
    bcec:	e1a03000 	mov	r3, r0
    bcf0:	e54b300a 	strb	r3, [fp, #-10]
    bcf4:	e51b3010 	ldr	r3, [fp, #-16]
    bcf8:	e1d330b8 	ldrh	r3, [r3, #8]
    bcfc:	e3c330ff 	bic	r3, r3, #255	; 0xff
    bd00:	e6ff2073 	uxth	r2, r3
    bd04:	e51b3010 	ldr	r3, [fp, #-16]
    bd08:	e1c320b8 	strh	r2, [r3, #8]
    bd0c:	e51b3010 	ldr	r3, [fp, #-16]
    bd10:	e1d320b8 	ldrh	r2, [r3, #8]
    bd14:	e55b300a 	ldrb	r3, [fp, #-10]
    bd18:	e6ff3073 	uxth	r3, r3
    bd1c:	e1823003 	orr	r3, r2, r3
    bd20:	e6ff2073 	uxth	r2, r3
    bd24:	e51b3010 	ldr	r3, [fp, #-16]
    bd28:	e1c320b8 	strh	r2, [r3, #8]
    bd2c:	e55b200a 	ldrb	r2, [fp, #-10]
    bd30:	e30b392c 	movw	r3, #47404	; 0xb92c
    bd34:	e3403019 	movt	r3, #25
    bd38:	e7932102 	ldr	r2, [r3, r2, lsl #2]
    bd3c:	e51b3010 	ldr	r3, [fp, #-16]
    bd40:	e5832004 	str	r2, [r3, #4]
    bd44:	e55b3009 	ldrb	r3, [fp, #-9]
    bd48:	e35300ff 	cmp	r3, #255	; 0xff
    bd4c:	0a000008 	beq	bd74 <OSMutexPost+0x1a4>
    bd50:	e55b200a 	ldrb	r2, [fp, #-10]
    bd54:	e55b3009 	ldrb	r3, [fp, #-9]
    bd58:	e1520003 	cmp	r2, r3
    bd5c:	8a000004 	bhi	bd74 <OSMutexPost+0x1a4>
    bd60:	e51b0008 	ldr	r0, [fp, #-8]
    bd64:	eb000d64 	bl	f2fc <OS_CPU_SR_Restore>
    bd68:	ebfff772 	bl	9b38 <OS_Sched>
    bd6c:	e3a03078 	mov	r3, #120	; 0x78
    bd70:	ea000010 	b	bdb8 <OSMutexPost+0x1e8>
    bd74:	e51b0008 	ldr	r0, [fp, #-8]
    bd78:	eb000d5f 	bl	f2fc <OS_CPU_SR_Restore>
    bd7c:	ebfff76d 	bl	9b38 <OS_Sched>
    bd80:	e3a03000 	mov	r3, #0
    bd84:	ea00000b 	b	bdb8 <OSMutexPost+0x1e8>
    bd88:	e51b3010 	ldr	r3, [fp, #-16]
    bd8c:	e1d330b8 	ldrh	r3, [r3, #8]
    bd90:	e38330ff 	orr	r3, r3, #255	; 0xff
    bd94:	e6ff2073 	uxth	r2, r3
    bd98:	e51b3010 	ldr	r3, [fp, #-16]
    bd9c:	e1c320b8 	strh	r2, [r3, #8]
    bda0:	e51b3010 	ldr	r3, [fp, #-16]
    bda4:	e3a02000 	mov	r2, #0
    bda8:	e5832004 	str	r2, [r3, #4]
    bdac:	e51b0008 	ldr	r0, [fp, #-8]
    bdb0:	eb000d51 	bl	f2fc <OS_CPU_SR_Restore>
    bdb4:	e3a03000 	mov	r3, #0
    bdb8:	e1a00003 	mov	r0, r3
    bdbc:	e24bd004 	sub	sp, fp, #4
    bdc0:	e8bd8800 	pop	{fp, pc}

0000bdc4 <OSMutexQuery>:
    bdc4:	e92d4800 	push	{fp, lr}
    bdc8:	e28db004 	add	fp, sp, #4
    bdcc:	e24dd018 	sub	sp, sp, #24
    bdd0:	e50b0018 	str	r0, [fp, #-24]	; 0xffffffe8
    bdd4:	e50b101c 	str	r1, [fp, #-28]	; 0xffffffe4
    bdd8:	e3a03000 	mov	r3, #0
    bddc:	e50b3014 	str	r3, [fp, #-20]	; 0xffffffec
    bde0:	e30a3fa0 	movw	r3, #44960	; 0xafa0
    bde4:	e3403019 	movt	r3, #25
    bde8:	e5d33000 	ldrb	r3, [r3]
    bdec:	e3530000 	cmp	r3, #0
    bdf0:	0a000001 	beq	bdfc <OSMutexQuery+0x38>
    bdf4:	e3a03006 	mov	r3, #6
    bdf8:	ea00003d 	b	bef4 <OSMutexQuery+0x130>
    bdfc:	e51b3018 	ldr	r3, [fp, #-24]	; 0xffffffe8
    be00:	e5d33000 	ldrb	r3, [r3]
    be04:	e3530004 	cmp	r3, #4
    be08:	0a000001 	beq	be14 <OSMutexQuery+0x50>
    be0c:	e3a03001 	mov	r3, #1
    be10:	ea000037 	b	bef4 <OSMutexQuery+0x130>
    be14:	eb000d25 	bl	f2b0 <OS_CPU_SR_Save>
    be18:	e50b0014 	str	r0, [fp, #-20]	; 0xffffffec
    be1c:	e51b3018 	ldr	r3, [fp, #-24]	; 0xffffffe8
    be20:	e1d330b8 	ldrh	r3, [r3, #8]
    be24:	e1a03423 	lsr	r3, r3, #8
    be28:	e6ff3073 	uxth	r3, r3
    be2c:	e6ef2073 	uxtb	r2, r3
    be30:	e51b301c 	ldr	r3, [fp, #-28]	; 0xffffffe4
    be34:	e5c3200b 	strb	r2, [r3, #11]
    be38:	e51b3018 	ldr	r3, [fp, #-24]	; 0xffffffe8
    be3c:	e1d330b8 	ldrh	r3, [r3, #8]
    be40:	e6ef2073 	uxtb	r2, r3
    be44:	e51b301c 	ldr	r3, [fp, #-28]	; 0xffffffe4
    be48:	e5c3200a 	strb	r2, [r3, #10]
    be4c:	e51b301c 	ldr	r3, [fp, #-28]	; 0xffffffe4
    be50:	e5d3300a 	ldrb	r3, [r3, #10]
    be54:	e35300ff 	cmp	r3, #255	; 0xff
    be58:	1a000003 	bne	be6c <OSMutexQuery+0xa8>
    be5c:	e51b301c 	ldr	r3, [fp, #-28]	; 0xffffffe4
    be60:	e3a02001 	mov	r2, #1
    be64:	e5c32009 	strb	r2, [r3, #9]
    be68:	ea000002 	b	be78 <OSMutexQuery+0xb4>
    be6c:	e51b301c 	ldr	r3, [fp, #-28]	; 0xffffffe4
    be70:	e3a02000 	mov	r2, #0
    be74:	e5c32009 	strb	r2, [r3, #9]
    be78:	e51b3018 	ldr	r3, [fp, #-24]	; 0xffffffe8
    be7c:	e5d3200a 	ldrb	r2, [r3, #10]
    be80:	e51b301c 	ldr	r3, [fp, #-28]	; 0xffffffe4
    be84:	e5c32008 	strb	r2, [r3, #8]
    be88:	e51b3018 	ldr	r3, [fp, #-24]	; 0xffffffe8
    be8c:	e283300b 	add	r3, r3, #11
    be90:	e50b300c 	str	r3, [fp, #-12]
    be94:	e51b301c 	ldr	r3, [fp, #-28]	; 0xffffffe4
    be98:	e50b3010 	str	r3, [fp, #-16]
    be9c:	e3a03000 	mov	r3, #0
    bea0:	e54b3005 	strb	r3, [fp, #-5]
    bea4:	ea00000c 	b	bedc <OSMutexQuery+0x118>
    bea8:	e51b300c 	ldr	r3, [fp, #-12]
    beac:	e5d32000 	ldrb	r2, [r3]
    beb0:	e51b3010 	ldr	r3, [fp, #-16]
    beb4:	e5c32000 	strb	r2, [r3]
    beb8:	e51b3010 	ldr	r3, [fp, #-16]
    bebc:	e2833001 	add	r3, r3, #1
    bec0:	e50b3010 	str	r3, [fp, #-16]
    bec4:	e51b300c 	ldr	r3, [fp, #-12]
    bec8:	e2833001 	add	r3, r3, #1
    becc:	e50b300c 	str	r3, [fp, #-12]
    bed0:	e55b3005 	ldrb	r3, [fp, #-5]
    bed4:	e2833001 	add	r3, r3, #1
    bed8:	e54b3005 	strb	r3, [fp, #-5]
    bedc:	e55b3005 	ldrb	r3, [fp, #-5]
    bee0:	e3530007 	cmp	r3, #7
    bee4:	9affffef 	bls	bea8 <OSMutexQuery+0xe4>
    bee8:	e51b0014 	ldr	r0, [fp, #-20]	; 0xffffffec
    beec:	eb000d02 	bl	f2fc <OS_CPU_SR_Restore>
    bef0:	e3a03000 	mov	r3, #0
    bef4:	e1a00003 	mov	r0, r3
    bef8:	e24bd004 	sub	sp, fp, #4
    befc:	e8bd8800 	pop	{fp, pc}

0000bf00 <OSMutex_RdyAtPrio>:
    bf00:	e52db004 	push	{fp}		; (str fp, [sp, #-4]!)
    bf04:	e28db000 	add	fp, sp, #0
    bf08:	e24dd014 	sub	sp, sp, #20
    bf0c:	e50b0010 	str	r0, [fp, #-16]
    bf10:	e1a03001 	mov	r3, r1
    bf14:	e54b3011 	strb	r3, [fp, #-17]	; 0xffffffef
    bf18:	e51b3010 	ldr	r3, [fp, #-16]
    bf1c:	e5d33030 	ldrb	r3, [r3, #48]	; 0x30
    bf20:	e54b3005 	strb	r3, [fp, #-5]
    bf24:	e55b2005 	ldrb	r2, [fp, #-5]
    bf28:	e55b1005 	ldrb	r1, [fp, #-5]
    bf2c:	e30a3f94 	movw	r3, #44948	; 0xaf94
    bf30:	e3403019 	movt	r3, #25
    bf34:	e7d31001 	ldrb	r1, [r3, r1]
    bf38:	e51b3010 	ldr	r3, [fp, #-16]
    bf3c:	e5d33031 	ldrb	r3, [r3, #49]	; 0x31
    bf40:	e1e03003 	mvn	r3, r3
    bf44:	e6ef3073 	uxtb	r3, r3
    bf48:	e0013003 	and	r3, r1, r3
    bf4c:	e6ef1073 	uxtb	r1, r3
    bf50:	e30a3f94 	movw	r3, #44948	; 0xaf94
    bf54:	e3403019 	movt	r3, #25
    bf58:	e7c31002 	strb	r1, [r3, r2]
    bf5c:	e55b2005 	ldrb	r2, [fp, #-5]
    bf60:	e30a3f94 	movw	r3, #44948	; 0xaf94
    bf64:	e3403019 	movt	r3, #25
    bf68:	e7d33002 	ldrb	r3, [r3, r2]
    bf6c:	e3530000 	cmp	r3, #0
    bf70:	1a00000b 	bne	bfa4 <OSMutex_RdyAtPrio+0xa4>
    bf74:	e51b3010 	ldr	r3, [fp, #-16]
    bf78:	e5d33032 	ldrb	r3, [r3, #50]	; 0x32
    bf7c:	e1e03003 	mvn	r3, r3
    bf80:	e6ef2073 	uxtb	r2, r3
    bf84:	e30a3f90 	movw	r3, #44944	; 0xaf90
    bf88:	e3403019 	movt	r3, #25
    bf8c:	e5d33000 	ldrb	r3, [r3]
    bf90:	e0023003 	and	r3, r2, r3
    bf94:	e6ef2073 	uxtb	r2, r3
    bf98:	e30a3f90 	movw	r3, #44944	; 0xaf90
    bf9c:	e3403019 	movt	r3, #25
    bfa0:	e5c32000 	strb	r2, [r3]
    bfa4:	e51b3010 	ldr	r3, [fp, #-16]
    bfa8:	e55b2011 	ldrb	r2, [fp, #-17]	; 0xffffffef
    bfac:	e5c3202e 	strb	r2, [r3, #46]	; 0x2e
    bfb0:	e30a3e95 	movw	r3, #44693	; 0xae95
    bfb4:	e3403019 	movt	r3, #25
    bfb8:	e55b2011 	ldrb	r2, [fp, #-17]	; 0xffffffef
    bfbc:	e5c32000 	strb	r2, [r3]
    bfc0:	e55b3011 	ldrb	r3, [fp, #-17]	; 0xffffffef
    bfc4:	e1a031a3 	lsr	r3, r3, #3
    bfc8:	e6ef3073 	uxtb	r3, r3
    bfcc:	e2033007 	and	r3, r3, #7
    bfd0:	e6ef2073 	uxtb	r2, r3
    bfd4:	e51b3010 	ldr	r3, [fp, #-16]
    bfd8:	e5c32030 	strb	r2, [r3, #48]	; 0x30
    bfdc:	e55b3011 	ldrb	r3, [fp, #-17]	; 0xffffffef
    bfe0:	e2033007 	and	r3, r3, #7
    bfe4:	e6ef2073 	uxtb	r2, r3
    bfe8:	e51b3010 	ldr	r3, [fp, #-16]
    bfec:	e5c3202f 	strb	r2, [r3, #47]	; 0x2f
    bff0:	e51b3010 	ldr	r3, [fp, #-16]
    bff4:	e5d33030 	ldrb	r3, [r3, #48]	; 0x30
    bff8:	e3a02001 	mov	r2, #1
    bffc:	e1a03312 	lsl	r3, r2, r3
    c000:	e6ef2073 	uxtb	r2, r3
    c004:	e51b3010 	ldr	r3, [fp, #-16]
    c008:	e5c32032 	strb	r2, [r3, #50]	; 0x32
    c00c:	e51b3010 	ldr	r3, [fp, #-16]
    c010:	e5d3302f 	ldrb	r3, [r3, #47]	; 0x2f
    c014:	e3a02001 	mov	r2, #1
    c018:	e1a03312 	lsl	r3, r2, r3
    c01c:	e6ef2073 	uxtb	r2, r3
    c020:	e51b3010 	ldr	r3, [fp, #-16]
    c024:	e5c32031 	strb	r2, [r3, #49]	; 0x31
    c028:	e51b3010 	ldr	r3, [fp, #-16]
    c02c:	e5d32032 	ldrb	r2, [r3, #50]	; 0x32
    c030:	e30a3f90 	movw	r3, #44944	; 0xaf90
    c034:	e3403019 	movt	r3, #25
    c038:	e5d33000 	ldrb	r3, [r3]
    c03c:	e1823003 	orr	r3, r2, r3
    c040:	e6ef2073 	uxtb	r2, r3
    c044:	e30a3f90 	movw	r3, #44944	; 0xaf90
    c048:	e3403019 	movt	r3, #25
    c04c:	e5c32000 	strb	r2, [r3]
    c050:	e51b3010 	ldr	r3, [fp, #-16]
    c054:	e5d33030 	ldrb	r3, [r3, #48]	; 0x30
    c058:	e1a02003 	mov	r2, r3
    c05c:	e51b3010 	ldr	r3, [fp, #-16]
    c060:	e5d33030 	ldrb	r3, [r3, #48]	; 0x30
    c064:	e1a01003 	mov	r1, r3
    c068:	e30a3f94 	movw	r3, #44948	; 0xaf94
    c06c:	e3403019 	movt	r3, #25
    c070:	e7d31001 	ldrb	r1, [r3, r1]
    c074:	e51b3010 	ldr	r3, [fp, #-16]
    c078:	e5d33031 	ldrb	r3, [r3, #49]	; 0x31
    c07c:	e1813003 	orr	r3, r1, r3
    c080:	e6ef1073 	uxtb	r1, r3
    c084:	e30a3f94 	movw	r3, #44948	; 0xaf94
    c088:	e3403019 	movt	r3, #25
    c08c:	e7c31002 	strb	r1, [r3, r2]
    c090:	e55b2011 	ldrb	r2, [fp, #-17]	; 0xffffffef
    c094:	e30b392c 	movw	r3, #47404	; 0xb92c
    c098:	e3403019 	movt	r3, #25
    c09c:	e51b1010 	ldr	r1, [fp, #-16]
    c0a0:	e7831102 	str	r1, [r3, r2, lsl #2]
    c0a4:	e28bd000 	add	sp, fp, #0
    c0a8:	e8bd0800 	ldmfd	sp!, {fp}
    c0ac:	e12fff1e 	bx	lr

0000c0b0 <OSQAccept>:
    c0b0:	e92d4800 	push	{fp, lr}
    c0b4:	e28db004 	add	fp, sp, #4
    c0b8:	e24dd018 	sub	sp, sp, #24
    c0bc:	e50b0018 	str	r0, [fp, #-24]	; 0xffffffe8
    c0c0:	e50b101c 	str	r1, [fp, #-28]	; 0xffffffe4
    c0c4:	e3a03000 	mov	r3, #0
    c0c8:	e50b300c 	str	r3, [fp, #-12]
    c0cc:	e51b3018 	ldr	r3, [fp, #-24]	; 0xffffffe8
    c0d0:	e5d33000 	ldrb	r3, [r3]
    c0d4:	e3530002 	cmp	r3, #2
    c0d8:	0a000004 	beq	c0f0 <OSQAccept+0x40>
    c0dc:	e51b301c 	ldr	r3, [fp, #-28]	; 0xffffffe4
    c0e0:	e3a02001 	mov	r2, #1
    c0e4:	e5c32000 	strb	r2, [r3]
    c0e8:	e3a03000 	mov	r3, #0
    c0ec:	ea00002b 	b	c1a0 <OSQAccept+0xf0>
    c0f0:	eb000c6e 	bl	f2b0 <OS_CPU_SR_Save>
    c0f4:	e50b000c 	str	r0, [fp, #-12]
    c0f8:	e51b3018 	ldr	r3, [fp, #-24]	; 0xffffffe8
    c0fc:	e5933004 	ldr	r3, [r3, #4]
    c100:	e50b3010 	str	r3, [fp, #-16]
    c104:	e51b3010 	ldr	r3, [fp, #-16]
    c108:	e1d331b6 	ldrh	r3, [r3, #22]
    c10c:	e3530000 	cmp	r3, #0
    c110:	0a00001a 	beq	c180 <OSQAccept+0xd0>
    c114:	e51b3010 	ldr	r3, [fp, #-16]
    c118:	e5933010 	ldr	r3, [r3, #16]
    c11c:	e5932000 	ldr	r2, [r3]
    c120:	e50b2008 	str	r2, [fp, #-8]
    c124:	e2832004 	add	r2, r3, #4
    c128:	e51b3010 	ldr	r3, [fp, #-16]
    c12c:	e5832010 	str	r2, [r3, #16]
    c130:	e51b3010 	ldr	r3, [fp, #-16]
    c134:	e1d331b6 	ldrh	r3, [r3, #22]
    c138:	e2433001 	sub	r3, r3, #1
    c13c:	e6ff2073 	uxth	r2, r3
    c140:	e51b3010 	ldr	r3, [fp, #-16]
    c144:	e1c321b6 	strh	r2, [r3, #22]
    c148:	e51b3010 	ldr	r3, [fp, #-16]
    c14c:	e5932010 	ldr	r2, [r3, #16]
    c150:	e51b3010 	ldr	r3, [fp, #-16]
    c154:	e5933008 	ldr	r3, [r3, #8]
    c158:	e1520003 	cmp	r2, r3
    c15c:	1a000003 	bne	c170 <OSQAccept+0xc0>
    c160:	e51b3010 	ldr	r3, [fp, #-16]
    c164:	e5932004 	ldr	r2, [r3, #4]
    c168:	e51b3010 	ldr	r3, [fp, #-16]
    c16c:	e5832010 	str	r2, [r3, #16]
    c170:	e51b301c 	ldr	r3, [fp, #-28]	; 0xffffffe4
    c174:	e3a02000 	mov	r2, #0
    c178:	e5c32000 	strb	r2, [r3]
    c17c:	ea000004 	b	c194 <OSQAccept+0xe4>
    c180:	e51b301c 	ldr	r3, [fp, #-28]	; 0xffffffe4
    c184:	e3a0201f 	mov	r2, #31
    c188:	e5c32000 	strb	r2, [r3]
    c18c:	e3a03000 	mov	r3, #0
    c190:	e50b3008 	str	r3, [fp, #-8]
    c194:	e51b000c 	ldr	r0, [fp, #-12]
    c198:	eb000c57 	bl	f2fc <OS_CPU_SR_Restore>
    c19c:	e51b3008 	ldr	r3, [fp, #-8]
    c1a0:	e1a00003 	mov	r0, r3
    c1a4:	e24bd004 	sub	sp, fp, #4
    c1a8:	e8bd8800 	pop	{fp, pc}

0000c1ac <OSQCreate>:
    c1ac:	e92d4800 	push	{fp, lr}
    c1b0:	e28db004 	add	fp, sp, #4
    c1b4:	e24dd018 	sub	sp, sp, #24
    c1b8:	e50b0018 	str	r0, [fp, #-24]	; 0xffffffe8
    c1bc:	e1a03001 	mov	r3, r1
    c1c0:	e14b31ba 	strh	r3, [fp, #-26]	; 0xffffffe6
    c1c4:	e3a03000 	mov	r3, #0
    c1c8:	e50b300c 	str	r3, [fp, #-12]
    c1cc:	e30a3fa0 	movw	r3, #44960	; 0xafa0
    c1d0:	e3403019 	movt	r3, #25
    c1d4:	e5d33000 	ldrb	r3, [r3]
    c1d8:	e3530000 	cmp	r3, #0
    c1dc:	0a000001 	beq	c1e8 <OSQCreate+0x3c>
    c1e0:	e3a03000 	mov	r3, #0
    c1e4:	ea00005b 	b	c358 <OSQCreate+0x1ac>
    c1e8:	eb000c30 	bl	f2b0 <OS_CPU_SR_Save>
    c1ec:	e50b000c 	str	r0, [fp, #-12]
    c1f0:	e30a3f9c 	movw	r3, #44956	; 0xaf9c
    c1f4:	e3403019 	movt	r3, #25
    c1f8:	e5933000 	ldr	r3, [r3]
    c1fc:	e50b3008 	str	r3, [fp, #-8]
    c200:	e30a3f9c 	movw	r3, #44956	; 0xaf9c
    c204:	e3403019 	movt	r3, #25
    c208:	e5933000 	ldr	r3, [r3]
    c20c:	e3530000 	cmp	r3, #0
    c210:	0a000006 	beq	c230 <OSQCreate+0x84>
    c214:	e30a3f9c 	movw	r3, #44956	; 0xaf9c
    c218:	e3403019 	movt	r3, #25
    c21c:	e5933000 	ldr	r3, [r3]
    c220:	e5932004 	ldr	r2, [r3, #4]
    c224:	e30a3f9c 	movw	r3, #44956	; 0xaf9c
    c228:	e3403019 	movt	r3, #25
    c22c:	e5832000 	str	r2, [r3]
    c230:	e51b000c 	ldr	r0, [fp, #-12]
    c234:	eb000c30 	bl	f2fc <OS_CPU_SR_Restore>
    c238:	e51b3008 	ldr	r3, [fp, #-8]
    c23c:	e3530000 	cmp	r3, #0
    c240:	0a000043 	beq	c354 <OSQCreate+0x1a8>
    c244:	eb000c19 	bl	f2b0 <OS_CPU_SR_Save>
    c248:	e50b000c 	str	r0, [fp, #-12]
    c24c:	e30a3f8c 	movw	r3, #44940	; 0xaf8c
    c250:	e3403019 	movt	r3, #25
    c254:	e5933000 	ldr	r3, [r3]
    c258:	e50b3010 	str	r3, [fp, #-16]
    c25c:	e51b3010 	ldr	r3, [fp, #-16]
    c260:	e3530000 	cmp	r3, #0
    c264:	0a00002d 	beq	c320 <OSQCreate+0x174>
    c268:	e30a3f8c 	movw	r3, #44940	; 0xaf8c
    c26c:	e3403019 	movt	r3, #25
    c270:	e5933000 	ldr	r3, [r3]
    c274:	e5932000 	ldr	r2, [r3]
    c278:	e30a3f8c 	movw	r3, #44940	; 0xaf8c
    c27c:	e3403019 	movt	r3, #25
    c280:	e5832000 	str	r2, [r3]
    c284:	e51b000c 	ldr	r0, [fp, #-12]
    c288:	eb000c1b 	bl	f2fc <OS_CPU_SR_Restore>
    c28c:	e51b3010 	ldr	r3, [fp, #-16]
    c290:	e51b2018 	ldr	r2, [fp, #-24]	; 0xffffffe8
    c294:	e5832004 	str	r2, [r3, #4]
    c298:	e15b31ba 	ldrh	r3, [fp, #-26]	; 0xffffffe6
    c29c:	e1a03103 	lsl	r3, r3, #2
    c2a0:	e51b2018 	ldr	r2, [fp, #-24]	; 0xffffffe8
    c2a4:	e0822003 	add	r2, r2, r3
    c2a8:	e51b3010 	ldr	r3, [fp, #-16]
    c2ac:	e5832008 	str	r2, [r3, #8]
    c2b0:	e51b3010 	ldr	r3, [fp, #-16]
    c2b4:	e51b2018 	ldr	r2, [fp, #-24]	; 0xffffffe8
    c2b8:	e583200c 	str	r2, [r3, #12]
    c2bc:	e51b3010 	ldr	r3, [fp, #-16]
    c2c0:	e51b2018 	ldr	r2, [fp, #-24]	; 0xffffffe8
    c2c4:	e5832010 	str	r2, [r3, #16]
    c2c8:	e51b3010 	ldr	r3, [fp, #-16]
    c2cc:	e15b21ba 	ldrh	r2, [fp, #-26]	; 0xffffffe6
    c2d0:	e1c321b4 	strh	r2, [r3, #20]
    c2d4:	e51b3010 	ldr	r3, [fp, #-16]
    c2d8:	e3a02000 	mov	r2, #0
    c2dc:	e1c321b6 	strh	r2, [r3, #22]
    c2e0:	e51b3008 	ldr	r3, [fp, #-8]
    c2e4:	e3a02002 	mov	r2, #2
    c2e8:	e5c32000 	strb	r2, [r3]
    c2ec:	e51b3008 	ldr	r3, [fp, #-8]
    c2f0:	e3a02000 	mov	r2, #0
    c2f4:	e1c320b8 	strh	r2, [r3, #8]
    c2f8:	e51b3008 	ldr	r3, [fp, #-8]
    c2fc:	e51b2010 	ldr	r2, [fp, #-16]
    c300:	e5832004 	str	r2, [r3, #4]
    c304:	e51b2008 	ldr	r2, [fp, #-8]
    c308:	e307374c 	movw	r3, #30540	; 0x774c
    c30c:	e3403001 	movt	r3, #1
    c310:	e5823014 	str	r3, [r2, #20]
    c314:	e51b0008 	ldr	r0, [fp, #-8]
    c318:	ebfff4bd 	bl	9614 <OS_EventWaitListInit>
    c31c:	ea00000c 	b	c354 <OSQCreate+0x1a8>
    c320:	e30a3f9c 	movw	r3, #44956	; 0xaf9c
    c324:	e3403019 	movt	r3, #25
    c328:	e5932000 	ldr	r2, [r3]
    c32c:	e51b3008 	ldr	r3, [fp, #-8]
    c330:	e5832004 	str	r2, [r3, #4]
    c334:	e30a3f9c 	movw	r3, #44956	; 0xaf9c
    c338:	e3403019 	movt	r3, #25
    c33c:	e51b2008 	ldr	r2, [fp, #-8]
    c340:	e5832000 	str	r2, [r3]
    c344:	e51b000c 	ldr	r0, [fp, #-12]
    c348:	eb000beb 	bl	f2fc <OS_CPU_SR_Restore>
    c34c:	e3a03000 	mov	r3, #0
    c350:	e50b3008 	str	r3, [fp, #-8]
    c354:	e51b3008 	ldr	r3, [fp, #-8]
    c358:	e1a00003 	mov	r0, r3
    c35c:	e24bd004 	sub	sp, fp, #4
    c360:	e8bd8800 	pop	{fp, pc}

0000c364 <OSQDel>:
    c364:	e92d4800 	push	{fp, lr}
    c368:	e28db004 	add	fp, sp, #4
    c36c:	e24dd020 	sub	sp, sp, #32
    c370:	e50b0018 	str	r0, [fp, #-24]	; 0xffffffe8
    c374:	e1a03001 	mov	r3, r1
    c378:	e50b2020 	str	r2, [fp, #-32]	; 0xffffffe0
    c37c:	e54b3019 	strb	r3, [fp, #-25]	; 0xffffffe7
    c380:	e3a03000 	mov	r3, #0
    c384:	e50b3010 	str	r3, [fp, #-16]
    c388:	e51b3018 	ldr	r3, [fp, #-24]	; 0xffffffe8
    c38c:	e5d33000 	ldrb	r3, [r3]
    c390:	e3530002 	cmp	r3, #2
    c394:	0a000004 	beq	c3ac <OSQDel+0x48>
    c398:	e51b3020 	ldr	r3, [fp, #-32]	; 0xffffffe0
    c39c:	e3a02001 	mov	r2, #1
    c3a0:	e5c32000 	strb	r2, [r3]
    c3a4:	e51b3018 	ldr	r3, [fp, #-24]	; 0xffffffe8
    c3a8:	ea00008b 	b	c5dc <OSQDel+0x278>
    c3ac:	e30a3fa0 	movw	r3, #44960	; 0xafa0
    c3b0:	e3403019 	movt	r3, #25
    c3b4:	e5d33000 	ldrb	r3, [r3]
    c3b8:	e3530000 	cmp	r3, #0
    c3bc:	0a000004 	beq	c3d4 <OSQDel+0x70>
    c3c0:	e51b3020 	ldr	r3, [fp, #-32]	; 0xffffffe0
    c3c4:	e3a0200f 	mov	r2, #15
    c3c8:	e5c32000 	strb	r2, [r3]
    c3cc:	e51b3018 	ldr	r3, [fp, #-24]	; 0xffffffe8
    c3d0:	ea000081 	b	c5dc <OSQDel+0x278>
    c3d4:	eb000bb5 	bl	f2b0 <OS_CPU_SR_Save>
    c3d8:	e50b0010 	str	r0, [fp, #-16]
    c3dc:	e51b3018 	ldr	r3, [fp, #-24]	; 0xffffffe8
    c3e0:	e5d3300a 	ldrb	r3, [r3, #10]
    c3e4:	e3530000 	cmp	r3, #0
    c3e8:	0a000002 	beq	c3f8 <OSQDel+0x94>
    c3ec:	e3a03001 	mov	r3, #1
    c3f0:	e54b3005 	strb	r3, [fp, #-5]
    c3f4:	ea000001 	b	c400 <OSQDel+0x9c>
    c3f8:	e3a03000 	mov	r3, #0
    c3fc:	e54b3005 	strb	r3, [fp, #-5]
    c400:	e55b3019 	ldrb	r3, [fp, #-25]	; 0xffffffe7
    c404:	e3530000 	cmp	r3, #0
    c408:	0a000002 	beq	c418 <OSQDel+0xb4>
    c40c:	e3530001 	cmp	r3, #1
    c410:	0a000038 	beq	c4f8 <OSQDel+0x194>
    c414:	ea000067 	b	c5b8 <OSQDel+0x254>
    c418:	e55b3005 	ldrb	r3, [fp, #-5]
    c41c:	e3530000 	cmp	r3, #0
    c420:	1a000026 	bne	c4c0 <OSQDel+0x15c>
    c424:	e51b2018 	ldr	r2, [fp, #-24]	; 0xffffffe8
    c428:	e307374c 	movw	r3, #30540	; 0x774c
    c42c:	e3403001 	movt	r3, #1
    c430:	e5823014 	str	r3, [r2, #20]
    c434:	e51b3018 	ldr	r3, [fp, #-24]	; 0xffffffe8
    c438:	e5933004 	ldr	r3, [r3, #4]
    c43c:	e50b3014 	str	r3, [fp, #-20]	; 0xffffffec
    c440:	e30a3f8c 	movw	r3, #44940	; 0xaf8c
    c444:	e3403019 	movt	r3, #25
    c448:	e5932000 	ldr	r2, [r3]
    c44c:	e51b3014 	ldr	r3, [fp, #-20]	; 0xffffffec
    c450:	e5832000 	str	r2, [r3]
    c454:	e30a3f8c 	movw	r3, #44940	; 0xaf8c
    c458:	e3403019 	movt	r3, #25
    c45c:	e51b2014 	ldr	r2, [fp, #-20]	; 0xffffffec
    c460:	e5832000 	str	r2, [r3]
    c464:	e51b3018 	ldr	r3, [fp, #-24]	; 0xffffffe8
    c468:	e3a02000 	mov	r2, #0
    c46c:	e5c32000 	strb	r2, [r3]
    c470:	e30a3f9c 	movw	r3, #44956	; 0xaf9c
    c474:	e3403019 	movt	r3, #25
    c478:	e5932000 	ldr	r2, [r3]
    c47c:	e51b3018 	ldr	r3, [fp, #-24]	; 0xffffffe8
    c480:	e5832004 	str	r2, [r3, #4]
    c484:	e51b3018 	ldr	r3, [fp, #-24]	; 0xffffffe8
    c488:	e3a02000 	mov	r2, #0
    c48c:	e1c320b8 	strh	r2, [r3, #8]
    c490:	e30a3f9c 	movw	r3, #44956	; 0xaf9c
    c494:	e3403019 	movt	r3, #25
    c498:	e51b2018 	ldr	r2, [fp, #-24]	; 0xffffffe8
    c49c:	e5832000 	str	r2, [r3]
    c4a0:	e51b0010 	ldr	r0, [fp, #-16]
    c4a4:	eb000b94 	bl	f2fc <OS_CPU_SR_Restore>
    c4a8:	e51b3020 	ldr	r3, [fp, #-32]	; 0xffffffe0
    c4ac:	e3a02000 	mov	r2, #0
    c4b0:	e5c32000 	strb	r2, [r3]
    c4b4:	e3a03000 	mov	r3, #0
    c4b8:	e50b300c 	str	r3, [fp, #-12]
    c4bc:	ea000045 	b	c5d8 <OSQDel+0x274>
    c4c0:	e51b0010 	ldr	r0, [fp, #-16]
    c4c4:	eb000b8c 	bl	f2fc <OS_CPU_SR_Restore>
    c4c8:	e51b3020 	ldr	r3, [fp, #-32]	; 0xffffffe0
    c4cc:	e3a02049 	mov	r2, #73	; 0x49
    c4d0:	e5c32000 	strb	r2, [r3]
    c4d4:	e51b3018 	ldr	r3, [fp, #-24]	; 0xffffffe8
    c4d8:	e50b300c 	str	r3, [fp, #-12]
    c4dc:	ea00003d 	b	c5d8 <OSQDel+0x274>
    c4e0:	e51b0018 	ldr	r0, [fp, #-24]	; 0xffffffe8
    c4e4:	e3a01000 	mov	r1, #0
    c4e8:	e3a02004 	mov	r2, #4
    c4ec:	e3a03002 	mov	r3, #2
    c4f0:	ebfff2ac 	bl	8fa8 <OS_EventTaskRdy>
    c4f4:	ea000000 	b	c4fc <OSQDel+0x198>
    c4f8:	e1a00000 	nop			; (mov r0, r0)
    c4fc:	e51b3018 	ldr	r3, [fp, #-24]	; 0xffffffe8
    c500:	e5d3300a 	ldrb	r3, [r3, #10]
    c504:	e3530000 	cmp	r3, #0
    c508:	1afffff4 	bne	c4e0 <OSQDel+0x17c>
    c50c:	e51b2018 	ldr	r2, [fp, #-24]	; 0xffffffe8
    c510:	e307374c 	movw	r3, #30540	; 0x774c
    c514:	e3403001 	movt	r3, #1
    c518:	e5823014 	str	r3, [r2, #20]
    c51c:	e51b3018 	ldr	r3, [fp, #-24]	; 0xffffffe8
    c520:	e5933004 	ldr	r3, [r3, #4]
    c524:	e50b3014 	str	r3, [fp, #-20]	; 0xffffffec
    c528:	e30a3f8c 	movw	r3, #44940	; 0xaf8c
    c52c:	e3403019 	movt	r3, #25
    c530:	e5932000 	ldr	r2, [r3]
    c534:	e51b3014 	ldr	r3, [fp, #-20]	; 0xffffffec
    c538:	e5832000 	str	r2, [r3]
    c53c:	e30a3f8c 	movw	r3, #44940	; 0xaf8c
    c540:	e3403019 	movt	r3, #25
    c544:	e51b2014 	ldr	r2, [fp, #-20]	; 0xffffffec
    c548:	e5832000 	str	r2, [r3]
    c54c:	e51b3018 	ldr	r3, [fp, #-24]	; 0xffffffe8
    c550:	e3a02000 	mov	r2, #0
    c554:	e5c32000 	strb	r2, [r3]
    c558:	e30a3f9c 	movw	r3, #44956	; 0xaf9c
    c55c:	e3403019 	movt	r3, #25
    c560:	e5932000 	ldr	r2, [r3]
    c564:	e51b3018 	ldr	r3, [fp, #-24]	; 0xffffffe8
    c568:	e5832004 	str	r2, [r3, #4]
    c56c:	e51b3018 	ldr	r3, [fp, #-24]	; 0xffffffe8
    c570:	e3a02000 	mov	r2, #0
    c574:	e1c320b8 	strh	r2, [r3, #8]
    c578:	e30a3f9c 	movw	r3, #44956	; 0xaf9c
    c57c:	e3403019 	movt	r3, #25
    c580:	e51b2018 	ldr	r2, [fp, #-24]	; 0xffffffe8
    c584:	e5832000 	str	r2, [r3]
    c588:	e51b0010 	ldr	r0, [fp, #-16]
    c58c:	eb000b5a 	bl	f2fc <OS_CPU_SR_Restore>
    c590:	e55b3005 	ldrb	r3, [fp, #-5]
    c594:	e3530001 	cmp	r3, #1
    c598:	1a000000 	bne	c5a0 <OSQDel+0x23c>
    c59c:	ebfff565 	bl	9b38 <OS_Sched>
    c5a0:	e51b3020 	ldr	r3, [fp, #-32]	; 0xffffffe0
    c5a4:	e3a02000 	mov	r2, #0
    c5a8:	e5c32000 	strb	r2, [r3]
    c5ac:	e3a03000 	mov	r3, #0
    c5b0:	e50b300c 	str	r3, [fp, #-12]
    c5b4:	ea000007 	b	c5d8 <OSQDel+0x274>
    c5b8:	e51b0010 	ldr	r0, [fp, #-16]
    c5bc:	eb000b4e 	bl	f2fc <OS_CPU_SR_Restore>
    c5c0:	e51b3020 	ldr	r3, [fp, #-32]	; 0xffffffe0
    c5c4:	e3a02007 	mov	r2, #7
    c5c8:	e5c32000 	strb	r2, [r3]
    c5cc:	e51b3018 	ldr	r3, [fp, #-24]	; 0xffffffe8
    c5d0:	e50b300c 	str	r3, [fp, #-12]
    c5d4:	e1a00000 	nop			; (mov r0, r0)
    c5d8:	e51b300c 	ldr	r3, [fp, #-12]
    c5dc:	e1a00003 	mov	r0, r3
    c5e0:	e24bd004 	sub	sp, fp, #4
    c5e4:	e8bd8800 	pop	{fp, pc}

0000c5e8 <OSQFlush>:
    c5e8:	e92d4800 	push	{fp, lr}
    c5ec:	e28db004 	add	fp, sp, #4
    c5f0:	e24dd010 	sub	sp, sp, #16
    c5f4:	e50b0010 	str	r0, [fp, #-16]
    c5f8:	e3a03000 	mov	r3, #0
    c5fc:	e50b3008 	str	r3, [fp, #-8]
    c600:	eb000b2a 	bl	f2b0 <OS_CPU_SR_Save>
    c604:	e50b0008 	str	r0, [fp, #-8]
    c608:	e51b3010 	ldr	r3, [fp, #-16]
    c60c:	e5933004 	ldr	r3, [r3, #4]
    c610:	e50b300c 	str	r3, [fp, #-12]
    c614:	e51b300c 	ldr	r3, [fp, #-12]
    c618:	e5932004 	ldr	r2, [r3, #4]
    c61c:	e51b300c 	ldr	r3, [fp, #-12]
    c620:	e583200c 	str	r2, [r3, #12]
    c624:	e51b300c 	ldr	r3, [fp, #-12]
    c628:	e5932004 	ldr	r2, [r3, #4]
    c62c:	e51b300c 	ldr	r3, [fp, #-12]
    c630:	e5832010 	str	r2, [r3, #16]
    c634:	e51b300c 	ldr	r3, [fp, #-12]
    c638:	e3a02000 	mov	r2, #0
    c63c:	e1c321b6 	strh	r2, [r3, #22]
    c640:	e51b0008 	ldr	r0, [fp, #-8]
    c644:	eb000b2c 	bl	f2fc <OS_CPU_SR_Restore>
    c648:	e3a03000 	mov	r3, #0
    c64c:	e1a00003 	mov	r0, r3
    c650:	e24bd004 	sub	sp, fp, #4
    c654:	e8bd8800 	pop	{fp, pc}

0000c658 <OSQPend>:
    c658:	e92d4800 	push	{fp, lr}
    c65c:	e28db004 	add	fp, sp, #4
    c660:	e24dd020 	sub	sp, sp, #32
    c664:	e50b0018 	str	r0, [fp, #-24]	; 0xffffffe8
    c668:	e50b101c 	str	r1, [fp, #-28]	; 0xffffffe4
    c66c:	e50b2020 	str	r2, [fp, #-32]	; 0xffffffe0
    c670:	e3a03000 	mov	r3, #0
    c674:	e50b300c 	str	r3, [fp, #-12]
    c678:	e51b3018 	ldr	r3, [fp, #-24]	; 0xffffffe8
    c67c:	e5d33000 	ldrb	r3, [r3]
    c680:	e3530002 	cmp	r3, #2
    c684:	0a000004 	beq	c69c <OSQPend+0x44>
    c688:	e51b3020 	ldr	r3, [fp, #-32]	; 0xffffffe0
    c68c:	e3a02001 	mov	r2, #1
    c690:	e5c32000 	strb	r2, [r3]
    c694:	e3a03000 	mov	r3, #0
    c698:	ea000095 	b	c8f4 <OSQPend+0x29c>
    c69c:	e30a3fa0 	movw	r3, #44960	; 0xafa0
    c6a0:	e3403019 	movt	r3, #25
    c6a4:	e5d33000 	ldrb	r3, [r3]
    c6a8:	e3530000 	cmp	r3, #0
    c6ac:	0a000004 	beq	c6c4 <OSQPend+0x6c>
    c6b0:	e51b3020 	ldr	r3, [fp, #-32]	; 0xffffffe0
    c6b4:	e3a02002 	mov	r2, #2
    c6b8:	e5c32000 	strb	r2, [r3]
    c6bc:	e3a03000 	mov	r3, #0
    c6c0:	ea00008b 	b	c8f4 <OSQPend+0x29c>
    c6c4:	e30a3e8c 	movw	r3, #44684	; 0xae8c
    c6c8:	e3403019 	movt	r3, #25
    c6cc:	e5d33000 	ldrb	r3, [r3]
    c6d0:	e3530000 	cmp	r3, #0
    c6d4:	0a000004 	beq	c6ec <OSQPend+0x94>
    c6d8:	e51b3020 	ldr	r3, [fp, #-32]	; 0xffffffe0
    c6dc:	e3a0200d 	mov	r2, #13
    c6e0:	e5c32000 	strb	r2, [r3]
    c6e4:	e3a03000 	mov	r3, #0
    c6e8:	ea000081 	b	c8f4 <OSQPend+0x29c>
    c6ec:	eb000aef 	bl	f2b0 <OS_CPU_SR_Save>
    c6f0:	e50b000c 	str	r0, [fp, #-12]
    c6f4:	e51b3018 	ldr	r3, [fp, #-24]	; 0xffffffe8
    c6f8:	e5933004 	ldr	r3, [r3, #4]
    c6fc:	e50b3010 	str	r3, [fp, #-16]
    c700:	e51b3010 	ldr	r3, [fp, #-16]
    c704:	e1d331b6 	ldrh	r3, [r3, #22]
    c708:	e3530000 	cmp	r3, #0
    c70c:	0a00001d 	beq	c788 <OSQPend+0x130>
    c710:	e51b3010 	ldr	r3, [fp, #-16]
    c714:	e5933010 	ldr	r3, [r3, #16]
    c718:	e5932000 	ldr	r2, [r3]
    c71c:	e50b2008 	str	r2, [fp, #-8]
    c720:	e2832004 	add	r2, r3, #4
    c724:	e51b3010 	ldr	r3, [fp, #-16]
    c728:	e5832010 	str	r2, [r3, #16]
    c72c:	e51b3010 	ldr	r3, [fp, #-16]
    c730:	e1d331b6 	ldrh	r3, [r3, #22]
    c734:	e2433001 	sub	r3, r3, #1
    c738:	e6ff2073 	uxth	r2, r3
    c73c:	e51b3010 	ldr	r3, [fp, #-16]
    c740:	e1c321b6 	strh	r2, [r3, #22]
    c744:	e51b3010 	ldr	r3, [fp, #-16]
    c748:	e5932010 	ldr	r2, [r3, #16]
    c74c:	e51b3010 	ldr	r3, [fp, #-16]
    c750:	e5933008 	ldr	r3, [r3, #8]
    c754:	e1520003 	cmp	r2, r3
    c758:	1a000003 	bne	c76c <OSQPend+0x114>
    c75c:	e51b3010 	ldr	r3, [fp, #-16]
    c760:	e5932004 	ldr	r2, [r3, #4]
    c764:	e51b3010 	ldr	r3, [fp, #-16]
    c768:	e5832010 	str	r2, [r3, #16]
    c76c:	e51b000c 	ldr	r0, [fp, #-12]
    c770:	eb000ae1 	bl	f2fc <OS_CPU_SR_Restore>
    c774:	e51b3020 	ldr	r3, [fp, #-32]	; 0xffffffe0
    c778:	e3a02000 	mov	r2, #0
    c77c:	e5c32000 	strb	r2, [r3]
    c780:	e51b3008 	ldr	r3, [fp, #-8]
    c784:	ea00005a 	b	c8f4 <OSQPend+0x29c>
    c788:	e30a3fa4 	movw	r3, #44964	; 0xafa4
    c78c:	e3403019 	movt	r3, #25
    c790:	e5932000 	ldr	r2, [r3]
    c794:	e30a3fa4 	movw	r3, #44964	; 0xafa4
    c798:	e3403019 	movt	r3, #25
    c79c:	e5933000 	ldr	r3, [r3]
    c7a0:	e5d3302c 	ldrb	r3, [r3, #44]	; 0x2c
    c7a4:	e3833004 	orr	r3, r3, #4
    c7a8:	e6ef3073 	uxtb	r3, r3
    c7ac:	e5c2302c 	strb	r3, [r2, #44]	; 0x2c
    c7b0:	e30a3fa4 	movw	r3, #44964	; 0xafa4
    c7b4:	e3403019 	movt	r3, #25
    c7b8:	e5933000 	ldr	r3, [r3]
    c7bc:	e3a02000 	mov	r2, #0
    c7c0:	e5c3202d 	strb	r2, [r3, #45]	; 0x2d
    c7c4:	e30a3fa4 	movw	r3, #44964	; 0xafa4
    c7c8:	e3403019 	movt	r3, #25
    c7cc:	e5933000 	ldr	r3, [r3]
    c7d0:	e51b201c 	ldr	r2, [fp, #-28]	; 0xffffffe4
    c7d4:	e5832028 	str	r2, [r3, #40]	; 0x28
    c7d8:	e51b0018 	ldr	r0, [fp, #-24]	; 0xffffffe8
    c7dc:	ebfff255 	bl	9138 <OS_EventTaskWait>
    c7e0:	e51b000c 	ldr	r0, [fp, #-12]
    c7e4:	eb000ac4 	bl	f2fc <OS_CPU_SR_Restore>
    c7e8:	ebfff4d2 	bl	9b38 <OS_Sched>
    c7ec:	eb000aaf 	bl	f2b0 <OS_CPU_SR_Save>
    c7f0:	e50b000c 	str	r0, [fp, #-12]
    c7f4:	e30a3fa4 	movw	r3, #44964	; 0xafa4
    c7f8:	e3403019 	movt	r3, #25
    c7fc:	e5933000 	ldr	r3, [r3]
    c800:	e5d3302d 	ldrb	r3, [r3, #45]	; 0x2d
    c804:	e3530000 	cmp	r3, #0
    c808:	0a000002 	beq	c818 <OSQPend+0x1c0>
    c80c:	e3530002 	cmp	r3, #2
    c810:	0a000009 	beq	c83c <OSQPend+0x1e4>
    c814:	ea00000e 	b	c854 <OSQPend+0x1fc>
    c818:	e30a3fa4 	movw	r3, #44964	; 0xafa4
    c81c:	e3403019 	movt	r3, #25
    c820:	e5933000 	ldr	r3, [r3]
    c824:	e5933024 	ldr	r3, [r3, #36]	; 0x24
    c828:	e50b3008 	str	r3, [fp, #-8]
    c82c:	e51b3020 	ldr	r3, [fp, #-32]	; 0xffffffe0
    c830:	e3a02000 	mov	r2, #0
    c834:	e5c32000 	strb	r2, [r3]
    c838:	ea000011 	b	c884 <OSQPend+0x22c>
    c83c:	e3a03000 	mov	r3, #0
    c840:	e50b3008 	str	r3, [fp, #-8]
    c844:	e51b3020 	ldr	r3, [fp, #-32]	; 0xffffffe0
    c848:	e3a0200e 	mov	r2, #14
    c84c:	e5c32000 	strb	r2, [r3]
    c850:	ea00000b 	b	c884 <OSQPend+0x22c>
    c854:	e30a3fa4 	movw	r3, #44964	; 0xafa4
    c858:	e3403019 	movt	r3, #25
    c85c:	e5933000 	ldr	r3, [r3]
    c860:	e1a00003 	mov	r0, r3
    c864:	e51b1018 	ldr	r1, [fp, #-24]	; 0xffffffe8
    c868:	ebfff2f8 	bl	9450 <OS_EventTaskRemove>
    c86c:	e3a03000 	mov	r3, #0
    c870:	e50b3008 	str	r3, [fp, #-8]
    c874:	e51b3020 	ldr	r3, [fp, #-32]	; 0xffffffe0
    c878:	e3a0200a 	mov	r2, #10
    c87c:	e5c32000 	strb	r2, [r3]
    c880:	e1a00000 	nop			; (mov r0, r0)
    c884:	e30a3fa4 	movw	r3, #44964	; 0xafa4
    c888:	e3403019 	movt	r3, #25
    c88c:	e5933000 	ldr	r3, [r3]
    c890:	e3a02000 	mov	r2, #0
    c894:	e5c3202c 	strb	r2, [r3, #44]	; 0x2c
    c898:	e30a3fa4 	movw	r3, #44964	; 0xafa4
    c89c:	e3403019 	movt	r3, #25
    c8a0:	e5933000 	ldr	r3, [r3]
    c8a4:	e3a02000 	mov	r2, #0
    c8a8:	e5c3202d 	strb	r2, [r3, #45]	; 0x2d
    c8ac:	e30a3fa4 	movw	r3, #44964	; 0xafa4
    c8b0:	e3403019 	movt	r3, #25
    c8b4:	e5933000 	ldr	r3, [r3]
    c8b8:	e3a02000 	mov	r2, #0
    c8bc:	e583201c 	str	r2, [r3, #28]
    c8c0:	e30a3fa4 	movw	r3, #44964	; 0xafa4
    c8c4:	e3403019 	movt	r3, #25
    c8c8:	e5933000 	ldr	r3, [r3]
    c8cc:	e3a02000 	mov	r2, #0
    c8d0:	e5832020 	str	r2, [r3, #32]
    c8d4:	e30a3fa4 	movw	r3, #44964	; 0xafa4
    c8d8:	e3403019 	movt	r3, #25
    c8dc:	e5933000 	ldr	r3, [r3]
    c8e0:	e3a02000 	mov	r2, #0
    c8e4:	e5832024 	str	r2, [r3, #36]	; 0x24
    c8e8:	e51b000c 	ldr	r0, [fp, #-12]
    c8ec:	eb000a82 	bl	f2fc <OS_CPU_SR_Restore>
    c8f0:	e51b3008 	ldr	r3, [fp, #-8]
    c8f4:	e1a00003 	mov	r0, r3
    c8f8:	e24bd004 	sub	sp, fp, #4
    c8fc:	e8bd8800 	pop	{fp, pc}

0000c900 <OSQPendAbort>:
    c900:	e92d4800 	push	{fp, lr}
    c904:	e28db004 	add	fp, sp, #4
    c908:	e24dd018 	sub	sp, sp, #24
    c90c:	e50b0010 	str	r0, [fp, #-16]
    c910:	e1a03001 	mov	r3, r1
    c914:	e50b2018 	str	r2, [fp, #-24]	; 0xffffffe8
    c918:	e54b3011 	strb	r3, [fp, #-17]	; 0xffffffef
    c91c:	e3a03000 	mov	r3, #0
    c920:	e50b300c 	str	r3, [fp, #-12]
    c924:	e51b3010 	ldr	r3, [fp, #-16]
    c928:	e5d33000 	ldrb	r3, [r3]
    c92c:	e3530002 	cmp	r3, #2
    c930:	0a000004 	beq	c948 <OSQPendAbort+0x48>
    c934:	e51b3018 	ldr	r3, [fp, #-24]	; 0xffffffe8
    c938:	e3a02001 	mov	r2, #1
    c93c:	e5c32000 	strb	r2, [r3]
    c940:	e3a03000 	mov	r3, #0
    c944:	ea000031 	b	ca10 <OSQPendAbort+0x110>
    c948:	eb000a58 	bl	f2b0 <OS_CPU_SR_Save>
    c94c:	e50b000c 	str	r0, [fp, #-12]
    c950:	e51b3010 	ldr	r3, [fp, #-16]
    c954:	e5d3300a 	ldrb	r3, [r3, #10]
    c958:	e3530000 	cmp	r3, #0
    c95c:	0a000025 	beq	c9f8 <OSQPendAbort+0xf8>
    c960:	e3a03000 	mov	r3, #0
    c964:	e54b3005 	strb	r3, [fp, #-5]
    c968:	e55b3011 	ldrb	r3, [fp, #-17]	; 0xffffffef
    c96c:	e3530001 	cmp	r3, #1
    c970:	0a000009 	beq	c99c <OSQPendAbort+0x9c>
    c974:	ea00000e 	b	c9b4 <OSQPendAbort+0xb4>
    c978:	e51b0010 	ldr	r0, [fp, #-16]
    c97c:	e3a01000 	mov	r1, #0
    c980:	e3a02004 	mov	r2, #4
    c984:	e3a03002 	mov	r3, #2
    c988:	ebfff186 	bl	8fa8 <OS_EventTaskRdy>
    c98c:	e55b3005 	ldrb	r3, [fp, #-5]
    c990:	e2833001 	add	r3, r3, #1
    c994:	e54b3005 	strb	r3, [fp, #-5]
    c998:	ea000000 	b	c9a0 <OSQPendAbort+0xa0>
    c99c:	e1a00000 	nop			; (mov r0, r0)
    c9a0:	e51b3010 	ldr	r3, [fp, #-16]
    c9a4:	e5d3300a 	ldrb	r3, [r3, #10]
    c9a8:	e3530000 	cmp	r3, #0
    c9ac:	1afffff1 	bne	c978 <OSQPendAbort+0x78>
    c9b0:	ea000008 	b	c9d8 <OSQPendAbort+0xd8>
    c9b4:	e51b0010 	ldr	r0, [fp, #-16]
    c9b8:	e3a01000 	mov	r1, #0
    c9bc:	e3a02004 	mov	r2, #4
    c9c0:	e3a03002 	mov	r3, #2
    c9c4:	ebfff177 	bl	8fa8 <OS_EventTaskRdy>
    c9c8:	e55b3005 	ldrb	r3, [fp, #-5]
    c9cc:	e2833001 	add	r3, r3, #1
    c9d0:	e54b3005 	strb	r3, [fp, #-5]
    c9d4:	e1a00000 	nop			; (mov r0, r0)
    c9d8:	e51b000c 	ldr	r0, [fp, #-12]
    c9dc:	eb000a46 	bl	f2fc <OS_CPU_SR_Restore>
    c9e0:	ebfff454 	bl	9b38 <OS_Sched>
    c9e4:	e51b3018 	ldr	r3, [fp, #-24]	; 0xffffffe8
    c9e8:	e3a0200e 	mov	r2, #14
    c9ec:	e5c32000 	strb	r2, [r3]
    c9f0:	e55b3005 	ldrb	r3, [fp, #-5]
    c9f4:	ea000005 	b	ca10 <OSQPendAbort+0x110>
    c9f8:	e51b000c 	ldr	r0, [fp, #-12]
    c9fc:	eb000a3e 	bl	f2fc <OS_CPU_SR_Restore>
    ca00:	e51b3018 	ldr	r3, [fp, #-24]	; 0xffffffe8
    ca04:	e3a02000 	mov	r2, #0
    ca08:	e5c32000 	strb	r2, [r3]
    ca0c:	e3a03000 	mov	r3, #0
    ca10:	e1a00003 	mov	r0, r3
    ca14:	e24bd004 	sub	sp, fp, #4
    ca18:	e8bd8800 	pop	{fp, pc}

0000ca1c <OSQPost>:
    ca1c:	e92d4800 	push	{fp, lr}
    ca20:	e28db004 	add	fp, sp, #4
    ca24:	e24dd010 	sub	sp, sp, #16
    ca28:	e50b0010 	str	r0, [fp, #-16]
    ca2c:	e50b1014 	str	r1, [fp, #-20]	; 0xffffffec
    ca30:	e3a03000 	mov	r3, #0
    ca34:	e50b3008 	str	r3, [fp, #-8]
    ca38:	e51b3010 	ldr	r3, [fp, #-16]
    ca3c:	e5d33000 	ldrb	r3, [r3]
    ca40:	e3530002 	cmp	r3, #2
    ca44:	0a000001 	beq	ca50 <OSQPost+0x34>
    ca48:	e3a03001 	mov	r3, #1
    ca4c:	ea000036 	b	cb2c <OSQPost+0x110>
    ca50:	eb000a16 	bl	f2b0 <OS_CPU_SR_Save>
    ca54:	e50b0008 	str	r0, [fp, #-8]
    ca58:	e51b3010 	ldr	r3, [fp, #-16]
    ca5c:	e5d3300a 	ldrb	r3, [r3, #10]
    ca60:	e3530000 	cmp	r3, #0
    ca64:	0a000009 	beq	ca90 <OSQPost+0x74>
    ca68:	e51b0010 	ldr	r0, [fp, #-16]
    ca6c:	e51b1014 	ldr	r1, [fp, #-20]	; 0xffffffec
    ca70:	e3a02004 	mov	r2, #4
    ca74:	e3a03000 	mov	r3, #0
    ca78:	ebfff14a 	bl	8fa8 <OS_EventTaskRdy>
    ca7c:	e51b0008 	ldr	r0, [fp, #-8]
    ca80:	eb000a1d 	bl	f2fc <OS_CPU_SR_Restore>
    ca84:	ebfff42b 	bl	9b38 <OS_Sched>
    ca88:	e3a03000 	mov	r3, #0
    ca8c:	ea000026 	b	cb2c <OSQPost+0x110>
    ca90:	e51b3010 	ldr	r3, [fp, #-16]
    ca94:	e5933004 	ldr	r3, [r3, #4]
    ca98:	e50b300c 	str	r3, [fp, #-12]
    ca9c:	e51b300c 	ldr	r3, [fp, #-12]
    caa0:	e1d321b6 	ldrh	r2, [r3, #22]
    caa4:	e51b300c 	ldr	r3, [fp, #-12]
    caa8:	e1d331b4 	ldrh	r3, [r3, #20]
    caac:	e1520003 	cmp	r2, r3
    cab0:	3a000003 	bcc	cac4 <OSQPost+0xa8>
    cab4:	e51b0008 	ldr	r0, [fp, #-8]
    cab8:	eb000a0f 	bl	f2fc <OS_CPU_SR_Restore>
    cabc:	e3a0301e 	mov	r3, #30
    cac0:	ea000019 	b	cb2c <OSQPost+0x110>
    cac4:	e51b300c 	ldr	r3, [fp, #-12]
    cac8:	e593300c 	ldr	r3, [r3, #12]
    cacc:	e51b2014 	ldr	r2, [fp, #-20]	; 0xffffffec
    cad0:	e5832000 	str	r2, [r3]
    cad4:	e2832004 	add	r2, r3, #4
    cad8:	e51b300c 	ldr	r3, [fp, #-12]
    cadc:	e583200c 	str	r2, [r3, #12]
    cae0:	e51b300c 	ldr	r3, [fp, #-12]
    cae4:	e1d331b6 	ldrh	r3, [r3, #22]
    cae8:	e2833001 	add	r3, r3, #1
    caec:	e6ff2073 	uxth	r2, r3
    caf0:	e51b300c 	ldr	r3, [fp, #-12]
    caf4:	e1c321b6 	strh	r2, [r3, #22]
    caf8:	e51b300c 	ldr	r3, [fp, #-12]
    cafc:	e593200c 	ldr	r2, [r3, #12]
    cb00:	e51b300c 	ldr	r3, [fp, #-12]
    cb04:	e5933008 	ldr	r3, [r3, #8]
    cb08:	e1520003 	cmp	r2, r3
    cb0c:	1a000003 	bne	cb20 <OSQPost+0x104>
    cb10:	e51b300c 	ldr	r3, [fp, #-12]
    cb14:	e5932004 	ldr	r2, [r3, #4]
    cb18:	e51b300c 	ldr	r3, [fp, #-12]
    cb1c:	e583200c 	str	r2, [r3, #12]
    cb20:	e51b0008 	ldr	r0, [fp, #-8]
    cb24:	eb0009f4 	bl	f2fc <OS_CPU_SR_Restore>
    cb28:	e3a03000 	mov	r3, #0
    cb2c:	e1a00003 	mov	r0, r3
    cb30:	e24bd004 	sub	sp, fp, #4
    cb34:	e8bd8800 	pop	{fp, pc}

0000cb38 <OSQPostFront>:
    cb38:	e92d4800 	push	{fp, lr}
    cb3c:	e28db004 	add	fp, sp, #4
    cb40:	e24dd010 	sub	sp, sp, #16
    cb44:	e50b0010 	str	r0, [fp, #-16]
    cb48:	e50b1014 	str	r1, [fp, #-20]	; 0xffffffec
    cb4c:	e3a03000 	mov	r3, #0
    cb50:	e50b3008 	str	r3, [fp, #-8]
    cb54:	e51b3010 	ldr	r3, [fp, #-16]
    cb58:	e5d33000 	ldrb	r3, [r3]
    cb5c:	e3530002 	cmp	r3, #2
    cb60:	0a000001 	beq	cb6c <OSQPostFront+0x34>
    cb64:	e3a03001 	mov	r3, #1
    cb68:	ea000038 	b	cc50 <OSQPostFront+0x118>
    cb6c:	eb0009cf 	bl	f2b0 <OS_CPU_SR_Save>
    cb70:	e50b0008 	str	r0, [fp, #-8]
    cb74:	e51b3010 	ldr	r3, [fp, #-16]
    cb78:	e5d3300a 	ldrb	r3, [r3, #10]
    cb7c:	e3530000 	cmp	r3, #0
    cb80:	0a000009 	beq	cbac <OSQPostFront+0x74>
    cb84:	e51b0010 	ldr	r0, [fp, #-16]
    cb88:	e51b1014 	ldr	r1, [fp, #-20]	; 0xffffffec
    cb8c:	e3a02004 	mov	r2, #4
    cb90:	e3a03000 	mov	r3, #0
    cb94:	ebfff103 	bl	8fa8 <OS_EventTaskRdy>
    cb98:	e51b0008 	ldr	r0, [fp, #-8]
    cb9c:	eb0009d6 	bl	f2fc <OS_CPU_SR_Restore>
    cba0:	ebfff3e4 	bl	9b38 <OS_Sched>
    cba4:	e3a03000 	mov	r3, #0
    cba8:	ea000028 	b	cc50 <OSQPostFront+0x118>
    cbac:	e51b3010 	ldr	r3, [fp, #-16]
    cbb0:	e5933004 	ldr	r3, [r3, #4]
    cbb4:	e50b300c 	str	r3, [fp, #-12]
    cbb8:	e51b300c 	ldr	r3, [fp, #-12]
    cbbc:	e1d321b6 	ldrh	r2, [r3, #22]
    cbc0:	e51b300c 	ldr	r3, [fp, #-12]
    cbc4:	e1d331b4 	ldrh	r3, [r3, #20]
    cbc8:	e1520003 	cmp	r2, r3
    cbcc:	3a000003 	bcc	cbe0 <OSQPostFront+0xa8>
    cbd0:	e51b0008 	ldr	r0, [fp, #-8]
    cbd4:	eb0009c8 	bl	f2fc <OS_CPU_SR_Restore>
    cbd8:	e3a0301e 	mov	r3, #30
    cbdc:	ea00001b 	b	cc50 <OSQPostFront+0x118>
    cbe0:	e51b300c 	ldr	r3, [fp, #-12]
    cbe4:	e5932010 	ldr	r2, [r3, #16]
    cbe8:	e51b300c 	ldr	r3, [fp, #-12]
    cbec:	e5933004 	ldr	r3, [r3, #4]
    cbf0:	e1520003 	cmp	r2, r3
    cbf4:	1a000003 	bne	cc08 <OSQPostFront+0xd0>
    cbf8:	e51b300c 	ldr	r3, [fp, #-12]
    cbfc:	e5932008 	ldr	r2, [r3, #8]
    cc00:	e51b300c 	ldr	r3, [fp, #-12]
    cc04:	e5832010 	str	r2, [r3, #16]
    cc08:	e51b300c 	ldr	r3, [fp, #-12]
    cc0c:	e5933010 	ldr	r3, [r3, #16]
    cc10:	e2432004 	sub	r2, r3, #4
    cc14:	e51b300c 	ldr	r3, [fp, #-12]
    cc18:	e5832010 	str	r2, [r3, #16]
    cc1c:	e51b300c 	ldr	r3, [fp, #-12]
    cc20:	e5933010 	ldr	r3, [r3, #16]
    cc24:	e51b2014 	ldr	r2, [fp, #-20]	; 0xffffffec
    cc28:	e5832000 	str	r2, [r3]
    cc2c:	e51b300c 	ldr	r3, [fp, #-12]
    cc30:	e1d331b6 	ldrh	r3, [r3, #22]
    cc34:	e2833001 	add	r3, r3, #1
    cc38:	e6ff2073 	uxth	r2, r3
    cc3c:	e51b300c 	ldr	r3, [fp, #-12]
    cc40:	e1c321b6 	strh	r2, [r3, #22]
    cc44:	e51b0008 	ldr	r0, [fp, #-8]
    cc48:	eb0009ab 	bl	f2fc <OS_CPU_SR_Restore>
    cc4c:	e3a03000 	mov	r3, #0
    cc50:	e1a00003 	mov	r0, r3
    cc54:	e24bd004 	sub	sp, fp, #4
    cc58:	e8bd8800 	pop	{fp, pc}

0000cc5c <OSQPostOpt>:
    cc5c:	e92d4800 	push	{fp, lr}
    cc60:	e28db004 	add	fp, sp, #4
    cc64:	e24dd018 	sub	sp, sp, #24
    cc68:	e50b0010 	str	r0, [fp, #-16]
    cc6c:	e50b1014 	str	r1, [fp, #-20]	; 0xffffffec
    cc70:	e1a03002 	mov	r3, r2
    cc74:	e54b3015 	strb	r3, [fp, #-21]	; 0xffffffeb
    cc78:	e3a03000 	mov	r3, #0
    cc7c:	e50b3008 	str	r3, [fp, #-8]
    cc80:	e51b3010 	ldr	r3, [fp, #-16]
    cc84:	e5d33000 	ldrb	r3, [r3]
    cc88:	e3530002 	cmp	r3, #2
    cc8c:	0a000001 	beq	cc98 <OSQPostOpt+0x3c>
    cc90:	e3a03001 	mov	r3, #1
    cc94:	ea000061 	b	ce20 <OSQPostOpt+0x1c4>
    cc98:	eb000984 	bl	f2b0 <OS_CPU_SR_Save>
    cc9c:	e50b0008 	str	r0, [fp, #-8]
    cca0:	e51b3010 	ldr	r3, [fp, #-16]
    cca4:	e5d3300a 	ldrb	r3, [r3, #10]
    cca8:	e3530000 	cmp	r3, #0
    ccac:	0a00001c 	beq	cd24 <OSQPostOpt+0xc8>
    ccb0:	e55b3015 	ldrb	r3, [fp, #-21]	; 0xffffffeb
    ccb4:	e2033001 	and	r3, r3, #1
    ccb8:	e3530000 	cmp	r3, #0
    ccbc:	0a00000a 	beq	ccec <OSQPostOpt+0x90>
    ccc0:	ea000004 	b	ccd8 <OSQPostOpt+0x7c>
    ccc4:	e51b0010 	ldr	r0, [fp, #-16]
    ccc8:	e51b1014 	ldr	r1, [fp, #-20]	; 0xffffffec
    cccc:	e3a02004 	mov	r2, #4
    ccd0:	e3a03000 	mov	r3, #0
    ccd4:	ebfff0b3 	bl	8fa8 <OS_EventTaskRdy>
    ccd8:	e51b3010 	ldr	r3, [fp, #-16]
    ccdc:	e5d3300a 	ldrb	r3, [r3, #10]
    cce0:	e3530000 	cmp	r3, #0
    cce4:	1afffff6 	bne	ccc4 <OSQPostOpt+0x68>
    cce8:	ea000004 	b	cd00 <OSQPostOpt+0xa4>
    ccec:	e51b0010 	ldr	r0, [fp, #-16]
    ccf0:	e51b1014 	ldr	r1, [fp, #-20]	; 0xffffffec
    ccf4:	e3a02004 	mov	r2, #4
    ccf8:	e3a03000 	mov	r3, #0
    ccfc:	ebfff0a9 	bl	8fa8 <OS_EventTaskRdy>
    cd00:	e51b0008 	ldr	r0, [fp, #-8]
    cd04:	eb00097c 	bl	f2fc <OS_CPU_SR_Restore>
    cd08:	e55b3015 	ldrb	r3, [fp, #-21]	; 0xffffffeb
    cd0c:	e2033004 	and	r3, r3, #4
    cd10:	e3530000 	cmp	r3, #0
    cd14:	1a000000 	bne	cd1c <OSQPostOpt+0xc0>
    cd18:	ebfff386 	bl	9b38 <OS_Sched>
    cd1c:	e3a03000 	mov	r3, #0
    cd20:	ea00003e 	b	ce20 <OSQPostOpt+0x1c4>
    cd24:	e51b3010 	ldr	r3, [fp, #-16]
    cd28:	e5933004 	ldr	r3, [r3, #4]
    cd2c:	e50b300c 	str	r3, [fp, #-12]
    cd30:	e51b300c 	ldr	r3, [fp, #-12]
    cd34:	e1d321b6 	ldrh	r2, [r3, #22]
    cd38:	e51b300c 	ldr	r3, [fp, #-12]
    cd3c:	e1d331b4 	ldrh	r3, [r3, #20]
    cd40:	e1520003 	cmp	r2, r3
    cd44:	3a000003 	bcc	cd58 <OSQPostOpt+0xfc>
    cd48:	e51b0008 	ldr	r0, [fp, #-8]
    cd4c:	eb00096a 	bl	f2fc <OS_CPU_SR_Restore>
    cd50:	e3a0301e 	mov	r3, #30
    cd54:	ea000031 	b	ce20 <OSQPostOpt+0x1c4>
    cd58:	e55b3015 	ldrb	r3, [fp, #-21]	; 0xffffffeb
    cd5c:	e2033002 	and	r3, r3, #2
    cd60:	e3530000 	cmp	r3, #0
    cd64:	0a000013 	beq	cdb8 <OSQPostOpt+0x15c>
    cd68:	e51b300c 	ldr	r3, [fp, #-12]
    cd6c:	e5932010 	ldr	r2, [r3, #16]
    cd70:	e51b300c 	ldr	r3, [fp, #-12]
    cd74:	e5933004 	ldr	r3, [r3, #4]
    cd78:	e1520003 	cmp	r2, r3
    cd7c:	1a000003 	bne	cd90 <OSQPostOpt+0x134>
    cd80:	e51b300c 	ldr	r3, [fp, #-12]
    cd84:	e5932008 	ldr	r2, [r3, #8]
    cd88:	e51b300c 	ldr	r3, [fp, #-12]
    cd8c:	e5832010 	str	r2, [r3, #16]
    cd90:	e51b300c 	ldr	r3, [fp, #-12]
    cd94:	e5933010 	ldr	r3, [r3, #16]
    cd98:	e2432004 	sub	r2, r3, #4
    cd9c:	e51b300c 	ldr	r3, [fp, #-12]
    cda0:	e5832010 	str	r2, [r3, #16]
    cda4:	e51b300c 	ldr	r3, [fp, #-12]
    cda8:	e5933010 	ldr	r3, [r3, #16]
    cdac:	e51b2014 	ldr	r2, [fp, #-20]	; 0xffffffec
    cdb0:	e5832000 	str	r2, [r3]
    cdb4:	ea000010 	b	cdfc <OSQPostOpt+0x1a0>
    cdb8:	e51b300c 	ldr	r3, [fp, #-12]
    cdbc:	e593300c 	ldr	r3, [r3, #12]
    cdc0:	e51b2014 	ldr	r2, [fp, #-20]	; 0xffffffec
    cdc4:	e5832000 	str	r2, [r3]
    cdc8:	e2832004 	add	r2, r3, #4
    cdcc:	e51b300c 	ldr	r3, [fp, #-12]
    cdd0:	e583200c 	str	r2, [r3, #12]
    cdd4:	e51b300c 	ldr	r3, [fp, #-12]
    cdd8:	e593200c 	ldr	r2, [r3, #12]
    cddc:	e51b300c 	ldr	r3, [fp, #-12]
    cde0:	e5933008 	ldr	r3, [r3, #8]
    cde4:	e1520003 	cmp	r2, r3
    cde8:	1a000003 	bne	cdfc <OSQPostOpt+0x1a0>
    cdec:	e51b300c 	ldr	r3, [fp, #-12]
    cdf0:	e5932004 	ldr	r2, [r3, #4]
    cdf4:	e51b300c 	ldr	r3, [fp, #-12]
    cdf8:	e583200c 	str	r2, [r3, #12]
    cdfc:	e51b300c 	ldr	r3, [fp, #-12]
    ce00:	e1d331b6 	ldrh	r3, [r3, #22]
    ce04:	e2833001 	add	r3, r3, #1
    ce08:	e6ff2073 	uxth	r2, r3
    ce0c:	e51b300c 	ldr	r3, [fp, #-12]
    ce10:	e1c321b6 	strh	r2, [r3, #22]
    ce14:	e51b0008 	ldr	r0, [fp, #-8]
    ce18:	eb000937 	bl	f2fc <OS_CPU_SR_Restore>
    ce1c:	e3a03000 	mov	r3, #0
    ce20:	e1a00003 	mov	r0, r3
    ce24:	e24bd004 	sub	sp, fp, #4
    ce28:	e8bd8800 	pop	{fp, pc}

0000ce2c <OSQQuery>:
    ce2c:	e92d4800 	push	{fp, lr}
    ce30:	e28db004 	add	fp, sp, #4
    ce34:	e24dd020 	sub	sp, sp, #32
    ce38:	e50b0020 	str	r0, [fp, #-32]	; 0xffffffe0
    ce3c:	e50b1024 	str	r1, [fp, #-36]	; 0xffffffdc
    ce40:	e3a03000 	mov	r3, #0
    ce44:	e50b3014 	str	r3, [fp, #-20]	; 0xffffffec
    ce48:	e51b3020 	ldr	r3, [fp, #-32]	; 0xffffffe0
    ce4c:	e5d33000 	ldrb	r3, [r3]
    ce50:	e3530002 	cmp	r3, #2
    ce54:	0a000001 	beq	ce60 <OSQQuery+0x34>
    ce58:	e3a03001 	mov	r3, #1
    ce5c:	ea000039 	b	cf48 <OSQQuery+0x11c>
    ce60:	eb000912 	bl	f2b0 <OS_CPU_SR_Save>
    ce64:	e50b0014 	str	r0, [fp, #-20]	; 0xffffffec
    ce68:	e51b3020 	ldr	r3, [fp, #-32]	; 0xffffffe0
    ce6c:	e5d3200a 	ldrb	r2, [r3, #10]
    ce70:	e51b3024 	ldr	r3, [fp, #-36]	; 0xffffffdc
    ce74:	e5c32010 	strb	r2, [r3, #16]
    ce78:	e51b3020 	ldr	r3, [fp, #-32]	; 0xffffffe0
    ce7c:	e283300b 	add	r3, r3, #11
    ce80:	e50b300c 	str	r3, [fp, #-12]
    ce84:	e51b3024 	ldr	r3, [fp, #-36]	; 0xffffffdc
    ce88:	e2833008 	add	r3, r3, #8
    ce8c:	e50b3010 	str	r3, [fp, #-16]
    ce90:	e3a03000 	mov	r3, #0
    ce94:	e54b3005 	strb	r3, [fp, #-5]
    ce98:	ea00000c 	b	ced0 <OSQQuery+0xa4>
    ce9c:	e51b300c 	ldr	r3, [fp, #-12]
    cea0:	e5d32000 	ldrb	r2, [r3]
    cea4:	e51b3010 	ldr	r3, [fp, #-16]
    cea8:	e5c32000 	strb	r2, [r3]
    ceac:	e51b3010 	ldr	r3, [fp, #-16]
    ceb0:	e2833001 	add	r3, r3, #1
    ceb4:	e50b3010 	str	r3, [fp, #-16]
    ceb8:	e51b300c 	ldr	r3, [fp, #-12]
    cebc:	e2833001 	add	r3, r3, #1
    cec0:	e50b300c 	str	r3, [fp, #-12]
    cec4:	e55b3005 	ldrb	r3, [fp, #-5]
    cec8:	e2833001 	add	r3, r3, #1
    cecc:	e54b3005 	strb	r3, [fp, #-5]
    ced0:	e55b3005 	ldrb	r3, [fp, #-5]
    ced4:	e3530007 	cmp	r3, #7
    ced8:	9affffef 	bls	ce9c <OSQQuery+0x70>
    cedc:	e51b3020 	ldr	r3, [fp, #-32]	; 0xffffffe0
    cee0:	e5933004 	ldr	r3, [r3, #4]
    cee4:	e50b3018 	str	r3, [fp, #-24]	; 0xffffffe8
    cee8:	e51b3018 	ldr	r3, [fp, #-24]	; 0xffffffe8
    ceec:	e1d331b6 	ldrh	r3, [r3, #22]
    cef0:	e3530000 	cmp	r3, #0
    cef4:	0a000005 	beq	cf10 <OSQQuery+0xe4>
    cef8:	e51b3018 	ldr	r3, [fp, #-24]	; 0xffffffe8
    cefc:	e5933010 	ldr	r3, [r3, #16]
    cf00:	e5932000 	ldr	r2, [r3]
    cf04:	e51b3024 	ldr	r3, [fp, #-36]	; 0xffffffdc
    cf08:	e5832000 	str	r2, [r3]
    cf0c:	ea000002 	b	cf1c <OSQQuery+0xf0>
    cf10:	e51b3024 	ldr	r3, [fp, #-36]	; 0xffffffdc
    cf14:	e3a02000 	mov	r2, #0
    cf18:	e5832000 	str	r2, [r3]
    cf1c:	e51b3018 	ldr	r3, [fp, #-24]	; 0xffffffe8
    cf20:	e1d321b6 	ldrh	r2, [r3, #22]
    cf24:	e51b3024 	ldr	r3, [fp, #-36]	; 0xffffffdc
    cf28:	e1c320b4 	strh	r2, [r3, #4]
    cf2c:	e51b3018 	ldr	r3, [fp, #-24]	; 0xffffffe8
    cf30:	e1d321b4 	ldrh	r2, [r3, #20]
    cf34:	e51b3024 	ldr	r3, [fp, #-36]	; 0xffffffdc
    cf38:	e1c320b6 	strh	r2, [r3, #6]
    cf3c:	e51b0014 	ldr	r0, [fp, #-20]	; 0xffffffec
    cf40:	eb0008ed 	bl	f2fc <OS_CPU_SR_Restore>
    cf44:	e3a03000 	mov	r3, #0
    cf48:	e1a00003 	mov	r0, r3
    cf4c:	e24bd004 	sub	sp, fp, #4
    cf50:	e8bd8800 	pop	{fp, pc}

0000cf54 <OS_QInit>:
    cf54:	e92d4800 	push	{fp, lr}
    cf58:	e28db004 	add	fp, sp, #4
    cf5c:	e24dd010 	sub	sp, sp, #16
    cf60:	e30a0f28 	movw	r0, #44840	; 0xaf28
    cf64:	e3400019 	movt	r0, #25
    cf68:	e3a01060 	mov	r1, #96	; 0x60
    cf6c:	ebfff2c0 	bl	9a74 <OS_MemClr>
    cf70:	e3a03000 	mov	r3, #0
    cf74:	e14b30b6 	strh	r3, [fp, #-6]
    cf78:	ea00001a 	b	cfe8 <OS_QInit+0x94>
    cf7c:	e15b30b6 	ldrh	r3, [fp, #-6]
    cf80:	e2833001 	add	r3, r3, #1
    cf84:	e14b30b8 	strh	r3, [fp, #-8]
    cf88:	e15b20b6 	ldrh	r2, [fp, #-6]
    cf8c:	e1a03002 	mov	r3, r2
    cf90:	e1a03083 	lsl	r3, r3, #1
    cf94:	e0833002 	add	r3, r3, r2
    cf98:	e1a03183 	lsl	r3, r3, #3
    cf9c:	e30a2f28 	movw	r2, #44840	; 0xaf28
    cfa0:	e3402019 	movt	r2, #25
    cfa4:	e0833002 	add	r3, r3, r2
    cfa8:	e50b300c 	str	r3, [fp, #-12]
    cfac:	e15b20b8 	ldrh	r2, [fp, #-8]
    cfb0:	e1a03002 	mov	r3, r2
    cfb4:	e1a03083 	lsl	r3, r3, #1
    cfb8:	e0833002 	add	r3, r3, r2
    cfbc:	e1a03183 	lsl	r3, r3, #3
    cfc0:	e30a2f28 	movw	r2, #44840	; 0xaf28
    cfc4:	e3402019 	movt	r2, #25
    cfc8:	e0833002 	add	r3, r3, r2
    cfcc:	e50b3010 	str	r3, [fp, #-16]
    cfd0:	e51b300c 	ldr	r3, [fp, #-12]
    cfd4:	e51b2010 	ldr	r2, [fp, #-16]
    cfd8:	e5832000 	str	r2, [r3]
    cfdc:	e15b30b6 	ldrh	r3, [fp, #-6]
    cfe0:	e2833001 	add	r3, r3, #1
    cfe4:	e14b30b6 	strh	r3, [fp, #-6]
    cfe8:	e15b30b6 	ldrh	r3, [fp, #-6]
    cfec:	e3530002 	cmp	r3, #2
    cff0:	9affffe1 	bls	cf7c <OS_QInit+0x28>
    cff4:	e15b20b6 	ldrh	r2, [fp, #-6]
    cff8:	e1a03002 	mov	r3, r2
    cffc:	e1a03083 	lsl	r3, r3, #1
    d000:	e0833002 	add	r3, r3, r2
    d004:	e1a03183 	lsl	r3, r3, #3
    d008:	e30a2f28 	movw	r2, #44840	; 0xaf28
    d00c:	e3402019 	movt	r2, #25
    d010:	e0833002 	add	r3, r3, r2
    d014:	e50b300c 	str	r3, [fp, #-12]
    d018:	e51b300c 	ldr	r3, [fp, #-12]
    d01c:	e3a02000 	mov	r2, #0
    d020:	e5832000 	str	r2, [r3]
    d024:	e30a3f8c 	movw	r3, #44940	; 0xaf8c
    d028:	e3403019 	movt	r3, #25
    d02c:	e30a2f28 	movw	r2, #44840	; 0xaf28
    d030:	e3402019 	movt	r2, #25
    d034:	e5832000 	str	r2, [r3]
    d038:	e24bd004 	sub	sp, fp, #4
    d03c:	e8bd8800 	pop	{fp, pc}

0000d040 <OSSemAccept>:
    d040:	e92d4800 	push	{fp, lr}
    d044:	e28db004 	add	fp, sp, #4
    d048:	e24dd010 	sub	sp, sp, #16
    d04c:	e50b0010 	str	r0, [fp, #-16]
    d050:	e3a03000 	mov	r3, #0
    d054:	e50b3008 	str	r3, [fp, #-8]
    d058:	e51b3010 	ldr	r3, [fp, #-16]
    d05c:	e5d33000 	ldrb	r3, [r3]
    d060:	e3530003 	cmp	r3, #3
    d064:	0a000001 	beq	d070 <OSSemAccept+0x30>
    d068:	e3a03000 	mov	r3, #0
    d06c:	ea000010 	b	d0b4 <OSSemAccept+0x74>
    d070:	eb00088e 	bl	f2b0 <OS_CPU_SR_Save>
    d074:	e50b0008 	str	r0, [fp, #-8]
    d078:	e51b3010 	ldr	r3, [fp, #-16]
    d07c:	e1d330b8 	ldrh	r3, [r3, #8]
    d080:	e14b30ba 	strh	r3, [fp, #-10]
    d084:	e15b30ba 	ldrh	r3, [fp, #-10]
    d088:	e3530000 	cmp	r3, #0
    d08c:	0a000005 	beq	d0a8 <OSSemAccept+0x68>
    d090:	e51b3010 	ldr	r3, [fp, #-16]
    d094:	e1d330b8 	ldrh	r3, [r3, #8]
    d098:	e2433001 	sub	r3, r3, #1
    d09c:	e6ff2073 	uxth	r2, r3
    d0a0:	e51b3010 	ldr	r3, [fp, #-16]
    d0a4:	e1c320b8 	strh	r2, [r3, #8]
    d0a8:	e51b0008 	ldr	r0, [fp, #-8]
    d0ac:	eb000892 	bl	f2fc <OS_CPU_SR_Restore>
    d0b0:	e15b30ba 	ldrh	r3, [fp, #-10]
    d0b4:	e1a00003 	mov	r0, r3
    d0b8:	e24bd004 	sub	sp, fp, #4
    d0bc:	e8bd8800 	pop	{fp, pc}

0000d0c0 <OSSemCreate>:
    d0c0:	e92d4800 	push	{fp, lr}
    d0c4:	e28db004 	add	fp, sp, #4
    d0c8:	e24dd010 	sub	sp, sp, #16
    d0cc:	e1a03000 	mov	r3, r0
    d0d0:	e14b30be 	strh	r3, [fp, #-14]
    d0d4:	e3a03000 	mov	r3, #0
    d0d8:	e50b3008 	str	r3, [fp, #-8]
    d0dc:	e30a3fa0 	movw	r3, #44960	; 0xafa0
    d0e0:	e3403019 	movt	r3, #25
    d0e4:	e5d33000 	ldrb	r3, [r3]
    d0e8:	e3530000 	cmp	r3, #0
    d0ec:	0a000001 	beq	d0f8 <OSSemCreate+0x38>
    d0f0:	e3a03000 	mov	r3, #0
    d0f4:	ea000026 	b	d194 <OSSemCreate+0xd4>
    d0f8:	eb00086c 	bl	f2b0 <OS_CPU_SR_Save>
    d0fc:	e50b0008 	str	r0, [fp, #-8]
    d100:	e30a3f9c 	movw	r3, #44956	; 0xaf9c
    d104:	e3403019 	movt	r3, #25
    d108:	e5933000 	ldr	r3, [r3]
    d10c:	e50b300c 	str	r3, [fp, #-12]
    d110:	e30a3f9c 	movw	r3, #44956	; 0xaf9c
    d114:	e3403019 	movt	r3, #25
    d118:	e5933000 	ldr	r3, [r3]
    d11c:	e3530000 	cmp	r3, #0
    d120:	0a000006 	beq	d140 <OSSemCreate+0x80>
    d124:	e30a3f9c 	movw	r3, #44956	; 0xaf9c
    d128:	e3403019 	movt	r3, #25
    d12c:	e5933000 	ldr	r3, [r3]
    d130:	e5932004 	ldr	r2, [r3, #4]
    d134:	e30a3f9c 	movw	r3, #44956	; 0xaf9c
    d138:	e3403019 	movt	r3, #25
    d13c:	e5832000 	str	r2, [r3]
    d140:	e51b0008 	ldr	r0, [fp, #-8]
    d144:	eb00086c 	bl	f2fc <OS_CPU_SR_Restore>
    d148:	e51b300c 	ldr	r3, [fp, #-12]
    d14c:	e3530000 	cmp	r3, #0
    d150:	0a00000e 	beq	d190 <OSSemCreate+0xd0>
    d154:	e51b300c 	ldr	r3, [fp, #-12]
    d158:	e3a02003 	mov	r2, #3
    d15c:	e5c32000 	strb	r2, [r3]
    d160:	e51b300c 	ldr	r3, [fp, #-12]
    d164:	e15b20be 	ldrh	r2, [fp, #-14]
    d168:	e1c320b8 	strh	r2, [r3, #8]
    d16c:	e51b300c 	ldr	r3, [fp, #-12]
    d170:	e3a02000 	mov	r2, #0
    d174:	e5832004 	str	r2, [r3, #4]
    d178:	e51b200c 	ldr	r2, [fp, #-12]
    d17c:	e3073750 	movw	r3, #30544	; 0x7750
    d180:	e3403001 	movt	r3, #1
    d184:	e5823014 	str	r3, [r2, #20]
    d188:	e51b000c 	ldr	r0, [fp, #-12]
    d18c:	ebfff120 	bl	9614 <OS_EventWaitListInit>
    d190:	e51b300c 	ldr	r3, [fp, #-12]
    d194:	e1a00003 	mov	r0, r3
    d198:	e24bd004 	sub	sp, fp, #4
    d19c:	e8bd8800 	pop	{fp, pc}

0000d1a0 <OSSemDel>:
    d1a0:	e92d4800 	push	{fp, lr}
    d1a4:	e28db004 	add	fp, sp, #4
    d1a8:	e24dd020 	sub	sp, sp, #32
    d1ac:	e50b0018 	str	r0, [fp, #-24]	; 0xffffffe8
    d1b0:	e1a03001 	mov	r3, r1
    d1b4:	e50b2020 	str	r2, [fp, #-32]	; 0xffffffe0
    d1b8:	e54b3019 	strb	r3, [fp, #-25]	; 0xffffffe7
    d1bc:	e3a03000 	mov	r3, #0
    d1c0:	e50b3010 	str	r3, [fp, #-16]
    d1c4:	e51b3018 	ldr	r3, [fp, #-24]	; 0xffffffe8
    d1c8:	e5d33000 	ldrb	r3, [r3]
    d1cc:	e3530003 	cmp	r3, #3
    d1d0:	0a000004 	beq	d1e8 <OSSemDel+0x48>
    d1d4:	e51b3020 	ldr	r3, [fp, #-32]	; 0xffffffe0
    d1d8:	e3a02001 	mov	r2, #1
    d1dc:	e5c32000 	strb	r2, [r3]
    d1e0:	e51b3018 	ldr	r3, [fp, #-24]	; 0xffffffe8
    d1e4:	ea000073 	b	d3b8 <OSSemDel+0x218>
    d1e8:	e30a3fa0 	movw	r3, #44960	; 0xafa0
    d1ec:	e3403019 	movt	r3, #25
    d1f0:	e5d33000 	ldrb	r3, [r3]
    d1f4:	e3530000 	cmp	r3, #0
    d1f8:	0a000004 	beq	d210 <OSSemDel+0x70>
    d1fc:	e51b3020 	ldr	r3, [fp, #-32]	; 0xffffffe0
    d200:	e3a0200f 	mov	r2, #15
    d204:	e5c32000 	strb	r2, [r3]
    d208:	e51b3018 	ldr	r3, [fp, #-24]	; 0xffffffe8
    d20c:	ea000069 	b	d3b8 <OSSemDel+0x218>
    d210:	eb000826 	bl	f2b0 <OS_CPU_SR_Save>
    d214:	e50b0010 	str	r0, [fp, #-16]
    d218:	e51b3018 	ldr	r3, [fp, #-24]	; 0xffffffe8
    d21c:	e5d3300a 	ldrb	r3, [r3, #10]
    d220:	e3530000 	cmp	r3, #0
    d224:	0a000002 	beq	d234 <OSSemDel+0x94>
    d228:	e3a03001 	mov	r3, #1
    d22c:	e54b3005 	strb	r3, [fp, #-5]
    d230:	ea000001 	b	d23c <OSSemDel+0x9c>
    d234:	e3a03000 	mov	r3, #0
    d238:	e54b3005 	strb	r3, [fp, #-5]
    d23c:	e55b3019 	ldrb	r3, [fp, #-25]	; 0xffffffe7
    d240:	e3530000 	cmp	r3, #0
    d244:	0a000002 	beq	d254 <OSSemDel+0xb4>
    d248:	e3530001 	cmp	r3, #1
    d24c:	0a00002c 	beq	d304 <OSSemDel+0x164>
    d250:	ea00004f 	b	d394 <OSSemDel+0x1f4>
    d254:	e55b3005 	ldrb	r3, [fp, #-5]
    d258:	e3530000 	cmp	r3, #0
    d25c:	1a00001a 	bne	d2cc <OSSemDel+0x12c>
    d260:	e51b2018 	ldr	r2, [fp, #-24]	; 0xffffffe8
    d264:	e3073750 	movw	r3, #30544	; 0x7750
    d268:	e3403001 	movt	r3, #1
    d26c:	e5823014 	str	r3, [r2, #20]
    d270:	e51b3018 	ldr	r3, [fp, #-24]	; 0xffffffe8
    d274:	e3a02000 	mov	r2, #0
    d278:	e5c32000 	strb	r2, [r3]
    d27c:	e30a3f9c 	movw	r3, #44956	; 0xaf9c
    d280:	e3403019 	movt	r3, #25
    d284:	e5932000 	ldr	r2, [r3]
    d288:	e51b3018 	ldr	r3, [fp, #-24]	; 0xffffffe8
    d28c:	e5832004 	str	r2, [r3, #4]
    d290:	e51b3018 	ldr	r3, [fp, #-24]	; 0xffffffe8
    d294:	e3a02000 	mov	r2, #0
    d298:	e1c320b8 	strh	r2, [r3, #8]
    d29c:	e30a3f9c 	movw	r3, #44956	; 0xaf9c
    d2a0:	e3403019 	movt	r3, #25
    d2a4:	e51b2018 	ldr	r2, [fp, #-24]	; 0xffffffe8
    d2a8:	e5832000 	str	r2, [r3]
    d2ac:	e51b0010 	ldr	r0, [fp, #-16]
    d2b0:	eb000811 	bl	f2fc <OS_CPU_SR_Restore>
    d2b4:	e51b3020 	ldr	r3, [fp, #-32]	; 0xffffffe0
    d2b8:	e3a02000 	mov	r2, #0
    d2bc:	e5c32000 	strb	r2, [r3]
    d2c0:	e3a03000 	mov	r3, #0
    d2c4:	e50b300c 	str	r3, [fp, #-12]
    d2c8:	ea000039 	b	d3b4 <OSSemDel+0x214>
    d2cc:	e51b0010 	ldr	r0, [fp, #-16]
    d2d0:	eb000809 	bl	f2fc <OS_CPU_SR_Restore>
    d2d4:	e51b3020 	ldr	r3, [fp, #-32]	; 0xffffffe0
    d2d8:	e3a02049 	mov	r2, #73	; 0x49
    d2dc:	e5c32000 	strb	r2, [r3]
    d2e0:	e51b3018 	ldr	r3, [fp, #-24]	; 0xffffffe8
    d2e4:	e50b300c 	str	r3, [fp, #-12]
    d2e8:	ea000031 	b	d3b4 <OSSemDel+0x214>
    d2ec:	e51b0018 	ldr	r0, [fp, #-24]	; 0xffffffe8
    d2f0:	e3a01000 	mov	r1, #0
    d2f4:	e3a02001 	mov	r2, #1
    d2f8:	e3a03002 	mov	r3, #2
    d2fc:	ebffef29 	bl	8fa8 <OS_EventTaskRdy>
    d300:	ea000000 	b	d308 <OSSemDel+0x168>
    d304:	e1a00000 	nop			; (mov r0, r0)
    d308:	e51b3018 	ldr	r3, [fp, #-24]	; 0xffffffe8
    d30c:	e5d3300a 	ldrb	r3, [r3, #10]
    d310:	e3530000 	cmp	r3, #0
    d314:	1afffff4 	bne	d2ec <OSSemDel+0x14c>
    d318:	e51b2018 	ldr	r2, [fp, #-24]	; 0xffffffe8
    d31c:	e3073750 	movw	r3, #30544	; 0x7750
    d320:	e3403001 	movt	r3, #1
    d324:	e5823014 	str	r3, [r2, #20]
    d328:	e51b3018 	ldr	r3, [fp, #-24]	; 0xffffffe8
    d32c:	e3a02000 	mov	r2, #0
    d330:	e5c32000 	strb	r2, [r3]
    d334:	e30a3f9c 	movw	r3, #44956	; 0xaf9c
    d338:	e3403019 	movt	r3, #25
    d33c:	e5932000 	ldr	r2, [r3]
    d340:	e51b3018 	ldr	r3, [fp, #-24]	; 0xffffffe8
    d344:	e5832004 	str	r2, [r3, #4]
    d348:	e51b3018 	ldr	r3, [fp, #-24]	; 0xffffffe8
    d34c:	e3a02000 	mov	r2, #0
    d350:	e1c320b8 	strh	r2, [r3, #8]
    d354:	e30a3f9c 	movw	r3, #44956	; 0xaf9c
    d358:	e3403019 	movt	r3, #25
    d35c:	e51b2018 	ldr	r2, [fp, #-24]	; 0xffffffe8
    d360:	e5832000 	str	r2, [r3]
    d364:	e51b0010 	ldr	r0, [fp, #-16]
    d368:	eb0007e3 	bl	f2fc <OS_CPU_SR_Restore>
    d36c:	e55b3005 	ldrb	r3, [fp, #-5]
    d370:	e3530001 	cmp	r3, #1
    d374:	1a000000 	bne	d37c <OSSemDel+0x1dc>
    d378:	ebfff1ee 	bl	9b38 <OS_Sched>
    d37c:	e51b3020 	ldr	r3, [fp, #-32]	; 0xffffffe0
    d380:	e3a02000 	mov	r2, #0
    d384:	e5c32000 	strb	r2, [r3]
    d388:	e3a03000 	mov	r3, #0
    d38c:	e50b300c 	str	r3, [fp, #-12]
    d390:	ea000007 	b	d3b4 <OSSemDel+0x214>
    d394:	e51b0010 	ldr	r0, [fp, #-16]
    d398:	eb0007d7 	bl	f2fc <OS_CPU_SR_Restore>
    d39c:	e51b3020 	ldr	r3, [fp, #-32]	; 0xffffffe0
    d3a0:	e3a02007 	mov	r2, #7
    d3a4:	e5c32000 	strb	r2, [r3]
    d3a8:	e51b3018 	ldr	r3, [fp, #-24]	; 0xffffffe8
    d3ac:	e50b300c 	str	r3, [fp, #-12]
    d3b0:	e1a00000 	nop			; (mov r0, r0)
    d3b4:	e51b300c 	ldr	r3, [fp, #-12]
    d3b8:	e1a00003 	mov	r0, r3
    d3bc:	e24bd004 	sub	sp, fp, #4
    d3c0:	e8bd8800 	pop	{fp, pc}

0000d3c4 <OSSemPend>:
    d3c4:	e92d4800 	push	{fp, lr}
    d3c8:	e28db004 	add	fp, sp, #4
    d3cc:	e24dd018 	sub	sp, sp, #24
    d3d0:	e50b0010 	str	r0, [fp, #-16]
    d3d4:	e50b1014 	str	r1, [fp, #-20]	; 0xffffffec
    d3d8:	e50b2018 	str	r2, [fp, #-24]	; 0xffffffe8
    d3dc:	e3a03000 	mov	r3, #0
    d3e0:	e50b3008 	str	r3, [fp, #-8]
    d3e4:	e51b3010 	ldr	r3, [fp, #-16]
    d3e8:	e5d33000 	ldrb	r3, [r3]
    d3ec:	e3530003 	cmp	r3, #3
    d3f0:	0a000003 	beq	d404 <OSSemPend+0x40>
    d3f4:	e51b3018 	ldr	r3, [fp, #-24]	; 0xffffffe8
    d3f8:	e3a02001 	mov	r2, #1
    d3fc:	e5c32000 	strb	r2, [r3]
    d400:	ea00006f 	b	d5c4 <OSSemPend+0x200>
    d404:	e30a3fa0 	movw	r3, #44960	; 0xafa0
    d408:	e3403019 	movt	r3, #25
    d40c:	e5d33000 	ldrb	r3, [r3]
    d410:	e3530000 	cmp	r3, #0
    d414:	0a000003 	beq	d428 <OSSemPend+0x64>
    d418:	e51b3018 	ldr	r3, [fp, #-24]	; 0xffffffe8
    d41c:	e3a02002 	mov	r2, #2
    d420:	e5c32000 	strb	r2, [r3]
    d424:	ea000066 	b	d5c4 <OSSemPend+0x200>
    d428:	e30a3e8c 	movw	r3, #44684	; 0xae8c
    d42c:	e3403019 	movt	r3, #25
    d430:	e5d33000 	ldrb	r3, [r3]
    d434:	e3530000 	cmp	r3, #0
    d438:	0a000003 	beq	d44c <OSSemPend+0x88>
    d43c:	e51b3018 	ldr	r3, [fp, #-24]	; 0xffffffe8
    d440:	e3a0200d 	mov	r2, #13
    d444:	e5c32000 	strb	r2, [r3]
    d448:	ea00005d 	b	d5c4 <OSSemPend+0x200>
    d44c:	eb000797 	bl	f2b0 <OS_CPU_SR_Save>
    d450:	e50b0008 	str	r0, [fp, #-8]
    d454:	e51b3010 	ldr	r3, [fp, #-16]
    d458:	e1d330b8 	ldrh	r3, [r3, #8]
    d45c:	e3530000 	cmp	r3, #0
    d460:	0a00000b 	beq	d494 <OSSemPend+0xd0>
    d464:	e51b3010 	ldr	r3, [fp, #-16]
    d468:	e1d330b8 	ldrh	r3, [r3, #8]
    d46c:	e2433001 	sub	r3, r3, #1
    d470:	e6ff2073 	uxth	r2, r3
    d474:	e51b3010 	ldr	r3, [fp, #-16]
    d478:	e1c320b8 	strh	r2, [r3, #8]
    d47c:	e51b0008 	ldr	r0, [fp, #-8]
    d480:	eb00079d 	bl	f2fc <OS_CPU_SR_Restore>
    d484:	e51b3018 	ldr	r3, [fp, #-24]	; 0xffffffe8
    d488:	e3a02000 	mov	r2, #0
    d48c:	e5c32000 	strb	r2, [r3]
    d490:	ea00004b 	b	d5c4 <OSSemPend+0x200>
    d494:	e30a3fa4 	movw	r3, #44964	; 0xafa4
    d498:	e3403019 	movt	r3, #25
    d49c:	e5932000 	ldr	r2, [r3]
    d4a0:	e30a3fa4 	movw	r3, #44964	; 0xafa4
    d4a4:	e3403019 	movt	r3, #25
    d4a8:	e5933000 	ldr	r3, [r3]
    d4ac:	e5d3302c 	ldrb	r3, [r3, #44]	; 0x2c
    d4b0:	e3833001 	orr	r3, r3, #1
    d4b4:	e6ef3073 	uxtb	r3, r3
    d4b8:	e5c2302c 	strb	r3, [r2, #44]	; 0x2c
    d4bc:	e30a3fa4 	movw	r3, #44964	; 0xafa4
    d4c0:	e3403019 	movt	r3, #25
    d4c4:	e5933000 	ldr	r3, [r3]
    d4c8:	e3a02000 	mov	r2, #0
    d4cc:	e5c3202d 	strb	r2, [r3, #45]	; 0x2d
    d4d0:	e30a3fa4 	movw	r3, #44964	; 0xafa4
    d4d4:	e3403019 	movt	r3, #25
    d4d8:	e5933000 	ldr	r3, [r3]
    d4dc:	e51b2014 	ldr	r2, [fp, #-20]	; 0xffffffec
    d4e0:	e5832028 	str	r2, [r3, #40]	; 0x28
    d4e4:	e51b0010 	ldr	r0, [fp, #-16]
    d4e8:	ebffef12 	bl	9138 <OS_EventTaskWait>
    d4ec:	e51b0008 	ldr	r0, [fp, #-8]
    d4f0:	eb000781 	bl	f2fc <OS_CPU_SR_Restore>
    d4f4:	ebfff18f 	bl	9b38 <OS_Sched>
    d4f8:	eb00076c 	bl	f2b0 <OS_CPU_SR_Save>
    d4fc:	e50b0008 	str	r0, [fp, #-8]
    d500:	e30a3fa4 	movw	r3, #44964	; 0xafa4
    d504:	e3403019 	movt	r3, #25
    d508:	e5933000 	ldr	r3, [r3]
    d50c:	e5d3302d 	ldrb	r3, [r3, #45]	; 0x2d
    d510:	e3530000 	cmp	r3, #0
    d514:	0a000002 	beq	d524 <OSSemPend+0x160>
    d518:	e3530002 	cmp	r3, #2
    d51c:	0a000004 	beq	d534 <OSSemPend+0x170>
    d520:	ea000007 	b	d544 <OSSemPend+0x180>
    d524:	e51b3018 	ldr	r3, [fp, #-24]	; 0xffffffe8
    d528:	e3a02000 	mov	r2, #0
    d52c:	e5c32000 	strb	r2, [r3]
    d530:	ea00000d 	b	d56c <OSSemPend+0x1a8>
    d534:	e51b3018 	ldr	r3, [fp, #-24]	; 0xffffffe8
    d538:	e3a0200e 	mov	r2, #14
    d53c:	e5c32000 	strb	r2, [r3]
    d540:	ea000009 	b	d56c <OSSemPend+0x1a8>
    d544:	e30a3fa4 	movw	r3, #44964	; 0xafa4
    d548:	e3403019 	movt	r3, #25
    d54c:	e5933000 	ldr	r3, [r3]
    d550:	e1a00003 	mov	r0, r3
    d554:	e51b1010 	ldr	r1, [fp, #-16]
    d558:	ebffefbc 	bl	9450 <OS_EventTaskRemove>
    d55c:	e51b3018 	ldr	r3, [fp, #-24]	; 0xffffffe8
    d560:	e3a0200a 	mov	r2, #10
    d564:	e5c32000 	strb	r2, [r3]
    d568:	e1a00000 	nop			; (mov r0, r0)
    d56c:	e30a3fa4 	movw	r3, #44964	; 0xafa4
    d570:	e3403019 	movt	r3, #25
    d574:	e5933000 	ldr	r3, [r3]
    d578:	e3a02000 	mov	r2, #0
    d57c:	e5c3202c 	strb	r2, [r3, #44]	; 0x2c
    d580:	e30a3fa4 	movw	r3, #44964	; 0xafa4
    d584:	e3403019 	movt	r3, #25
    d588:	e5933000 	ldr	r3, [r3]
    d58c:	e3a02000 	mov	r2, #0
    d590:	e5c3202d 	strb	r2, [r3, #45]	; 0x2d
    d594:	e30a3fa4 	movw	r3, #44964	; 0xafa4
    d598:	e3403019 	movt	r3, #25
    d59c:	e5933000 	ldr	r3, [r3]
    d5a0:	e3a02000 	mov	r2, #0
    d5a4:	e583201c 	str	r2, [r3, #28]
    d5a8:	e30a3fa4 	movw	r3, #44964	; 0xafa4
    d5ac:	e3403019 	movt	r3, #25
    d5b0:	e5933000 	ldr	r3, [r3]
    d5b4:	e3a02000 	mov	r2, #0
    d5b8:	e5832020 	str	r2, [r3, #32]
    d5bc:	e51b0008 	ldr	r0, [fp, #-8]
    d5c0:	eb00074d 	bl	f2fc <OS_CPU_SR_Restore>
    d5c4:	e24bd004 	sub	sp, fp, #4
    d5c8:	e8bd8800 	pop	{fp, pc}

0000d5cc <OSSemPendAbort>:
    d5cc:	e92d4800 	push	{fp, lr}
    d5d0:	e28db004 	add	fp, sp, #4
    d5d4:	e24dd018 	sub	sp, sp, #24
    d5d8:	e50b0010 	str	r0, [fp, #-16]
    d5dc:	e1a03001 	mov	r3, r1
    d5e0:	e50b2018 	str	r2, [fp, #-24]	; 0xffffffe8
    d5e4:	e54b3011 	strb	r3, [fp, #-17]	; 0xffffffef
    d5e8:	e3a03000 	mov	r3, #0
    d5ec:	e50b300c 	str	r3, [fp, #-12]
    d5f0:	e51b3010 	ldr	r3, [fp, #-16]
    d5f4:	e5d33000 	ldrb	r3, [r3]
    d5f8:	e3530003 	cmp	r3, #3
    d5fc:	0a000004 	beq	d614 <OSSemPendAbort+0x48>
    d600:	e51b3018 	ldr	r3, [fp, #-24]	; 0xffffffe8
    d604:	e3a02001 	mov	r2, #1
    d608:	e5c32000 	strb	r2, [r3]
    d60c:	e3a03000 	mov	r3, #0
    d610:	ea000031 	b	d6dc <OSSemPendAbort+0x110>
    d614:	eb000725 	bl	f2b0 <OS_CPU_SR_Save>
    d618:	e50b000c 	str	r0, [fp, #-12]
    d61c:	e51b3010 	ldr	r3, [fp, #-16]
    d620:	e5d3300a 	ldrb	r3, [r3, #10]
    d624:	e3530000 	cmp	r3, #0
    d628:	0a000025 	beq	d6c4 <OSSemPendAbort+0xf8>
    d62c:	e3a03000 	mov	r3, #0
    d630:	e54b3005 	strb	r3, [fp, #-5]
    d634:	e55b3011 	ldrb	r3, [fp, #-17]	; 0xffffffef
    d638:	e3530001 	cmp	r3, #1
    d63c:	0a000009 	beq	d668 <OSSemPendAbort+0x9c>
    d640:	ea00000e 	b	d680 <OSSemPendAbort+0xb4>
    d644:	e51b0010 	ldr	r0, [fp, #-16]
    d648:	e3a01000 	mov	r1, #0
    d64c:	e3a02001 	mov	r2, #1
    d650:	e3a03002 	mov	r3, #2
    d654:	ebffee53 	bl	8fa8 <OS_EventTaskRdy>
    d658:	e55b3005 	ldrb	r3, [fp, #-5]
    d65c:	e2833001 	add	r3, r3, #1
    d660:	e54b3005 	strb	r3, [fp, #-5]
    d664:	ea000000 	b	d66c <OSSemPendAbort+0xa0>
    d668:	e1a00000 	nop			; (mov r0, r0)
    d66c:	e51b3010 	ldr	r3, [fp, #-16]
    d670:	e5d3300a 	ldrb	r3, [r3, #10]
    d674:	e3530000 	cmp	r3, #0
    d678:	1afffff1 	bne	d644 <OSSemPendAbort+0x78>
    d67c:	ea000008 	b	d6a4 <OSSemPendAbort+0xd8>
    d680:	e51b0010 	ldr	r0, [fp, #-16]
    d684:	e3a01000 	mov	r1, #0
    d688:	e3a02001 	mov	r2, #1
    d68c:	e3a03002 	mov	r3, #2
    d690:	ebffee44 	bl	8fa8 <OS_EventTaskRdy>
    d694:	e55b3005 	ldrb	r3, [fp, #-5]
    d698:	e2833001 	add	r3, r3, #1
    d69c:	e54b3005 	strb	r3, [fp, #-5]
    d6a0:	e1a00000 	nop			; (mov r0, r0)
    d6a4:	e51b000c 	ldr	r0, [fp, #-12]
    d6a8:	eb000713 	bl	f2fc <OS_CPU_SR_Restore>
    d6ac:	ebfff121 	bl	9b38 <OS_Sched>
    d6b0:	e51b3018 	ldr	r3, [fp, #-24]	; 0xffffffe8
    d6b4:	e3a0200e 	mov	r2, #14
    d6b8:	e5c32000 	strb	r2, [r3]
    d6bc:	e55b3005 	ldrb	r3, [fp, #-5]
    d6c0:	ea000005 	b	d6dc <OSSemPendAbort+0x110>
    d6c4:	e51b000c 	ldr	r0, [fp, #-12]
    d6c8:	eb00070b 	bl	f2fc <OS_CPU_SR_Restore>
    d6cc:	e51b3018 	ldr	r3, [fp, #-24]	; 0xffffffe8
    d6d0:	e3a02000 	mov	r2, #0
    d6d4:	e5c32000 	strb	r2, [r3]
    d6d8:	e3a03000 	mov	r3, #0
    d6dc:	e1a00003 	mov	r0, r3
    d6e0:	e24bd004 	sub	sp, fp, #4
    d6e4:	e8bd8800 	pop	{fp, pc}

0000d6e8 <OSSemPost>:
    d6e8:	e92d4800 	push	{fp, lr}
    d6ec:	e28db004 	add	fp, sp, #4
    d6f0:	e24dd010 	sub	sp, sp, #16
    d6f4:	e50b0010 	str	r0, [fp, #-16]
    d6f8:	e3a03000 	mov	r3, #0
    d6fc:	e50b3008 	str	r3, [fp, #-8]
    d700:	e51b3010 	ldr	r3, [fp, #-16]
    d704:	e5d33000 	ldrb	r3, [r3]
    d708:	e3530003 	cmp	r3, #3
    d70c:	0a000001 	beq	d718 <OSSemPost+0x30>
    d710:	e3a03001 	mov	r3, #1
    d714:	ea000021 	b	d7a0 <OSSemPost+0xb8>
    d718:	eb0006e4 	bl	f2b0 <OS_CPU_SR_Save>
    d71c:	e50b0008 	str	r0, [fp, #-8]
    d720:	e51b3010 	ldr	r3, [fp, #-16]
    d724:	e5d3300a 	ldrb	r3, [r3, #10]
    d728:	e3530000 	cmp	r3, #0
    d72c:	0a000009 	beq	d758 <OSSemPost+0x70>
    d730:	e51b0010 	ldr	r0, [fp, #-16]
    d734:	e3a01000 	mov	r1, #0
    d738:	e3a02001 	mov	r2, #1
    d73c:	e3a03000 	mov	r3, #0
    d740:	ebffee18 	bl	8fa8 <OS_EventTaskRdy>
    d744:	e51b0008 	ldr	r0, [fp, #-8]
    d748:	eb0006eb 	bl	f2fc <OS_CPU_SR_Restore>
    d74c:	ebfff0f9 	bl	9b38 <OS_Sched>
    d750:	e3a03000 	mov	r3, #0
    d754:	ea000011 	b	d7a0 <OSSemPost+0xb8>
    d758:	e51b3010 	ldr	r3, [fp, #-16]
    d75c:	e1d320b8 	ldrh	r2, [r3, #8]
    d760:	e30f3fff 	movw	r3, #65535	; 0xffff
    d764:	e1520003 	cmp	r2, r3
    d768:	0a000009 	beq	d794 <OSSemPost+0xac>
    d76c:	e51b3010 	ldr	r3, [fp, #-16]
    d770:	e1d330b8 	ldrh	r3, [r3, #8]
    d774:	e2833001 	add	r3, r3, #1
    d778:	e6ff2073 	uxth	r2, r3
    d77c:	e51b3010 	ldr	r3, [fp, #-16]
    d780:	e1c320b8 	strh	r2, [r3, #8]
    d784:	e51b0008 	ldr	r0, [fp, #-8]
    d788:	eb0006db 	bl	f2fc <OS_CPU_SR_Restore>
    d78c:	e3a03000 	mov	r3, #0
    d790:	ea000002 	b	d7a0 <OSSemPost+0xb8>
    d794:	e51b0008 	ldr	r0, [fp, #-8]
    d798:	eb0006d7 	bl	f2fc <OS_CPU_SR_Restore>
    d79c:	e3a03033 	mov	r3, #51	; 0x33
    d7a0:	e1a00003 	mov	r0, r3
    d7a4:	e24bd004 	sub	sp, fp, #4
    d7a8:	e8bd8800 	pop	{fp, pc}

0000d7ac <OSSemQuery>:
    d7ac:	e92d4800 	push	{fp, lr}
    d7b0:	e28db004 	add	fp, sp, #4
    d7b4:	e24dd018 	sub	sp, sp, #24
    d7b8:	e50b0018 	str	r0, [fp, #-24]	; 0xffffffe8
    d7bc:	e50b101c 	str	r1, [fp, #-28]	; 0xffffffe4
    d7c0:	e3a03000 	mov	r3, #0
    d7c4:	e50b3014 	str	r3, [fp, #-20]	; 0xffffffec
    d7c8:	e51b3018 	ldr	r3, [fp, #-24]	; 0xffffffe8
    d7cc:	e5d33000 	ldrb	r3, [r3]
    d7d0:	e3530003 	cmp	r3, #3
    d7d4:	0a000001 	beq	d7e0 <OSSemQuery+0x34>
    d7d8:	e3a03001 	mov	r3, #1
    d7dc:	ea000025 	b	d878 <OSSemQuery+0xcc>
    d7e0:	eb0006b2 	bl	f2b0 <OS_CPU_SR_Save>
    d7e4:	e50b0014 	str	r0, [fp, #-20]	; 0xffffffec
    d7e8:	e51b3018 	ldr	r3, [fp, #-24]	; 0xffffffe8
    d7ec:	e5d3200a 	ldrb	r2, [r3, #10]
    d7f0:	e51b301c 	ldr	r3, [fp, #-28]	; 0xffffffe4
    d7f4:	e5c3200a 	strb	r2, [r3, #10]
    d7f8:	e51b3018 	ldr	r3, [fp, #-24]	; 0xffffffe8
    d7fc:	e283300b 	add	r3, r3, #11
    d800:	e50b300c 	str	r3, [fp, #-12]
    d804:	e51b301c 	ldr	r3, [fp, #-28]	; 0xffffffe4
    d808:	e2833002 	add	r3, r3, #2
    d80c:	e50b3010 	str	r3, [fp, #-16]
    d810:	e3a03000 	mov	r3, #0
    d814:	e54b3005 	strb	r3, [fp, #-5]
    d818:	ea00000c 	b	d850 <OSSemQuery+0xa4>
    d81c:	e51b300c 	ldr	r3, [fp, #-12]
    d820:	e5d32000 	ldrb	r2, [r3]
    d824:	e51b3010 	ldr	r3, [fp, #-16]
    d828:	e5c32000 	strb	r2, [r3]
    d82c:	e51b3010 	ldr	r3, [fp, #-16]
    d830:	e2833001 	add	r3, r3, #1
    d834:	e50b3010 	str	r3, [fp, #-16]
    d838:	e51b300c 	ldr	r3, [fp, #-12]
    d83c:	e2833001 	add	r3, r3, #1
    d840:	e50b300c 	str	r3, [fp, #-12]
    d844:	e55b3005 	ldrb	r3, [fp, #-5]
    d848:	e2833001 	add	r3, r3, #1
    d84c:	e54b3005 	strb	r3, [fp, #-5]
    d850:	e55b3005 	ldrb	r3, [fp, #-5]
    d854:	e3530007 	cmp	r3, #7
    d858:	9affffef 	bls	d81c <OSSemQuery+0x70>
    d85c:	e51b3018 	ldr	r3, [fp, #-24]	; 0xffffffe8
    d860:	e1d320b8 	ldrh	r2, [r3, #8]
    d864:	e51b301c 	ldr	r3, [fp, #-28]	; 0xffffffe4
    d868:	e1c320b0 	strh	r2, [r3]
    d86c:	e51b0014 	ldr	r0, [fp, #-20]	; 0xffffffec
    d870:	eb0006a1 	bl	f2fc <OS_CPU_SR_Restore>
    d874:	e3a03000 	mov	r3, #0
    d878:	e1a00003 	mov	r0, r3
    d87c:	e24bd004 	sub	sp, fp, #4
    d880:	e8bd8800 	pop	{fp, pc}

0000d884 <OSSemSet>:
    d884:	e92d4800 	push	{fp, lr}
    d888:	e28db004 	add	fp, sp, #4
    d88c:	e24dd018 	sub	sp, sp, #24
    d890:	e50b0010 	str	r0, [fp, #-16]
    d894:	e1a03001 	mov	r3, r1
    d898:	e50b2018 	str	r2, [fp, #-24]	; 0xffffffe8
    d89c:	e14b31b2 	strh	r3, [fp, #-18]	; 0xffffffee
    d8a0:	e3a03000 	mov	r3, #0
    d8a4:	e50b3008 	str	r3, [fp, #-8]
    d8a8:	e51b3010 	ldr	r3, [fp, #-16]
    d8ac:	e5d33000 	ldrb	r3, [r3]
    d8b0:	e3530003 	cmp	r3, #3
    d8b4:	0a000003 	beq	d8c8 <OSSemSet+0x44>
    d8b8:	e51b3018 	ldr	r3, [fp, #-24]	; 0xffffffe8
    d8bc:	e3a02001 	mov	r2, #1
    d8c0:	e5c32000 	strb	r2, [r3]
    d8c4:	ea000019 	b	d930 <OSSemSet+0xac>
    d8c8:	eb000678 	bl	f2b0 <OS_CPU_SR_Save>
    d8cc:	e50b0008 	str	r0, [fp, #-8]
    d8d0:	e51b3018 	ldr	r3, [fp, #-24]	; 0xffffffe8
    d8d4:	e3a02000 	mov	r2, #0
    d8d8:	e5c32000 	strb	r2, [r3]
    d8dc:	e51b3010 	ldr	r3, [fp, #-16]
    d8e0:	e1d330b8 	ldrh	r3, [r3, #8]
    d8e4:	e3530000 	cmp	r3, #0
    d8e8:	0a000003 	beq	d8fc <OSSemSet+0x78>
    d8ec:	e51b3010 	ldr	r3, [fp, #-16]
    d8f0:	e15b21b2 	ldrh	r2, [fp, #-18]	; 0xffffffee
    d8f4:	e1c320b8 	strh	r2, [r3, #8]
    d8f8:	ea00000a 	b	d928 <OSSemSet+0xa4>
    d8fc:	e51b3010 	ldr	r3, [fp, #-16]
    d900:	e5d3300a 	ldrb	r3, [r3, #10]
    d904:	e3530000 	cmp	r3, #0
    d908:	1a000003 	bne	d91c <OSSemSet+0x98>
    d90c:	e51b3010 	ldr	r3, [fp, #-16]
    d910:	e15b21b2 	ldrh	r2, [fp, #-18]	; 0xffffffee
    d914:	e1c320b8 	strh	r2, [r3, #8]
    d918:	ea000002 	b	d928 <OSSemSet+0xa4>
    d91c:	e51b3018 	ldr	r3, [fp, #-24]	; 0xffffffe8
    d920:	e3a02049 	mov	r2, #73	; 0x49
    d924:	e5c32000 	strb	r2, [r3]
    d928:	e51b0008 	ldr	r0, [fp, #-8]
    d92c:	eb000672 	bl	f2fc <OS_CPU_SR_Restore>
    d930:	e24bd004 	sub	sp, fp, #4
    d934:	e8bd8800 	pop	{fp, pc}

0000d938 <OSTaskChangePrio>:
    d938:	e92d4800 	push	{fp, lr}
    d93c:	e28db004 	add	fp, sp, #4
    d940:	e24dd020 	sub	sp, sp, #32
    d944:	e1a02000 	mov	r2, r0
    d948:	e1a03001 	mov	r3, r1
    d94c:	e54b201d 	strb	r2, [fp, #-29]	; 0xffffffe3
    d950:	e54b301e 	strb	r3, [fp, #-30]	; 0xffffffe2
    d954:	e3a03000 	mov	r3, #0
    d958:	e50b3010 	str	r3, [fp, #-16]
    d95c:	eb000653 	bl	f2b0 <OS_CPU_SR_Save>
    d960:	e50b0010 	str	r0, [fp, #-16]
    d964:	e55b201e 	ldrb	r2, [fp, #-30]	; 0xffffffe2
    d968:	e30b392c 	movw	r3, #47404	; 0xb92c
    d96c:	e3403019 	movt	r3, #25
    d970:	e7933102 	ldr	r3, [r3, r2, lsl #2]
    d974:	e3530000 	cmp	r3, #0
    d978:	0a000003 	beq	d98c <OSTaskChangePrio+0x54>
    d97c:	e51b0010 	ldr	r0, [fp, #-16]
    d980:	eb00065d 	bl	f2fc <OS_CPU_SR_Restore>
    d984:	e3a03028 	mov	r3, #40	; 0x28
    d988:	ea000118 	b	ddf0 <OSTaskChangePrio+0x4b8>
    d98c:	e55b301d 	ldrb	r3, [fp, #-29]	; 0xffffffe3
    d990:	e35300ff 	cmp	r3, #255	; 0xff
    d994:	1a000004 	bne	d9ac <OSTaskChangePrio+0x74>
    d998:	e30a3fa4 	movw	r3, #44964	; 0xafa4
    d99c:	e3403019 	movt	r3, #25
    d9a0:	e5933000 	ldr	r3, [r3]
    d9a4:	e5d3302e 	ldrb	r3, [r3, #46]	; 0x2e
    d9a8:	e54b301d 	strb	r3, [fp, #-29]	; 0xffffffe3
    d9ac:	e55b201d 	ldrb	r2, [fp, #-29]	; 0xffffffe3
    d9b0:	e30b392c 	movw	r3, #47404	; 0xb92c
    d9b4:	e3403019 	movt	r3, #25
    d9b8:	e7933102 	ldr	r3, [r3, r2, lsl #2]
    d9bc:	e50b3014 	str	r3, [fp, #-20]	; 0xffffffec
    d9c0:	e51b3014 	ldr	r3, [fp, #-20]	; 0xffffffec
    d9c4:	e3530000 	cmp	r3, #0
    d9c8:	1a000003 	bne	d9dc <OSTaskChangePrio+0xa4>
    d9cc:	e51b0010 	ldr	r0, [fp, #-16]
    d9d0:	eb000649 	bl	f2fc <OS_CPU_SR_Restore>
    d9d4:	e3a03029 	mov	r3, #41	; 0x29
    d9d8:	ea000104 	b	ddf0 <OSTaskChangePrio+0x4b8>
    d9dc:	e51b3014 	ldr	r3, [fp, #-20]	; 0xffffffec
    d9e0:	e3530001 	cmp	r3, #1
    d9e4:	1a000003 	bne	d9f8 <OSTaskChangePrio+0xc0>
    d9e8:	e51b0010 	ldr	r0, [fp, #-16]
    d9ec:	eb000642 	bl	f2fc <OS_CPU_SR_Restore>
    d9f0:	e3a03043 	mov	r3, #67	; 0x43
    d9f4:	ea0000fd 	b	ddf0 <OSTaskChangePrio+0x4b8>
    d9f8:	e55b301e 	ldrb	r3, [fp, #-30]	; 0xffffffe2
    d9fc:	e1a031a3 	lsr	r3, r3, #3
    da00:	e54b3015 	strb	r3, [fp, #-21]	; 0xffffffeb
    da04:	e55b301e 	ldrb	r3, [fp, #-30]	; 0xffffffe2
    da08:	e2033007 	and	r3, r3, #7
    da0c:	e54b3016 	strb	r3, [fp, #-22]	; 0xffffffea
    da10:	e55b3015 	ldrb	r3, [fp, #-21]	; 0xffffffeb
    da14:	e3a02001 	mov	r2, #1
    da18:	e1a03312 	lsl	r3, r2, r3
    da1c:	e54b3017 	strb	r3, [fp, #-23]	; 0xffffffe9
    da20:	e55b3016 	ldrb	r3, [fp, #-22]	; 0xffffffea
    da24:	e3a02001 	mov	r2, #1
    da28:	e1a03312 	lsl	r3, r2, r3
    da2c:	e54b3018 	strb	r3, [fp, #-24]	; 0xffffffe8
    da30:	e55b201d 	ldrb	r2, [fp, #-29]	; 0xffffffe3
    da34:	e30b392c 	movw	r3, #47404	; 0xb92c
    da38:	e3403019 	movt	r3, #25
    da3c:	e3a01000 	mov	r1, #0
    da40:	e7831102 	str	r1, [r3, r2, lsl #2]
    da44:	e55b201e 	ldrb	r2, [fp, #-30]	; 0xffffffe2
    da48:	e30b392c 	movw	r3, #47404	; 0xb92c
    da4c:	e3403019 	movt	r3, #25
    da50:	e51b1014 	ldr	r1, [fp, #-20]	; 0xffffffec
    da54:	e7831102 	str	r1, [r3, r2, lsl #2]
    da58:	e51b3014 	ldr	r3, [fp, #-20]	; 0xffffffec
    da5c:	e5d33030 	ldrb	r3, [r3, #48]	; 0x30
    da60:	e54b3019 	strb	r3, [fp, #-25]	; 0xffffffe7
    da64:	e51b3014 	ldr	r3, [fp, #-20]	; 0xffffffec
    da68:	e5d33032 	ldrb	r3, [r3, #50]	; 0x32
    da6c:	e54b301a 	strb	r3, [fp, #-26]	; 0xffffffe6
    da70:	e51b3014 	ldr	r3, [fp, #-20]	; 0xffffffec
    da74:	e5d33031 	ldrb	r3, [r3, #49]	; 0x31
    da78:	e54b301b 	strb	r3, [fp, #-27]	; 0xffffffe5
    da7c:	e55b2019 	ldrb	r2, [fp, #-25]	; 0xffffffe7
    da80:	e30a3f94 	movw	r3, #44948	; 0xaf94
    da84:	e3403019 	movt	r3, #25
    da88:	e7d32002 	ldrb	r2, [r3, r2]
    da8c:	e55b301b 	ldrb	r3, [fp, #-27]	; 0xffffffe5
    da90:	e0023003 	and	r3, r2, r3
    da94:	e6ef3073 	uxtb	r3, r3
    da98:	e3530000 	cmp	r3, #0
    da9c:	0a000031 	beq	db68 <OSTaskChangePrio+0x230>
    daa0:	e55b2019 	ldrb	r2, [fp, #-25]	; 0xffffffe7
    daa4:	e55b1019 	ldrb	r1, [fp, #-25]	; 0xffffffe7
    daa8:	e30a3f94 	movw	r3, #44948	; 0xaf94
    daac:	e3403019 	movt	r3, #25
    dab0:	e7d31001 	ldrb	r1, [r3, r1]
    dab4:	e55b301b 	ldrb	r3, [fp, #-27]	; 0xffffffe5
    dab8:	e1e03003 	mvn	r3, r3
    dabc:	e6ef3073 	uxtb	r3, r3
    dac0:	e0013003 	and	r3, r1, r3
    dac4:	e6ef1073 	uxtb	r1, r3
    dac8:	e30a3f94 	movw	r3, #44948	; 0xaf94
    dacc:	e3403019 	movt	r3, #25
    dad0:	e7c31002 	strb	r1, [r3, r2]
    dad4:	e55b2019 	ldrb	r2, [fp, #-25]	; 0xffffffe7
    dad8:	e30a3f94 	movw	r3, #44948	; 0xaf94
    dadc:	e3403019 	movt	r3, #25
    dae0:	e7d33002 	ldrb	r3, [r3, r2]
    dae4:	e3530000 	cmp	r3, #0
    dae8:	1a00000a 	bne	db18 <OSTaskChangePrio+0x1e0>
    daec:	e55b301a 	ldrb	r3, [fp, #-26]	; 0xffffffe6
    daf0:	e1e03003 	mvn	r3, r3
    daf4:	e6ef2073 	uxtb	r2, r3
    daf8:	e30a3f90 	movw	r3, #44944	; 0xaf90
    dafc:	e3403019 	movt	r3, #25
    db00:	e5d33000 	ldrb	r3, [r3]
    db04:	e0023003 	and	r3, r2, r3
    db08:	e6ef2073 	uxtb	r2, r3
    db0c:	e30a3f90 	movw	r3, #44944	; 0xaf90
    db10:	e3403019 	movt	r3, #25
    db14:	e5c32000 	strb	r2, [r3]
    db18:	e30a3f90 	movw	r3, #44944	; 0xaf90
    db1c:	e3403019 	movt	r3, #25
    db20:	e5d32000 	ldrb	r2, [r3]
    db24:	e55b3017 	ldrb	r3, [fp, #-23]	; 0xffffffe9
    db28:	e1823003 	orr	r3, r2, r3
    db2c:	e6ef2073 	uxtb	r2, r3
    db30:	e30a3f90 	movw	r3, #44944	; 0xaf90
    db34:	e3403019 	movt	r3, #25
    db38:	e5c32000 	strb	r2, [r3]
    db3c:	e55b2015 	ldrb	r2, [fp, #-21]	; 0xffffffeb
    db40:	e55b1015 	ldrb	r1, [fp, #-21]	; 0xffffffeb
    db44:	e30a3f94 	movw	r3, #44948	; 0xaf94
    db48:	e3403019 	movt	r3, #25
    db4c:	e7d31001 	ldrb	r1, [r3, r1]
    db50:	e55b3018 	ldrb	r3, [fp, #-24]	; 0xffffffe8
    db54:	e1813003 	orr	r3, r1, r3
    db58:	e6ef1073 	uxtb	r1, r3
    db5c:	e30a3f94 	movw	r3, #44948	; 0xaf94
    db60:	e3403019 	movt	r3, #25
    db64:	e7c31002 	strb	r1, [r3, r2]
    db68:	e51b3014 	ldr	r3, [fp, #-20]	; 0xffffffec
    db6c:	e593301c 	ldr	r3, [r3, #28]
    db70:	e50b3008 	str	r3, [fp, #-8]
    db74:	e51b3008 	ldr	r3, [fp, #-8]
    db78:	e3530000 	cmp	r3, #0
    db7c:	0a000037 	beq	dc60 <OSTaskChangePrio+0x328>
    db80:	e55b1019 	ldrb	r1, [fp, #-25]	; 0xffffffe7
    db84:	e55b2019 	ldrb	r2, [fp, #-25]	; 0xffffffe7
    db88:	e51b0008 	ldr	r0, [fp, #-8]
    db8c:	e3a03008 	mov	r3, #8
    db90:	e0802002 	add	r2, r0, r2
    db94:	e0823003 	add	r3, r2, r3
    db98:	e5d32003 	ldrb	r2, [r3, #3]
    db9c:	e55b301b 	ldrb	r3, [fp, #-27]	; 0xffffffe5
    dba0:	e1e03003 	mvn	r3, r3
    dba4:	e6ef3073 	uxtb	r3, r3
    dba8:	e0023003 	and	r3, r2, r3
    dbac:	e6ef2073 	uxtb	r2, r3
    dbb0:	e51b0008 	ldr	r0, [fp, #-8]
    dbb4:	e3a03008 	mov	r3, #8
    dbb8:	e0801001 	add	r1, r0, r1
    dbbc:	e0813003 	add	r3, r1, r3
    dbc0:	e5c32003 	strb	r2, [r3, #3]
    dbc4:	e55b2019 	ldrb	r2, [fp, #-25]	; 0xffffffe7
    dbc8:	e51b1008 	ldr	r1, [fp, #-8]
    dbcc:	e3a03008 	mov	r3, #8
    dbd0:	e0812002 	add	r2, r1, r2
    dbd4:	e0823003 	add	r3, r2, r3
    dbd8:	e5d33003 	ldrb	r3, [r3, #3]
    dbdc:	e3530000 	cmp	r3, #0
    dbe0:	1a000008 	bne	dc08 <OSTaskChangePrio+0x2d0>
    dbe4:	e51b3008 	ldr	r3, [fp, #-8]
    dbe8:	e5d3200a 	ldrb	r2, [r3, #10]
    dbec:	e55b301a 	ldrb	r3, [fp, #-26]	; 0xffffffe6
    dbf0:	e1e03003 	mvn	r3, r3
    dbf4:	e6ef3073 	uxtb	r3, r3
    dbf8:	e0023003 	and	r3, r2, r3
    dbfc:	e6ef2073 	uxtb	r2, r3
    dc00:	e51b3008 	ldr	r3, [fp, #-8]
    dc04:	e5c3200a 	strb	r2, [r3, #10]
    dc08:	e51b3008 	ldr	r3, [fp, #-8]
    dc0c:	e5d3200a 	ldrb	r2, [r3, #10]
    dc10:	e55b3017 	ldrb	r3, [fp, #-23]	; 0xffffffe9
    dc14:	e1823003 	orr	r3, r2, r3
    dc18:	e6ef2073 	uxtb	r2, r3
    dc1c:	e51b3008 	ldr	r3, [fp, #-8]
    dc20:	e5c3200a 	strb	r2, [r3, #10]
    dc24:	e55b1015 	ldrb	r1, [fp, #-21]	; 0xffffffeb
    dc28:	e55b2015 	ldrb	r2, [fp, #-21]	; 0xffffffeb
    dc2c:	e51b0008 	ldr	r0, [fp, #-8]
    dc30:	e3a03008 	mov	r3, #8
    dc34:	e0802002 	add	r2, r0, r2
    dc38:	e0823003 	add	r3, r2, r3
    dc3c:	e5d32003 	ldrb	r2, [r3, #3]
    dc40:	e55b3018 	ldrb	r3, [fp, #-24]	; 0xffffffe8
    dc44:	e1823003 	orr	r3, r2, r3
    dc48:	e6ef2073 	uxtb	r2, r3
    dc4c:	e51b0008 	ldr	r0, [fp, #-8]
    dc50:	e3a03008 	mov	r3, #8
    dc54:	e0801001 	add	r1, r0, r1
    dc58:	e0813003 	add	r3, r1, r3
    dc5c:	e5c32003 	strb	r2, [r3, #3]
    dc60:	e51b3014 	ldr	r3, [fp, #-20]	; 0xffffffec
    dc64:	e5933020 	ldr	r3, [r3, #32]
    dc68:	e3530000 	cmp	r3, #0
    dc6c:	0a000047 	beq	dd90 <OSTaskChangePrio+0x458>
    dc70:	e51b3014 	ldr	r3, [fp, #-20]	; 0xffffffec
    dc74:	e5933020 	ldr	r3, [r3, #32]
    dc78:	e50b300c 	str	r3, [fp, #-12]
    dc7c:	e51b300c 	ldr	r3, [fp, #-12]
    dc80:	e5933000 	ldr	r3, [r3]
    dc84:	e50b3008 	str	r3, [fp, #-8]
    dc88:	ea00003d 	b	dd84 <OSTaskChangePrio+0x44c>
    dc8c:	e55b1019 	ldrb	r1, [fp, #-25]	; 0xffffffe7
    dc90:	e55b2019 	ldrb	r2, [fp, #-25]	; 0xffffffe7
    dc94:	e51b0008 	ldr	r0, [fp, #-8]
    dc98:	e3a03008 	mov	r3, #8
    dc9c:	e0802002 	add	r2, r0, r2
    dca0:	e0823003 	add	r3, r2, r3
    dca4:	e5d32003 	ldrb	r2, [r3, #3]
    dca8:	e55b301b 	ldrb	r3, [fp, #-27]	; 0xffffffe5
    dcac:	e1e03003 	mvn	r3, r3
    dcb0:	e6ef3073 	uxtb	r3, r3
    dcb4:	e0023003 	and	r3, r2, r3
    dcb8:	e6ef2073 	uxtb	r2, r3
    dcbc:	e51b0008 	ldr	r0, [fp, #-8]
    dcc0:	e3a03008 	mov	r3, #8
    dcc4:	e0801001 	add	r1, r0, r1
    dcc8:	e0813003 	add	r3, r1, r3
    dccc:	e5c32003 	strb	r2, [r3, #3]
    dcd0:	e55b2019 	ldrb	r2, [fp, #-25]	; 0xffffffe7
    dcd4:	e51b1008 	ldr	r1, [fp, #-8]
    dcd8:	e3a03008 	mov	r3, #8
    dcdc:	e0812002 	add	r2, r1, r2
    dce0:	e0823003 	add	r3, r2, r3
    dce4:	e5d33003 	ldrb	r3, [r3, #3]
    dce8:	e3530000 	cmp	r3, #0
    dcec:	1a000008 	bne	dd14 <OSTaskChangePrio+0x3dc>
    dcf0:	e51b3008 	ldr	r3, [fp, #-8]
    dcf4:	e5d3200a 	ldrb	r2, [r3, #10]
    dcf8:	e55b301a 	ldrb	r3, [fp, #-26]	; 0xffffffe6
    dcfc:	e1e03003 	mvn	r3, r3
    dd00:	e6ef3073 	uxtb	r3, r3
    dd04:	e0023003 	and	r3, r2, r3
    dd08:	e6ef2073 	uxtb	r2, r3
    dd0c:	e51b3008 	ldr	r3, [fp, #-8]
    dd10:	e5c3200a 	strb	r2, [r3, #10]
    dd14:	e51b3008 	ldr	r3, [fp, #-8]
    dd18:	e5d3200a 	ldrb	r2, [r3, #10]
    dd1c:	e55b3017 	ldrb	r3, [fp, #-23]	; 0xffffffe9
    dd20:	e1823003 	orr	r3, r2, r3
    dd24:	e6ef2073 	uxtb	r2, r3
    dd28:	e51b3008 	ldr	r3, [fp, #-8]
    dd2c:	e5c3200a 	strb	r2, [r3, #10]
    dd30:	e55b1015 	ldrb	r1, [fp, #-21]	; 0xffffffeb
    dd34:	e55b2015 	ldrb	r2, [fp, #-21]	; 0xffffffeb
    dd38:	e51b0008 	ldr	r0, [fp, #-8]
    dd3c:	e3a03008 	mov	r3, #8
    dd40:	e0802002 	add	r2, r0, r2
    dd44:	e0823003 	add	r3, r2, r3
    dd48:	e5d32003 	ldrb	r2, [r3, #3]
    dd4c:	e55b3018 	ldrb	r3, [fp, #-24]	; 0xffffffe8
    dd50:	e1823003 	orr	r3, r2, r3
    dd54:	e6ef2073 	uxtb	r2, r3
    dd58:	e51b0008 	ldr	r0, [fp, #-8]
    dd5c:	e3a03008 	mov	r3, #8
    dd60:	e0801001 	add	r1, r0, r1
    dd64:	e0813003 	add	r3, r1, r3
    dd68:	e5c32003 	strb	r2, [r3, #3]
    dd6c:	e51b300c 	ldr	r3, [fp, #-12]
    dd70:	e2833004 	add	r3, r3, #4
    dd74:	e50b300c 	str	r3, [fp, #-12]
    dd78:	e51b300c 	ldr	r3, [fp, #-12]
    dd7c:	e5933000 	ldr	r3, [r3]
    dd80:	e50b3008 	str	r3, [fp, #-8]
    dd84:	e51b3008 	ldr	r3, [fp, #-8]
    dd88:	e3530000 	cmp	r3, #0
    dd8c:	1affffbe 	bne	dc8c <OSTaskChangePrio+0x354>
    dd90:	e51b3014 	ldr	r3, [fp, #-20]	; 0xffffffec
    dd94:	e55b201e 	ldrb	r2, [fp, #-30]	; 0xffffffe2
    dd98:	e5c3202e 	strb	r2, [r3, #46]	; 0x2e
    dd9c:	e51b3014 	ldr	r3, [fp, #-20]	; 0xffffffec
    dda0:	e55b2015 	ldrb	r2, [fp, #-21]	; 0xffffffeb
    dda4:	e5c32030 	strb	r2, [r3, #48]	; 0x30
    dda8:	e51b3014 	ldr	r3, [fp, #-20]	; 0xffffffec
    ddac:	e55b2016 	ldrb	r2, [fp, #-22]	; 0xffffffea
    ddb0:	e5c3202f 	strb	r2, [r3, #47]	; 0x2f
    ddb4:	e51b3014 	ldr	r3, [fp, #-20]	; 0xffffffec
    ddb8:	e55b2017 	ldrb	r2, [fp, #-23]	; 0xffffffe9
    ddbc:	e5c32032 	strb	r2, [r3, #50]	; 0x32
    ddc0:	e51b3014 	ldr	r3, [fp, #-20]	; 0xffffffec
    ddc4:	e55b2018 	ldrb	r2, [fp, #-24]	; 0xffffffe8
    ddc8:	e5c32031 	strb	r2, [r3, #49]	; 0x31
    ddcc:	e51b0010 	ldr	r0, [fp, #-16]
    ddd0:	eb000549 	bl	f2fc <OS_CPU_SR_Restore>
    ddd4:	e30a3e8e 	movw	r3, #44686	; 0xae8e
    ddd8:	e3403019 	movt	r3, #25
    dddc:	e5d33000 	ldrb	r3, [r3]
    dde0:	e3530001 	cmp	r3, #1
    dde4:	1a000000 	bne	ddec <OSTaskChangePrio+0x4b4>
    dde8:	ebffef52 	bl	9b38 <OS_Sched>
    ddec:	e3a03000 	mov	r3, #0
    ddf0:	e1a00003 	mov	r0, r3
    ddf4:	e24bd004 	sub	sp, fp, #4
    ddf8:	e8bd8800 	pop	{fp, pc}

0000ddfc <OSTaskCreate>:
    ddfc:	e92d4800 	push	{fp, lr}
    de00:	e28db004 	add	fp, sp, #4
    de04:	e24dd030 	sub	sp, sp, #48	; 0x30
    de08:	e50b0018 	str	r0, [fp, #-24]	; 0xffffffe8
    de0c:	e50b101c 	str	r1, [fp, #-28]	; 0xffffffe4
    de10:	e50b2020 	str	r2, [fp, #-32]	; 0xffffffe0
    de14:	e54b3021 	strb	r3, [fp, #-33]	; 0xffffffdf
    de18:	e3a03000 	mov	r3, #0
    de1c:	e50b3008 	str	r3, [fp, #-8]
    de20:	eb000522 	bl	f2b0 <OS_CPU_SR_Save>
    de24:	e50b0008 	str	r0, [fp, #-8]
    de28:	e30a3fa0 	movw	r3, #44960	; 0xafa0
    de2c:	e3403019 	movt	r3, #25
    de30:	e5d33000 	ldrb	r3, [r3]
    de34:	e3530000 	cmp	r3, #0
    de38:	0a000003 	beq	de4c <OSTaskCreate+0x50>
    de3c:	e51b0008 	ldr	r0, [fp, #-8]
    de40:	eb00052d 	bl	f2fc <OS_CPU_SR_Restore>
    de44:	e3a0303c 	mov	r3, #60	; 0x3c
    de48:	ea000038 	b	df30 <OSTaskCreate+0x134>
    de4c:	e55b2021 	ldrb	r2, [fp, #-33]	; 0xffffffdf
    de50:	e30b392c 	movw	r3, #47404	; 0xb92c
    de54:	e3403019 	movt	r3, #25
    de58:	e7933102 	ldr	r3, [r3, r2, lsl #2]
    de5c:	e3530000 	cmp	r3, #0
    de60:	1a00002f 	bne	df24 <OSTaskCreate+0x128>
    de64:	e55b2021 	ldrb	r2, [fp, #-33]	; 0xffffffdf
    de68:	e30b392c 	movw	r3, #47404	; 0xb92c
    de6c:	e3403019 	movt	r3, #25
    de70:	e3a01001 	mov	r1, #1
    de74:	e7831102 	str	r1, [r3, r2, lsl #2]
    de78:	e51b0008 	ldr	r0, [fp, #-8]
    de7c:	eb00051e 	bl	f2fc <OS_CPU_SR_Restore>
    de80:	e51b0018 	ldr	r0, [fp, #-24]	; 0xffffffe8
    de84:	e51b101c 	ldr	r1, [fp, #-28]	; 0xffffffe4
    de88:	e51b2020 	ldr	r2, [fp, #-32]	; 0xffffffe0
    de8c:	e3a03000 	mov	r3, #0
    de90:	eb00067e 	bl	f890 <OSTaskStkInit>
    de94:	e50b000c 	str	r0, [fp, #-12]
    de98:	e55b3021 	ldrb	r3, [fp, #-33]	; 0xffffffdf
    de9c:	e3a02000 	mov	r2, #0
    dea0:	e58d2000 	str	r2, [sp]
    dea4:	e3a02000 	mov	r2, #0
    dea8:	e58d2004 	str	r2, [sp, #4]
    deac:	e3a02000 	mov	r2, #0
    deb0:	e58d2008 	str	r2, [sp, #8]
    deb4:	e1a00003 	mov	r0, r3
    deb8:	e51b100c 	ldr	r1, [fp, #-12]
    debc:	e3a02000 	mov	r2, #0
    dec0:	e3a03000 	mov	r3, #0
    dec4:	ebffefc6 	bl	9de4 <OS_TCBInit>
    dec8:	e1a03000 	mov	r3, r0
    decc:	e54b300d 	strb	r3, [fp, #-13]
    ded0:	e55b300d 	ldrb	r3, [fp, #-13]
    ded4:	e3530000 	cmp	r3, #0
    ded8:	1a000006 	bne	def8 <OSTaskCreate+0xfc>
    dedc:	e30a3e8e 	movw	r3, #44686	; 0xae8e
    dee0:	e3403019 	movt	r3, #25
    dee4:	e5d33000 	ldrb	r3, [r3]
    dee8:	e3530001 	cmp	r3, #1
    deec:	1a00000a 	bne	df1c <OSTaskCreate+0x120>
    def0:	ebffef10 	bl	9b38 <OS_Sched>
    def4:	ea000008 	b	df1c <OSTaskCreate+0x120>
    def8:	eb0004ec 	bl	f2b0 <OS_CPU_SR_Save>
    defc:	e50b0008 	str	r0, [fp, #-8]
    df00:	e55b2021 	ldrb	r2, [fp, #-33]	; 0xffffffdf
    df04:	e30b392c 	movw	r3, #47404	; 0xb92c
    df08:	e3403019 	movt	r3, #25
    df0c:	e3a01000 	mov	r1, #0
    df10:	e7831102 	str	r1, [r3, r2, lsl #2]
    df14:	e51b0008 	ldr	r0, [fp, #-8]
    df18:	eb0004f7 	bl	f2fc <OS_CPU_SR_Restore>
    df1c:	e55b300d 	ldrb	r3, [fp, #-13]
    df20:	ea000002 	b	df30 <OSTaskCreate+0x134>
    df24:	e51b0008 	ldr	r0, [fp, #-8]
    df28:	eb0004f3 	bl	f2fc <OS_CPU_SR_Restore>
    df2c:	e3a03028 	mov	r3, #40	; 0x28
    df30:	e1a00003 	mov	r0, r3
    df34:	e24bd004 	sub	sp, fp, #4
    df38:	e8bd8800 	pop	{fp, pc}

0000df3c <OSTaskCreateExt>:
    df3c:	e92d4800 	push	{fp, lr}
    df40:	e28db004 	add	fp, sp, #4
    df44:	e24dd030 	sub	sp, sp, #48	; 0x30
    df48:	e50b0018 	str	r0, [fp, #-24]	; 0xffffffe8
    df4c:	e50b101c 	str	r1, [fp, #-28]	; 0xffffffe4
    df50:	e50b2020 	str	r2, [fp, #-32]	; 0xffffffe0
    df54:	e54b3021 	strb	r3, [fp, #-33]	; 0xffffffdf
    df58:	e3a03000 	mov	r3, #0
    df5c:	e50b3008 	str	r3, [fp, #-8]
    df60:	eb0004d2 	bl	f2b0 <OS_CPU_SR_Save>
    df64:	e50b0008 	str	r0, [fp, #-8]
    df68:	e30a3fa0 	movw	r3, #44960	; 0xafa0
    df6c:	e3403019 	movt	r3, #25
    df70:	e5d33000 	ldrb	r3, [r3]
    df74:	e3530000 	cmp	r3, #0
    df78:	0a000003 	beq	df8c <OSTaskCreateExt+0x50>
    df7c:	e51b0008 	ldr	r0, [fp, #-8]
    df80:	eb0004dd 	bl	f2fc <OS_CPU_SR_Restore>
    df84:	e3a0303c 	mov	r3, #60	; 0x3c
    df88:	ea00003d 	b	e084 <OSTaskCreateExt+0x148>
    df8c:	e55b2021 	ldrb	r2, [fp, #-33]	; 0xffffffdf
    df90:	e30b392c 	movw	r3, #47404	; 0xb92c
    df94:	e3403019 	movt	r3, #25
    df98:	e7933102 	ldr	r3, [r3, r2, lsl #2]
    df9c:	e3530000 	cmp	r3, #0
    dfa0:	1a000034 	bne	e078 <OSTaskCreateExt+0x13c>
    dfa4:	e55b2021 	ldrb	r2, [fp, #-33]	; 0xffffffdf
    dfa8:	e30b392c 	movw	r3, #47404	; 0xb92c
    dfac:	e3403019 	movt	r3, #25
    dfb0:	e3a01001 	mov	r1, #1
    dfb4:	e7831102 	str	r1, [r3, r2, lsl #2]
    dfb8:	e51b0008 	ldr	r0, [fp, #-8]
    dfbc:	eb0004ce 	bl	f2fc <OS_CPU_SR_Restore>
    dfc0:	e1db31b4 	ldrh	r3, [fp, #20]
    dfc4:	e59b0008 	ldr	r0, [fp, #8]
    dfc8:	e59b100c 	ldr	r1, [fp, #12]
    dfcc:	e1a02003 	mov	r2, r3
    dfd0:	eb000391 	bl	ee1c <OS_TaskStkClr>
    dfd4:	e1db31b4 	ldrh	r3, [fp, #20]
    dfd8:	e51b0018 	ldr	r0, [fp, #-24]	; 0xffffffe8
    dfdc:	e51b101c 	ldr	r1, [fp, #-28]	; 0xffffffe4
    dfe0:	e51b2020 	ldr	r2, [fp, #-32]	; 0xffffffe0
    dfe4:	eb000629 	bl	f890 <OSTaskStkInit>
    dfe8:	e50b000c 	str	r0, [fp, #-12]
    dfec:	e55b2021 	ldrb	r2, [fp, #-33]	; 0xffffffdf
    dff0:	e1db30b4 	ldrh	r3, [fp, #4]
    dff4:	e59b100c 	ldr	r1, [fp, #12]
    dff8:	e58d1000 	str	r1, [sp]
    dffc:	e59b1010 	ldr	r1, [fp, #16]
    e000:	e58d1004 	str	r1, [sp, #4]
    e004:	e1db11b4 	ldrh	r1, [fp, #20]
    e008:	e58d1008 	str	r1, [sp, #8]
    e00c:	e1a00002 	mov	r0, r2
    e010:	e51b100c 	ldr	r1, [fp, #-12]
    e014:	e59b2008 	ldr	r2, [fp, #8]
    e018:	ebffef71 	bl	9de4 <OS_TCBInit>
    e01c:	e1a03000 	mov	r3, r0
    e020:	e54b300d 	strb	r3, [fp, #-13]
    e024:	e55b300d 	ldrb	r3, [fp, #-13]
    e028:	e3530000 	cmp	r3, #0
    e02c:	1a000006 	bne	e04c <OSTaskCreateExt+0x110>
    e030:	e30a3e8e 	movw	r3, #44686	; 0xae8e
    e034:	e3403019 	movt	r3, #25
    e038:	e5d33000 	ldrb	r3, [r3]
    e03c:	e3530001 	cmp	r3, #1
    e040:	1a00000a 	bne	e070 <OSTaskCreateExt+0x134>
    e044:	ebffeebb 	bl	9b38 <OS_Sched>
    e048:	ea000008 	b	e070 <OSTaskCreateExt+0x134>
    e04c:	eb000497 	bl	f2b0 <OS_CPU_SR_Save>
    e050:	e50b0008 	str	r0, [fp, #-8]
    e054:	e55b2021 	ldrb	r2, [fp, #-33]	; 0xffffffdf
    e058:	e30b392c 	movw	r3, #47404	; 0xb92c
    e05c:	e3403019 	movt	r3, #25
    e060:	e3a01000 	mov	r1, #0
    e064:	e7831102 	str	r1, [r3, r2, lsl #2]
    e068:	e51b0008 	ldr	r0, [fp, #-8]
    e06c:	eb0004a2 	bl	f2fc <OS_CPU_SR_Restore>
    e070:	e55b300d 	ldrb	r3, [fp, #-13]
    e074:	ea000002 	b	e084 <OSTaskCreateExt+0x148>
    e078:	e51b0008 	ldr	r0, [fp, #-8]
    e07c:	eb00049e 	bl	f2fc <OS_CPU_SR_Restore>
    e080:	e3a03028 	mov	r3, #40	; 0x28
    e084:	e1a00003 	mov	r0, r3
    e088:	e24bd004 	sub	sp, fp, #4
    e08c:	e8bd8800 	pop	{fp, pc}

0000e090 <OSTaskDel>:
    e090:	e92d4800 	push	{fp, lr}
    e094:	e28db004 	add	fp, sp, #4
    e098:	e24dd010 	sub	sp, sp, #16
    e09c:	e1a03000 	mov	r3, r0
    e0a0:	e54b300d 	strb	r3, [fp, #-13]
    e0a4:	e3a03000 	mov	r3, #0
    e0a8:	e50b3008 	str	r3, [fp, #-8]
    e0ac:	e30a3fa0 	movw	r3, #44960	; 0xafa0
    e0b0:	e3403019 	movt	r3, #25
    e0b4:	e5d33000 	ldrb	r3, [r3]
    e0b8:	e3530000 	cmp	r3, #0
    e0bc:	0a000001 	beq	e0c8 <OSTaskDel+0x38>
    e0c0:	e3a03040 	mov	r3, #64	; 0x40
    e0c4:	ea0000be 	b	e3c4 <OSTaskDel+0x334>
    e0c8:	e55b300d 	ldrb	r3, [fp, #-13]
    e0cc:	e353003f 	cmp	r3, #63	; 0x3f
    e0d0:	1a000001 	bne	e0dc <OSTaskDel+0x4c>
    e0d4:	e3a0303e 	mov	r3, #62	; 0x3e
    e0d8:	ea0000b9 	b	e3c4 <OSTaskDel+0x334>
    e0dc:	eb000473 	bl	f2b0 <OS_CPU_SR_Save>
    e0e0:	e50b0008 	str	r0, [fp, #-8]
    e0e4:	e55b300d 	ldrb	r3, [fp, #-13]
    e0e8:	e35300ff 	cmp	r3, #255	; 0xff
    e0ec:	1a000004 	bne	e104 <OSTaskDel+0x74>
    e0f0:	e30a3fa4 	movw	r3, #44964	; 0xafa4
    e0f4:	e3403019 	movt	r3, #25
    e0f8:	e5933000 	ldr	r3, [r3]
    e0fc:	e5d3302e 	ldrb	r3, [r3, #46]	; 0x2e
    e100:	e54b300d 	strb	r3, [fp, #-13]
    e104:	e55b200d 	ldrb	r2, [fp, #-13]
    e108:	e30b392c 	movw	r3, #47404	; 0xb92c
    e10c:	e3403019 	movt	r3, #25
    e110:	e7933102 	ldr	r3, [r3, r2, lsl #2]
    e114:	e50b300c 	str	r3, [fp, #-12]
    e118:	e51b300c 	ldr	r3, [fp, #-12]
    e11c:	e3530000 	cmp	r3, #0
    e120:	1a000003 	bne	e134 <OSTaskDel+0xa4>
    e124:	e51b0008 	ldr	r0, [fp, #-8]
    e128:	eb000473 	bl	f2fc <OS_CPU_SR_Restore>
    e12c:	e3a03043 	mov	r3, #67	; 0x43
    e130:	ea0000a3 	b	e3c4 <OSTaskDel+0x334>
    e134:	e51b300c 	ldr	r3, [fp, #-12]
    e138:	e3530001 	cmp	r3, #1
    e13c:	1a000003 	bne	e150 <OSTaskDel+0xc0>
    e140:	e51b0008 	ldr	r0, [fp, #-8]
    e144:	eb00046c 	bl	f2fc <OS_CPU_SR_Restore>
    e148:	e3a0303d 	mov	r3, #61	; 0x3d
    e14c:	ea00009c 	b	e3c4 <OSTaskDel+0x334>
    e150:	e51b300c 	ldr	r3, [fp, #-12]
    e154:	e5d33030 	ldrb	r3, [r3, #48]	; 0x30
    e158:	e1a02003 	mov	r2, r3
    e15c:	e51b300c 	ldr	r3, [fp, #-12]
    e160:	e5d33030 	ldrb	r3, [r3, #48]	; 0x30
    e164:	e1a01003 	mov	r1, r3
    e168:	e30a3f94 	movw	r3, #44948	; 0xaf94
    e16c:	e3403019 	movt	r3, #25
    e170:	e7d31001 	ldrb	r1, [r3, r1]
    e174:	e51b300c 	ldr	r3, [fp, #-12]
    e178:	e5d33031 	ldrb	r3, [r3, #49]	; 0x31
    e17c:	e1e03003 	mvn	r3, r3
    e180:	e6ef3073 	uxtb	r3, r3
    e184:	e0013003 	and	r3, r1, r3
    e188:	e6ef1073 	uxtb	r1, r3
    e18c:	e30a3f94 	movw	r3, #44948	; 0xaf94
    e190:	e3403019 	movt	r3, #25
    e194:	e7c31002 	strb	r1, [r3, r2]
    e198:	e51b300c 	ldr	r3, [fp, #-12]
    e19c:	e5d33030 	ldrb	r3, [r3, #48]	; 0x30
    e1a0:	e1a02003 	mov	r2, r3
    e1a4:	e30a3f94 	movw	r3, #44948	; 0xaf94
    e1a8:	e3403019 	movt	r3, #25
    e1ac:	e7d33002 	ldrb	r3, [r3, r2]
    e1b0:	e3530000 	cmp	r3, #0
    e1b4:	1a00000b 	bne	e1e8 <OSTaskDel+0x158>
    e1b8:	e51b300c 	ldr	r3, [fp, #-12]
    e1bc:	e5d33032 	ldrb	r3, [r3, #50]	; 0x32
    e1c0:	e1e03003 	mvn	r3, r3
    e1c4:	e6ef2073 	uxtb	r2, r3
    e1c8:	e30a3f90 	movw	r3, #44944	; 0xaf90
    e1cc:	e3403019 	movt	r3, #25
    e1d0:	e5d33000 	ldrb	r3, [r3]
    e1d4:	e0023003 	and	r3, r2, r3
    e1d8:	e6ef2073 	uxtb	r2, r3
    e1dc:	e30a3f90 	movw	r3, #44944	; 0xaf90
    e1e0:	e3403019 	movt	r3, #25
    e1e4:	e5c32000 	strb	r2, [r3]
    e1e8:	e51b300c 	ldr	r3, [fp, #-12]
    e1ec:	e593301c 	ldr	r3, [r3, #28]
    e1f0:	e3530000 	cmp	r3, #0
    e1f4:	0a000004 	beq	e20c <OSTaskDel+0x17c>
    e1f8:	e51b300c 	ldr	r3, [fp, #-12]
    e1fc:	e593301c 	ldr	r3, [r3, #28]
    e200:	e51b000c 	ldr	r0, [fp, #-12]
    e204:	e1a01003 	mov	r1, r3
    e208:	ebffec90 	bl	9450 <OS_EventTaskRemove>
    e20c:	e51b300c 	ldr	r3, [fp, #-12]
    e210:	e5933020 	ldr	r3, [r3, #32]
    e214:	e3530000 	cmp	r3, #0
    e218:	0a000004 	beq	e230 <OSTaskDel+0x1a0>
    e21c:	e51b300c 	ldr	r3, [fp, #-12]
    e220:	e5933020 	ldr	r3, [r3, #32]
    e224:	e51b000c 	ldr	r0, [fp, #-12]
    e228:	e1a01003 	mov	r1, r3
    e22c:	ebffecb6 	bl	950c <OS_EventTaskRemoveMulti>
    e230:	e51b300c 	ldr	r3, [fp, #-12]
    e234:	e3a02000 	mov	r2, #0
    e238:	e5832028 	str	r2, [r3, #40]	; 0x28
    e23c:	e51b300c 	ldr	r3, [fp, #-12]
    e240:	e3a02000 	mov	r2, #0
    e244:	e5c3202c 	strb	r2, [r3, #44]	; 0x2c
    e248:	e51b300c 	ldr	r3, [fp, #-12]
    e24c:	e3a02000 	mov	r2, #0
    e250:	e5c3202d 	strb	r2, [r3, #45]	; 0x2d
    e254:	e30a3e8c 	movw	r3, #44684	; 0xae8c
    e258:	e3403019 	movt	r3, #25
    e25c:	e5d33000 	ldrb	r3, [r3]
    e260:	e35300ff 	cmp	r3, #255	; 0xff
    e264:	0a000007 	beq	e288 <OSTaskDel+0x1f8>
    e268:	e30a3e8c 	movw	r3, #44684	; 0xae8c
    e26c:	e3403019 	movt	r3, #25
    e270:	e5d33000 	ldrb	r3, [r3]
    e274:	e2833001 	add	r3, r3, #1
    e278:	e6ef2073 	uxtb	r2, r3
    e27c:	e30a3e8c 	movw	r3, #44684	; 0xae8c
    e280:	e3403019 	movt	r3, #25
    e284:	e5c32000 	strb	r2, [r3]
    e288:	e51b0008 	ldr	r0, [fp, #-8]
    e28c:	eb00041a 	bl	f2fc <OS_CPU_SR_Restore>
    e290:	ebffeb3f 	bl	8f94 <OS_Dummy>
    e294:	eb000405 	bl	f2b0 <OS_CPU_SR_Save>
    e298:	e50b0008 	str	r0, [fp, #-8]
    e29c:	e30a3e8c 	movw	r3, #44684	; 0xae8c
    e2a0:	e3403019 	movt	r3, #25
    e2a4:	e5d33000 	ldrb	r3, [r3]
    e2a8:	e3530000 	cmp	r3, #0
    e2ac:	0a000007 	beq	e2d0 <OSTaskDel+0x240>
    e2b0:	e30a3e8c 	movw	r3, #44684	; 0xae8c
    e2b4:	e3403019 	movt	r3, #25
    e2b8:	e5d33000 	ldrb	r3, [r3]
    e2bc:	e2433001 	sub	r3, r3, #1
    e2c0:	e6ef2073 	uxtb	r2, r3
    e2c4:	e30a3e8c 	movw	r3, #44684	; 0xae8c
    e2c8:	e3403019 	movt	r3, #25
    e2cc:	e5c32000 	strb	r2, [r3]
    e2d0:	e51b000c 	ldr	r0, [fp, #-12]
    e2d4:	eb000555 	bl	f830 <OSTaskDelHook>
    e2d8:	e30a3f20 	movw	r3, #44832	; 0xaf20
    e2dc:	e3403019 	movt	r3, #25
    e2e0:	e5d33000 	ldrb	r3, [r3]
    e2e4:	e2433001 	sub	r3, r3, #1
    e2e8:	e6ef2073 	uxtb	r2, r3
    e2ec:	e30a3f20 	movw	r3, #44832	; 0xaf20
    e2f0:	e3403019 	movt	r3, #25
    e2f4:	e5c32000 	strb	r2, [r3]
    e2f8:	e55b200d 	ldrb	r2, [fp, #-13]
    e2fc:	e30b392c 	movw	r3, #47404	; 0xb92c
    e300:	e3403019 	movt	r3, #25
    e304:	e3a01000 	mov	r1, #0
    e308:	e7831102 	str	r1, [r3, r2, lsl #2]
    e30c:	e51b300c 	ldr	r3, [fp, #-12]
    e310:	e5933018 	ldr	r3, [r3, #24]
    e314:	e3530000 	cmp	r3, #0
    e318:	1a000009 	bne	e344 <OSTaskDel+0x2b4>
    e31c:	e51b300c 	ldr	r3, [fp, #-12]
    e320:	e5933014 	ldr	r3, [r3, #20]
    e324:	e3a02000 	mov	r2, #0
    e328:	e5832018 	str	r2, [r3, #24]
    e32c:	e51b300c 	ldr	r3, [fp, #-12]
    e330:	e5932014 	ldr	r2, [r3, #20]
    e334:	e30a3e98 	movw	r3, #44696	; 0xae98
    e338:	e3403019 	movt	r3, #25
    e33c:	e5832000 	str	r2, [r3]
    e340:	ea000009 	b	e36c <OSTaskDel+0x2dc>
    e344:	e51b300c 	ldr	r3, [fp, #-12]
    e348:	e5933018 	ldr	r3, [r3, #24]
    e34c:	e51b200c 	ldr	r2, [fp, #-12]
    e350:	e5922014 	ldr	r2, [r2, #20]
    e354:	e5832014 	str	r2, [r3, #20]
